

Microchip MPLAB XC8 Assembler V2.40 build 20220703182018 
                                                                                               Wed Oct 30 15:02:40 2024

Microchip MPLAB XC8 C Compiler v2.40 (Free license) build 20220703182018 Og1 
     1                           	processor	16F1786
     2                           	pagewidth 120
     3                           	opt	flic
     4                           	psect	idataBANK1,global,class=CODE,delta=2,noexec
     5                           	psect	idataBANK3,global,class=CODE,delta=2,noexec
     6                           	psect	idataBANK4,global,class=CODE,delta=2,noexec
     7                           	psect	stringtext1,global,class=STRCODE,delta=2,noexec
     8                           	psect	stringtext2,global,class=STRCODE,delta=2,noexec
     9                           	psect	stringtext3,global,class=STRCODE,delta=2,noexec
    10                           	psect	cinit,global,class=CODE,merge=1,delta=2
    11                           	psect	bssBANK1,global,class=BANK1,space=1,delta=1,noexec
    12                           	psect	dataBANK1,global,class=BANK1,space=1,delta=1,noexec
    13                           	psect	bssBANK3,global,class=BANK3,space=1,delta=1,noexec
    14                           	psect	dataBANK3,global,class=BANK3,space=1,delta=1,noexec
    15                           	psect	bssBANK4,global,class=BANK4,space=1,delta=1,noexec
    16                           	psect	dataBANK4,global,class=BANK4,space=1,delta=1,noexec
    17                           	psect	inittext,global,class=CODE,delta=2
    18                           	psect	clrtext,global,class=CODE,delta=2
    19                           	psect	cstackBANK3,global,class=BANK3,space=1,delta=1,noexec
    20                           	psect	cstackBANK2,global,class=BANK2,space=1,delta=1,noexec
    21                           	psect	cstackBANK1,global,class=BANK1,space=1,delta=1,noexec
    22                           	psect	cstackCOMMON,global,class=COMMON,space=1,delta=1,noexec
    23                           	psect	cstackBANK0,global,class=BANK0,space=1,delta=1,noexec
    24                           	psect	maintext,global,class=CODE,merge=1,split=1,delta=2
    25                           	psect	text1,local,class=CODE,merge=1,delta=2
    26                           	psect	text2,local,class=CODE,merge=1,delta=2
    27                           	psect	text3,local,class=CODE,merge=1,delta=2
    28                           	psect	text4,local,class=CODE,merge=1,delta=2
    29                           	psect	text5,local,class=CODE,merge=1,delta=2
    30                           	psect	text6,local,class=CODE,merge=1,delta=2
    31                           	psect	text7,local,class=CODE,merge=1,delta=2,group=1
    32                           	psect	text8,local,class=CODE,merge=1,delta=2,group=1
    33                           	psect	text9,local,class=CODE,merge=1,delta=2,group=1
    34                           	psect	text10,local,class=CODE,merge=1,delta=2,group=1
    35                           	psect	text11,local,class=CODE,merge=1,delta=2,group=1
    36                           	psect	text12,local,class=CODE,merge=1,delta=2,group=1
    37                           	psect	intentry,global,class=CODE,delta=2
    38                           	psect	text14,local,class=CODE,merge=1,delta=2
    39                           	psect	text15,local,class=CODE,merge=1,delta=2
    40                           	psect	text16,local,class=CODE,merge=1,delta=2
    41                           	psect	text17,local,class=CODE,merge=1,delta=2
    42                           	psect	text18,local,class=CODE,merge=1,delta=2,group=1
    43                           	psect	text19,local,class=CODE,merge=1,delta=2,group=1
    44                           	psect	text20,local,class=CODE,merge=1,delta=2
    45                           	psect	text21,local,class=CODE,merge=1,delta=2
    46                           	psect	text22,local,class=CODE,merge=1,delta=2
    47                           	psect	text23,local,class=CODE,merge=1,delta=2
    48                           	psect	text24,local,class=CODE,merge=1,delta=2
    49                           	psect	text25,local,class=CODE,merge=1,delta=2
    50                           	psect	text26,local,class=CODE,merge=1,delta=2
    51                           	psect	text27,local,class=CODE,merge=1,delta=2,group=2
    52                           	psect	text28,local,class=CODE,merge=1,delta=2,group=2
    53                           	psect	text29,local,class=CODE,merge=1,delta=2
    54                           	psect	text30,local,class=CODE,merge=1,delta=2
    55                           	psect	text31,local,class=CODE,merge=1,delta=2
    56                           	psect	text32,local,class=CODE,merge=1,delta=2
    57                           	psect	text33,local,class=CODE,merge=1,delta=2
    58                           	psect	text34,local,class=CODE,merge=1,delta=2
    59                           	psect	text35,local,class=CODE,merge=1,delta=2
    60                           	psect	text36,local,class=CODE,merge=1,delta=2
    61                           	psect	text37,local,class=CODE,merge=1,delta=2
    62                           	psect	text38,local,class=CODE,merge=1,delta=2,group=2
    63                           	psect	text39,local,class=CODE,merge=1,delta=2
    64                           	psect	text40,local,class=CODE,merge=1,delta=2
    65                           	psect	idloc,global,abs,ovrld,class=IDLOC,space=5,delta=2,noexec
    66                           	psect	config,global,abs,ovrld,class=CONFIG,space=4,delta=2,noexec
    67                           	dabs	1,0x7E,2
    68     0000                     
    69                           ; Version 2.40
    70                           ; Generated 17/11/2021 GMT
    71                           ; 
    72                           ; Copyright © 2021, Microchip Technology Inc. and its subsidiaries ("Microchip")
    73                           ; All rights reserved.
    74                           ; 
    75                           ; This software is developed by Microchip Technology Inc. and its subsidiaries ("Microch
      +                          ip").
    76                           ; 
    77                           ; Redistribution and use in source and binary forms, with or without modification, are
    78                           ; permitted provided that the following conditions are met:
    79                           ; 
    80                           ;     1. Redistributions of source code must retain the above copyright notice, this lis
      +                          t of
    81                           ;        conditions and the following disclaimer.
    82                           ; 
    83                           ;     2. Redistributions in binary form must reproduce the above copyright notice, this 
      +                          list
    84                           ;        of conditions and the following disclaimer in the documentation and/or other
    85                           ;        materials provided with the distribution. Publication is not required when
    86                           ;        this file is used in an embedded application.
    87                           ; 
    88                           ;     3. Microchip's name may not be used to endorse or promote products derived from th
      +                          is
    89                           ;        software without specific prior written permission.
    90                           ; 
    91                           ; THIS SOFTWARE IS PROVIDED BY MICROCHIP "AS IS" AND ANY EXPRESS OR IMPLIED WARRANTIES,
    92                           ; INCLUDING, BUT NOT LIMITED TO, THE IMPLIED WARRANTIES OF MERCHANTABILITY AND FITNESS F
      +                          OR
    93                           ; PURPOSE ARE DISCLAIMED.  IN NO EVENT SHALL MICROCHIP BE LIABLE FOR ANY DIRECT, INDIREC
      +                          T,
    94                           ; INCIDENTAL, SPECIAL, EXEMPLARY, OR CONSEQUENTIAL DAMAGES (INCLUDING BUT NOT LIMITED TO
    95                           ; PROCUREMENT OF SUBSTITUTE GOODS OR SERVICES; LOSS OF USE, DATA OR PROFITS; OR BUSINESS
    96                           ; INTERRUPTION) HOWSOEVER CAUSED AND ON ANY THEORY OF LIABILITY, WHETHER IN CONTRACT, ST
      +                          RICT
    97                           ; LIABILITY, OR TORT (INCLUDING NEGLIGENCE OR OTHERWISE) ARISING IN ANY WAY OUT OF THE U
      +                          SE OF
    98                           ; THIS SOFTWARE, EVEN IF ADVISED OF THE POSSIBILITY OF SUCH DAMAGE.
    99                           ; 
   100                           ; 
   101                           ; Code-generator required, PIC16F1786 Definitions
   102                           ; 
   103                           ; SFR Addresses
   104     0000                     	;# 
   105     0001                     	;# 
   106     0002                     	;# 
   107     0003                     	;# 
   108     0004                     	;# 
   109     0005                     	;# 
   110     0006                     	;# 
   111     0007                     	;# 
   112     0008                     	;# 
   113     0009                     	;# 
   114     000A                     	;# 
   115     000B                     	;# 
   116     000C                     	;# 
   117     000D                     	;# 
   118     000E                     	;# 
   119     0010                     	;# 
   120     0011                     	;# 
   121     0012                     	;# 
   122     0013                     	;# 
   123     0014                     	;# 
   124     0015                     	;# 
   125     0016                     	;# 
   126     0016                     	;# 
   127     0017                     	;# 
   128     0018                     	;# 
   129     0019                     	;# 
   130     001A                     	;# 
   131     001B                     	;# 
   132     001C                     	;# 
   133     008C                     	;# 
   134     008D                     	;# 
   135     008E                     	;# 
   136     0090                     	;# 
   137     0091                     	;# 
   138     0092                     	;# 
   139     0093                     	;# 
   140     0094                     	;# 
   141     0095                     	;# 
   142     0096                     	;# 
   143     0097                     	;# 
   144     0098                     	;# 
   145     0099                     	;# 
   146     009A                     	;# 
   147     009B                     	;# 
   148     009B                     	;# 
   149     009C                     	;# 
   150     009D                     	;# 
   151     009E                     	;# 
   152     009F                     	;# 
   153     010C                     	;# 
   154     010D                     	;# 
   155     010E                     	;# 
   156     0111                     	;# 
   157     0112                     	;# 
   158     0113                     	;# 
   159     0114                     	;# 
   160     0115                     	;# 
   161     0116                     	;# 
   162     0117                     	;# 
   163     0118                     	;# 
   164     0119                     	;# 
   165     011A                     	;# 
   166     011B                     	;# 
   167     011C                     	;# 
   168     011D                     	;# 
   169     011D                     	;# 
   170     011D                     	;# 
   171     011E                     	;# 
   172     011F                     	;# 
   173     018C                     	;# 
   174     018D                     	;# 
   175     0191                     	;# 
   176     0191                     	;# 
   177     0192                     	;# 
   178     0193                     	;# 
   179     0193                     	;# 
   180     0193                     	;# 
   181     0194                     	;# 
   182     0195                     	;# 
   183     0196                     	;# 
   184     0197                     	;# 
   185     0199                     	;# 
   186     0199                     	;# 
   187     0199                     	;# 
   188     019A                     	;# 
   189     019A                     	;# 
   190     019A                     	;# 
   191     019B                     	;# 
   192     019B                     	;# 
   193     019B                     	;# 
   194     019B                     	;# 
   195     019B                     	;# 
   196     019C                     	;# 
   197     019C                     	;# 
   198     019C                     	;# 
   199     019D                     	;# 
   200     019D                     	;# 
   201     019D                     	;# 
   202     019E                     	;# 
   203     019E                     	;# 
   204     019E                     	;# 
   205     019F                     	;# 
   206     019F                     	;# 
   207     019F                     	;# 
   208     019F                     	;# 
   209     019F                     	;# 
   210     020C                     	;# 
   211     020D                     	;# 
   212     020E                     	;# 
   213     0210                     	;# 
   214     0211                     	;# 
   215     0211                     	;# 
   216     0212                     	;# 
   217     0212                     	;# 
   218     0213                     	;# 
   219     0213                     	;# 
   220     0214                     	;# 
   221     0214                     	;# 
   222     0215                     	;# 
   223     0215                     	;# 
   224     0215                     	;# 
   225     0215                     	;# 
   226     0216                     	;# 
   227     0216                     	;# 
   228     0217                     	;# 
   229     0217                     	;# 
   230     028C                     	;# 
   231     028D                     	;# 
   232     028E                     	;# 
   233     0291                     	;# 
   234     0291                     	;# 
   235     0292                     	;# 
   236     0293                     	;# 
   237     0298                     	;# 
   238     0298                     	;# 
   239     0299                     	;# 
   240     029A                     	;# 
   241     030C                     	;# 
   242     030D                     	;# 
   243     030E                     	;# 
   244     0311                     	;# 
   245     0311                     	;# 
   246     0312                     	;# 
   247     0313                     	;# 
   248     038C                     	;# 
   249     038D                     	;# 
   250     038E                     	;# 
   251     0390                     	;# 
   252     0391                     	;# 
   253     0392                     	;# 
   254     0393                     	;# 
   255     0394                     	;# 
   256     0395                     	;# 
   257     0396                     	;# 
   258     0397                     	;# 
   259     0398                     	;# 
   260     0399                     	;# 
   261     039D                     	;# 
   262     039E                     	;# 
   263     039F                     	;# 
   264     0511                     	;# 
   265     0513                     	;# 
   266     051A                     	;# 
   267     0811                     	;# 
   268     0812                     	;# 
   269     0813                     	;# 
   270     0814                     	;# 
   271     0815                     	;# 
   272     0816                     	;# 
   273     0817                     	;# 
   274     0818                     	;# 
   275     0819                     	;# 
   276     081A                     	;# 
   277     081B                     	;# 
   278     081C                     	;# 
   279     081D                     	;# 
   280     081E                     	;# 
   281     081F                     	;# 
   282     0820                     	;# 
   283     0821                     	;# 
   284     0821                     	;# 
   285     0822                     	;# 
   286     0823                     	;# 
   287     0823                     	;# 
   288     0824                     	;# 
   289     0825                     	;# 
   290     0825                     	;# 
   291     0826                     	;# 
   292     0827                     	;# 
   293     0827                     	;# 
   294     0828                     	;# 
   295     0829                     	;# 
   296     082A                     	;# 
   297     082B                     	;# 
   298     082C                     	;# 
   299     082D                     	;# 
   300     082E                     	;# 
   301     082F                     	;# 
   302     0831                     	;# 
   303     0832                     	;# 
   304     0833                     	;# 
   305     0834                     	;# 
   306     0835                     	;# 
   307     0836                     	;# 
   308     0837                     	;# 
   309     0838                     	;# 
   310     0839                     	;# 
   311     083A                     	;# 
   312     083B                     	;# 
   313     083C                     	;# 
   314     083D                     	;# 
   315     083E                     	;# 
   316     083F                     	;# 
   317     0840                     	;# 
   318     0841                     	;# 
   319     0841                     	;# 
   320     0842                     	;# 
   321     0843                     	;# 
   322     0843                     	;# 
   323     0844                     	;# 
   324     0845                     	;# 
   325     0845                     	;# 
   326     0846                     	;# 
   327     0847                     	;# 
   328     0847                     	;# 
   329     0848                     	;# 
   330     0849                     	;# 
   331     084A                     	;# 
   332     084B                     	;# 
   333     084C                     	;# 
   334     084D                     	;# 
   335     084E                     	;# 
   336     084F                     	;# 
   337     0851                     	;# 
   338     0852                     	;# 
   339     0853                     	;# 
   340     0854                     	;# 
   341     0855                     	;# 
   342     0856                     	;# 
   343     0857                     	;# 
   344     0858                     	;# 
   345     0859                     	;# 
   346     085A                     	;# 
   347     085B                     	;# 
   348     085C                     	;# 
   349     085D                     	;# 
   350     085E                     	;# 
   351     085F                     	;# 
   352     0860                     	;# 
   353     0861                     	;# 
   354     0861                     	;# 
   355     0862                     	;# 
   356     0863                     	;# 
   357     0863                     	;# 
   358     0864                     	;# 
   359     0865                     	;# 
   360     0865                     	;# 
   361     0866                     	;# 
   362     0867                     	;# 
   363     0867                     	;# 
   364     0868                     	;# 
   365     0869                     	;# 
   366     086A                     	;# 
   367     086B                     	;# 
   368     086C                     	;# 
   369     086D                     	;# 
   370     086E                     	;# 
   371     086F                     	;# 
   372     0FE4                     	;# 
   373     0FE5                     	;# 
   374     0FE6                     	;# 
   375     0FE7                     	;# 
   376     0FE8                     	;# 
   377     0FE9                     	;# 
   378     0FEA                     	;# 
   379     0FEB                     	;# 
   380     0FED                     	;# 
   381     0FEE                     	;# 
   382     0FEF                     	;# 
   383     0000                     	;# 
   384     0001                     	;# 
   385     0002                     	;# 
   386     0003                     	;# 
   387     0004                     	;# 
   388     0005                     	;# 
   389     0006                     	;# 
   390     0007                     	;# 
   391     0008                     	;# 
   392     0009                     	;# 
   393     000A                     	;# 
   394     000B                     	;# 
   395     000C                     	;# 
   396     000D                     	;# 
   397     000E                     	;# 
   398     0010                     	;# 
   399     0011                     	;# 
   400     0012                     	;# 
   401     0013                     	;# 
   402     0014                     	;# 
   403     0015                     	;# 
   404     0016                     	;# 
   405     0016                     	;# 
   406     0017                     	;# 
   407     0018                     	;# 
   408     0019                     	;# 
   409     001A                     	;# 
   410     001B                     	;# 
   411     001C                     	;# 
   412     008C                     	;# 
   413     008D                     	;# 
   414     008E                     	;# 
   415     0090                     	;# 
   416     0091                     	;# 
   417     0092                     	;# 
   418     0093                     	;# 
   419     0094                     	;# 
   420     0095                     	;# 
   421     0096                     	;# 
   422     0097                     	;# 
   423     0098                     	;# 
   424     0099                     	;# 
   425     009A                     	;# 
   426     009B                     	;# 
   427     009B                     	;# 
   428     009C                     	;# 
   429     009D                     	;# 
   430     009E                     	;# 
   431     009F                     	;# 
   432     010C                     	;# 
   433     010D                     	;# 
   434     010E                     	;# 
   435     0111                     	;# 
   436     0112                     	;# 
   437     0113                     	;# 
   438     0114                     	;# 
   439     0115                     	;# 
   440     0116                     	;# 
   441     0117                     	;# 
   442     0118                     	;# 
   443     0119                     	;# 
   444     011A                     	;# 
   445     011B                     	;# 
   446     011C                     	;# 
   447     011D                     	;# 
   448     011D                     	;# 
   449     011D                     	;# 
   450     011E                     	;# 
   451     011F                     	;# 
   452     018C                     	;# 
   453     018D                     	;# 
   454     0191                     	;# 
   455     0191                     	;# 
   456     0192                     	;# 
   457     0193                     	;# 
   458     0193                     	;# 
   459     0193                     	;# 
   460     0194                     	;# 
   461     0195                     	;# 
   462     0196                     	;# 
   463     0197                     	;# 
   464     0199                     	;# 
   465     0199                     	;# 
   466     0199                     	;# 
   467     019A                     	;# 
   468     019A                     	;# 
   469     019A                     	;# 
   470     019B                     	;# 
   471     019B                     	;# 
   472     019B                     	;# 
   473     019B                     	;# 
   474     019B                     	;# 
   475     019C                     	;# 
   476     019C                     	;# 
   477     019C                     	;# 
   478     019D                     	;# 
   479     019D                     	;# 
   480     019D                     	;# 
   481     019E                     	;# 
   482     019E                     	;# 
   483     019E                     	;# 
   484     019F                     	;# 
   485     019F                     	;# 
   486     019F                     	;# 
   487     019F                     	;# 
   488     019F                     	;# 
   489     020C                     	;# 
   490     020D                     	;# 
   491     020E                     	;# 
   492     0210                     	;# 
   493     0211                     	;# 
   494     0211                     	;# 
   495     0212                     	;# 
   496     0212                     	;# 
   497     0213                     	;# 
   498     0213                     	;# 
   499     0214                     	;# 
   500     0214                     	;# 
   501     0215                     	;# 
   502     0215                     	;# 
   503     0215                     	;# 
   504     0215                     	;# 
   505     0216                     	;# 
   506     0216                     	;# 
   507     0217                     	;# 
   508     0217                     	;# 
   509     028C                     	;# 
   510     028D                     	;# 
   511     028E                     	;# 
   512     0291                     	;# 
   513     0291                     	;# 
   514     0292                     	;# 
   515     0293                     	;# 
   516     0298                     	;# 
   517     0298                     	;# 
   518     0299                     	;# 
   519     029A                     	;# 
   520     030C                     	;# 
   521     030D                     	;# 
   522     030E                     	;# 
   523     0311                     	;# 
   524     0311                     	;# 
   525     0312                     	;# 
   526     0313                     	;# 
   527     038C                     	;# 
   528     038D                     	;# 
   529     038E                     	;# 
   530     0390                     	;# 
   531     0391                     	;# 
   532     0392                     	;# 
   533     0393                     	;# 
   534     0394                     	;# 
   535     0395                     	;# 
   536     0396                     	;# 
   537     0397                     	;# 
   538     0398                     	;# 
   539     0399                     	;# 
   540     039D                     	;# 
   541     039E                     	;# 
   542     039F                     	;# 
   543     0511                     	;# 
   544     0513                     	;# 
   545     051A                     	;# 
   546     0811                     	;# 
   547     0812                     	;# 
   548     0813                     	;# 
   549     0814                     	;# 
   550     0815                     	;# 
   551     0816                     	;# 
   552     0817                     	;# 
   553     0818                     	;# 
   554     0819                     	;# 
   555     081A                     	;# 
   556     081B                     	;# 
   557     081C                     	;# 
   558     081D                     	;# 
   559     081E                     	;# 
   560     081F                     	;# 
   561     0820                     	;# 
   562     0821                     	;# 
   563     0821                     	;# 
   564     0822                     	;# 
   565     0823                     	;# 
   566     0823                     	;# 
   567     0824                     	;# 
   568     0825                     	;# 
   569     0825                     	;# 
   570     0826                     	;# 
   571     0827                     	;# 
   572     0827                     	;# 
   573     0828                     	;# 
   574     0829                     	;# 
   575     082A                     	;# 
   576     082B                     	;# 
   577     082C                     	;# 
   578     082D                     	;# 
   579     082E                     	;# 
   580     082F                     	;# 
   581     0831                     	;# 
   582     0832                     	;# 
   583     0833                     	;# 
   584     0834                     	;# 
   585     0835                     	;# 
   586     0836                     	;# 
   587     0837                     	;# 
   588     0838                     	;# 
   589     0839                     	;# 
   590     083A                     	;# 
   591     083B                     	;# 
   592     083C                     	;# 
   593     083D                     	;# 
   594     083E                     	;# 
   595     083F                     	;# 
   596     0840                     	;# 
   597     0841                     	;# 
   598     0841                     	;# 
   599     0842                     	;# 
   600     0843                     	;# 
   601     0843                     	;# 
   602     0844                     	;# 
   603     0845                     	;# 
   604     0845                     	;# 
   605     0846                     	;# 
   606     0847                     	;# 
   607     0847                     	;# 
   608     0848                     	;# 
   609     0849                     	;# 
   610     084A                     	;# 
   611     084B                     	;# 
   612     084C                     	;# 
   613     084D                     	;# 
   614     084E                     	;# 
   615     084F                     	;# 
   616     0851                     	;# 
   617     0852                     	;# 
   618     0853                     	;# 
   619     0854                     	;# 
   620     0855                     	;# 
   621     0856                     	;# 
   622     0857                     	;# 
   623     0858                     	;# 
   624     0859                     	;# 
   625     085A                     	;# 
   626     085B                     	;# 
   627     085C                     	;# 
   628     085D                     	;# 
   629     085E                     	;# 
   630     085F                     	;# 
   631     0860                     	;# 
   632     0861                     	;# 
   633     0861                     	;# 
   634     0862                     	;# 
   635     0863                     	;# 
   636     0863                     	;# 
   637     0864                     	;# 
   638     0865                     	;# 
   639     0865                     	;# 
   640     0866                     	;# 
   641     0867                     	;# 
   642     0867                     	;# 
   643     0868                     	;# 
   644     0869                     	;# 
   645     086A                     	;# 
   646     086B                     	;# 
   647     086C                     	;# 
   648     086D                     	;# 
   649     086E                     	;# 
   650     086F                     	;# 
   651     0FE4                     	;# 
   652     0FE5                     	;# 
   653     0FE6                     	;# 
   654     0FE7                     	;# 
   655     0FE8                     	;# 
   656     0FE9                     	;# 
   657     0FEA                     	;# 
   658     0FEB                     	;# 
   659     0FED                     	;# 
   660     0FEE                     	;# 
   661     0FEF                     	;# 
   662     0000                     	;# 
   663     0001                     	;# 
   664     0002                     	;# 
   665     0003                     	;# 
   666     0004                     	;# 
   667     0005                     	;# 
   668     0006                     	;# 
   669     0007                     	;# 
   670     0008                     	;# 
   671     0009                     	;# 
   672     000A                     	;# 
   673     000B                     	;# 
   674     000C                     	;# 
   675     000D                     	;# 
   676     000E                     	;# 
   677     0010                     	;# 
   678     0011                     	;# 
   679     0012                     	;# 
   680     0013                     	;# 
   681     0014                     	;# 
   682     0015                     	;# 
   683     0016                     	;# 
   684     0016                     	;# 
   685     0017                     	;# 
   686     0018                     	;# 
   687     0019                     	;# 
   688     001A                     	;# 
   689     001B                     	;# 
   690     001C                     	;# 
   691     008C                     	;# 
   692     008D                     	;# 
   693     008E                     	;# 
   694     0090                     	;# 
   695     0091                     	;# 
   696     0092                     	;# 
   697     0093                     	;# 
   698     0094                     	;# 
   699     0095                     	;# 
   700     0096                     	;# 
   701     0097                     	;# 
   702     0098                     	;# 
   703     0099                     	;# 
   704     009A                     	;# 
   705     009B                     	;# 
   706     009B                     	;# 
   707     009C                     	;# 
   708     009D                     	;# 
   709     009E                     	;# 
   710     009F                     	;# 
   711     010C                     	;# 
   712     010D                     	;# 
   713     010E                     	;# 
   714     0111                     	;# 
   715     0112                     	;# 
   716     0113                     	;# 
   717     0114                     	;# 
   718     0115                     	;# 
   719     0116                     	;# 
   720     0117                     	;# 
   721     0118                     	;# 
   722     0119                     	;# 
   723     011A                     	;# 
   724     011B                     	;# 
   725     011C                     	;# 
   726     011D                     	;# 
   727     011D                     	;# 
   728     011D                     	;# 
   729     011E                     	;# 
   730     011F                     	;# 
   731     018C                     	;# 
   732     018D                     	;# 
   733     0191                     	;# 
   734     0191                     	;# 
   735     0192                     	;# 
   736     0193                     	;# 
   737     0193                     	;# 
   738     0193                     	;# 
   739     0194                     	;# 
   740     0195                     	;# 
   741     0196                     	;# 
   742     0197                     	;# 
   743     0199                     	;# 
   744     0199                     	;# 
   745     0199                     	;# 
   746     019A                     	;# 
   747     019A                     	;# 
   748     019A                     	;# 
   749     019B                     	;# 
   750     019B                     	;# 
   751     019B                     	;# 
   752     019B                     	;# 
   753     019B                     	;# 
   754     019C                     	;# 
   755     019C                     	;# 
   756     019C                     	;# 
   757     019D                     	;# 
   758     019D                     	;# 
   759     019D                     	;# 
   760     019E                     	;# 
   761     019E                     	;# 
   762     019E                     	;# 
   763     019F                     	;# 
   764     019F                     	;# 
   765     019F                     	;# 
   766     019F                     	;# 
   767     019F                     	;# 
   768     020C                     	;# 
   769     020D                     	;# 
   770     020E                     	;# 
   771     0210                     	;# 
   772     0211                     	;# 
   773     0211                     	;# 
   774     0212                     	;# 
   775     0212                     	;# 
   776     0213                     	;# 
   777     0213                     	;# 
   778     0214                     	;# 
   779     0214                     	;# 
   780     0215                     	;# 
   781     0215                     	;# 
   782     0215                     	;# 
   783     0215                     	;# 
   784     0216                     	;# 
   785     0216                     	;# 
   786     0217                     	;# 
   787     0217                     	;# 
   788     028C                     	;# 
   789     028D                     	;# 
   790     028E                     	;# 
   791     0291                     	;# 
   792     0291                     	;# 
   793     0292                     	;# 
   794     0293                     	;# 
   795     0298                     	;# 
   796     0298                     	;# 
   797     0299                     	;# 
   798     029A                     	;# 
   799     030C                     	;# 
   800     030D                     	;# 
   801     030E                     	;# 
   802     0311                     	;# 
   803     0311                     	;# 
   804     0312                     	;# 
   805     0313                     	;# 
   806     038C                     	;# 
   807     038D                     	;# 
   808     038E                     	;# 
   809     0390                     	;# 
   810     0391                     	;# 
   811     0392                     	;# 
   812     0393                     	;# 
   813     0394                     	;# 
   814     0395                     	;# 
   815     0396                     	;# 
   816     0397                     	;# 
   817     0398                     	;# 
   818     0399                     	;# 
   819     039D                     	;# 
   820     039E                     	;# 
   821     039F                     	;# 
   822     0511                     	;# 
   823     0513                     	;# 
   824     051A                     	;# 
   825     0811                     	;# 
   826     0812                     	;# 
   827     0813                     	;# 
   828     0814                     	;# 
   829     0815                     	;# 
   830     0816                     	;# 
   831     0817                     	;# 
   832     0818                     	;# 
   833     0819                     	;# 
   834     081A                     	;# 
   835     081B                     	;# 
   836     081C                     	;# 
   837     081D                     	;# 
   838     081E                     	;# 
   839     081F                     	;# 
   840     0820                     	;# 
   841     0821                     	;# 
   842     0821                     	;# 
   843     0822                     	;# 
   844     0823                     	;# 
   845     0823                     	;# 
   846     0824                     	;# 
   847     0825                     	;# 
   848     0825                     	;# 
   849     0826                     	;# 
   850     0827                     	;# 
   851     0827                     	;# 
   852     0828                     	;# 
   853     0829                     	;# 
   854     082A                     	;# 
   855     082B                     	;# 
   856     082C                     	;# 
   857     082D                     	;# 
   858     082E                     	;# 
   859     082F                     	;# 
   860     0831                     	;# 
   861     0832                     	;# 
   862     0833                     	;# 
   863     0834                     	;# 
   864     0835                     	;# 
   865     0836                     	;# 
   866     0837                     	;# 
   867     0838                     	;# 
   868     0839                     	;# 
   869     083A                     	;# 
   870     083B                     	;# 
   871     083C                     	;# 
   872     083D                     	;# 
   873     083E                     	;# 
   874     083F                     	;# 
   875     0840                     	;# 
   876     0841                     	;# 
   877     0841                     	;# 
   878     0842                     	;# 
   879     0843                     	;# 
   880     0843                     	;# 
   881     0844                     	;# 
   882     0845                     	;# 
   883     0845                     	;# 
   884     0846                     	;# 
   885     0847                     	;# 
   886     0847                     	;# 
   887     0848                     	;# 
   888     0849                     	;# 
   889     084A                     	;# 
   890     084B                     	;# 
   891     084C                     	;# 
   892     084D                     	;# 
   893     084E                     	;# 
   894     084F                     	;# 
   895     0851                     	;# 
   896     0852                     	;# 
   897     0853                     	;# 
   898     0854                     	;# 
   899     0855                     	;# 
   900     0856                     	;# 
   901     0857                     	;# 
   902     0858                     	;# 
   903     0859                     	;# 
   904     085A                     	;# 
   905     085B                     	;# 
   906     085C                     	;# 
   907     085D                     	;# 
   908     085E                     	;# 
   909     085F                     	;# 
   910     0860                     	;# 
   911     0861                     	;# 
   912     0861                     	;# 
   913     0862                     	;# 
   914     0863                     	;# 
   915     0863                     	;# 
   916     0864                     	;# 
   917     0865                     	;# 
   918     0865                     	;# 
   919     0866                     	;# 
   920     0867                     	;# 
   921     0867                     	;# 
   922     0868                     	;# 
   923     0869                     	;# 
   924     086A                     	;# 
   925     086B                     	;# 
   926     086C                     	;# 
   927     086D                     	;# 
   928     086E                     	;# 
   929     086F                     	;# 
   930     0FE4                     	;# 
   931     0FE5                     	;# 
   932     0FE6                     	;# 
   933     0FE7                     	;# 
   934     0FE8                     	;# 
   935     0FE9                     	;# 
   936     0FEA                     	;# 
   937     0FEB                     	;# 
   938     0FED                     	;# 
   939     0FEE                     	;# 
   940     0FEF                     	;# 
   941                           
   942                           	psect	idataBANK1
   943     1D6E                     __pidataBANK1:
   944                           
   945                           ;initializer for _count
   946     1D6E  3400               	retlw	0
   947     1D6F  3404               	retlw	4
   948                           
   949                           ;initializer for _cmode
   950     1D70  3401               	retlw	1
   951                           
   952                           ;initializer for _cell_count
   953     1D71  3401               	retlw	1
   954                           
   955                           	psect	idataBANK3
   956     1D9A                     __pidataBANK3:
   957                           
   958                           ;initializer for _CC_char_ki
   959     1D9A  346F               	retlw	111
   960     1D9B  3412               	retlw	18
   961     1D9C  3403               	retlw	3
   962     1D9D  343A               	retlw	58
   963                           
   964                           ;initializer for _CC_char_kp
   965     1D9E  34A6               	retlw	166
   966     1D9F  349B               	retlw	155
   967     1DA0  3444               	retlw	68
   968     1DA1  343B               	retlw	59
   969                           
   970                           ;initializer for _CV_kd
   971     1DA2  340A               	retlw	10
   972     1DA3  34D7               	retlw	215
   973     1DA4  34A3               	retlw	163
   974     1DA5  343C               	retlw	60
   975                           
   976                           ;initializer for _CV_ki
   977     1DA6  346F               	retlw	111
   978     1DA7  3412               	retlw	18
   979     1DA8  3403               	retlw	3
   980     1DA9  343A               	retlw	58
   981                           
   982                           ;initializer for _CV_kp
   983     1DAA  34FA               	retlw	250
   984     1DAB  34ED               	retlw	237
   985     1DAC  34EB               	retlw	235
   986     1DAD  343A               	retlw	58
   987                           
   988                           ;initializer for _SECF
   989     1DAE  3401               	retlw	1
   990                           
   991                           	psect	idataBANK4
   992     1D7E                     __pidataBANK4:
   993                           
   994                           ;initializer for _CC_disc_ki
   995     1D7E  346F               	retlw	111
   996     1D7F  3412               	retlw	18
   997     1D80  3483               	retlw	131
   998     1D81  343A               	retlw	58
   999                           
  1000                           ;initializer for _CC_disc_kp
  1001     1D82  34A6               	retlw	166
  1002     1D83  349B               	retlw	155
  1003     1D84  34C4               	retlw	196
  1004     1D85  343B               	retlw	59
  1005     0016                     _TMR1L	set	22
  1006     0017                     _TMR1H	set	23
  1007     006D                     _RB5	set	109
  1008     006C                     _RB4	set	108
  1009     006B                     _RB3	set	107
  1010     006A                     _RB2	set	106
  1011     008C                     _TXIF	set	140
  1012     0088                     _TMR1IF	set	136
  1013     005F                     _GIE	set	95
  1014     005E                     _PEIE	set	94
  1015     008D                     _RCIF	set	141
  1016     0075                     _RC5	set	117
  1017     0074                     _RC4	set	116
  1018     0073                     _RC3	set	115
  1019     00C5                     _T1CKPS1	set	197
  1020     00C4                     _T1CKPS0	set	196
  1021     00C7                     _TMR1CS1	set	199
  1022     00C6                     _TMR1CS0	set	198
  1023     00CF                     _TMR1GE	set	207
  1024     00C0                     _TMR1ON	set	192
  1025     00C3                     _T1OSCEN	set	195
  1026     00C2                     _nT1SYNC	set	194
  1027     009C                     _ADRESH	set	156
  1028     009B                     _ADRESL	set	155
  1029     009F                     _ADCON2bits	set	159
  1030     009E                     _ADCON1bits	set	158
  1031     009D                     _ADCON0bits	set	157
  1032     0099                     _OSCCONbits	set	153
  1033     0488                     _TMR1IE	set	1160
  1034     04E9                     _GO_nDONE	set	1257
  1035     048C                     _TXIE	set	1164
  1036     048D                     _RCIE	set	1165
  1037     0465                     _TRISA5	set	1125
  1038     0468                     _TRISB0	set	1128
  1039     0469                     _TRISB1	set	1129
  1040     0463                     _TRISA3	set	1123
  1041     0472                     _TRISC2	set	1138
  1042     046D                     _TRISB5	set	1133
  1043     046C                     _TRISB4	set	1132
  1044     046B                     _TRISB3	set	1131
  1045     046A                     _TRISB2	set	1130
  1046     0475                     _TRISC5	set	1141
  1047     0474                     _TRISC4	set	1140
  1048     0473                     _TRISC3	set	1139
  1049     04AF                     _nWPUEN	set	1199
  1050     08E9                     _RXSEL	set	2281
  1051     08EA                     _TXSEL	set	2282
  1052     019D                     _RC1STAbits	set	413
  1053     019A                     _TX1REG	set	410
  1054     0199                     _RC1REG	set	409
  1055     019B                     _SP1BRGL	set	411
  1056     019C                     _SP1BRGH	set	412
  1057     0CE9                     _OERR	set	3305
  1058     0CEE                     _RX9	set	3310
  1059     0CF6                     _TX9	set	3318
  1060     0CEC                     _CREN	set	3308
  1061     0CF5                     _TXEN	set	3317
  1062     0CEF                     _SPEN	set	3311
  1063     0CF4                     _SYNC	set	3316
  1064     0CFB                     _BRG16	set	3323
  1065     0CF2                     _BRGH	set	3314
  1066     0C65                     _ANSA5	set	3173
  1067     0C68                     _ANSB0	set	3176
  1068     0C69                     _ANSB1	set	3177
  1069     0C63                     _ANSA3	set	3171
  1070     0C6D                     _ANSB5	set	3181
  1071     0C6C                     _ANSB4	set	3180
  1072     0C6B                     _ANSB3	set	3179
  1073     0C6A                     _ANSB2	set	3178
  1074     1065                     _WPUA5	set	4197
  1075     1068                     _WPUB0	set	4200
  1076     1069                     _WPUB1	set	4201
  1077     1063                     _WPUA3	set	4195
  1078     1072                     _WPUC2	set	4210
  1079     106D                     _WPUB5	set	4205
  1080     106C                     _WPUB4	set	4204
  1081     106B                     _WPUB3	set	4203
  1082     106A                     _WPUB2	set	4202
  1083     1075                     _WPUC5	set	4213
  1084     1074                     _WPUC4	set	4212
  1085     1073                     _WPUC3	set	4211
  1086     1083                     _WPUE3	set	4227
  1087     0811                     _PSMC1CONbits	set	2065
  1088     0821                     _PSMC1PHL	set	2081
  1089     0822                     _PSMC1PHH	set	2082
  1090     0823                     _PSMC1DCL	set	2083
  1091     0824                     _PSMC1DCH	set	2084
  1092     0825                     _PSMC1PRL	set	2085
  1093     0826                     _PSMC1PRH	set	2086
  1094     0814                     _PSMC1CLK	set	2068
  1095     0812                     _PSMC1MDL	set	2066
  1096     0811                     _PSMC1CON	set	2065
  1097     40D8                     _P1DCST	set	16600
  1098     40D0                     _P1PHST	set	16592
  1099     40E0                     _P1PRST	set	16608
  1100     40AA                     _P1OEC	set	16554
  1101     40B2                     _P1POLC	set	16562
  1102     4172                     _P1STRC	set	16754
  1103                           
  1104                           	psect	stringtext1
  1105     1800                     __pstringtext1:
  1106     1800                     STR_2:
  1107     1800  3454               	retlw	84	;'T'
  1108     1801  3449               	retlw	73	;'I'
  1109     1802  344D               	retlw	77	;'M'
  1110     1803  3449               	retlw	73	;'I'
  1111     1804  344E               	retlw	78	;'N'
  1112     1805  3447               	retlw	71	;'G'
  1113     1806  345F               	retlw	95	;'_'
  1114     1807  3445               	retlw	69	;'E'
  1115     1808  3452               	retlw	82	;'R'
  1116     1809  3452               	retlw	82	;'R'
  1117     180A  344F               	retlw	79	;'O'
  1118     180B  3452               	retlw	82	;'R'
  1119     180C  3400               	retlw	0
  1120                           
  1121                           	psect	stringtext2
  1122     180D                     __pstringtext2:
  1123     180D                     STR_1:
  1124     180D  344F               	retlw	79	;'O'
  1125     180E  3445               	retlw	69	;'E'
  1126     180F  3452               	retlw	82	;'R'
  1127     1810  3452               	retlw	82	;'R'
  1128     1811  345F               	retlw	95	;'_'
  1129     1812  3445               	retlw	69	;'E'
  1130     1813  3452               	retlw	82	;'R'
  1131     1814  3452               	retlw	82	;'R'
  1132     1815  344F               	retlw	79	;'O'
  1133     1816  3452               	retlw	82	;'R'
  1134     1817  3400               	retlw	0
  1135                           
  1136                           	psect	stringtext3
  1137     0000                     __pstringtext3:
  1138                           
  1139                           	psect	cinit
  1140     007C                     start_initialization:	
  1141                           ; #config settings
  1142                           
  1143     007C                     __initialization:
  1144                           
  1145                           ; Initialize objects allocated to BANK1
  1146     007C  306E               	movlw	low __pidataBANK1
  1147     007D  0084               	movwf	4
  1148     007E  309D               	movlw	(high __pidataBANK1)| (0+128)
  1149     007F  0085               	movwf	5
  1150     0080  30EA               	movlw	low __pdataBANK1
  1151     0081  0086               	movwf	6
  1152     0082  3000               	movlw	high __pdataBANK1
  1153     0083  0087               	movwf	7
  1154     0084  3004               	movlw	4
  1155     0085  319D  2578  3180   	fcall	init_ram
  1156                           
  1157                           ; Initialize objects allocated to BANK3
  1158     0088  309A               	movlw	low __pidataBANK3
  1159     0089  0084               	movwf	4
  1160     008A  309D               	movlw	(high __pidataBANK3)| (0+128)
  1161     008B  0085               	movwf	5
  1162     008C  30DA               	movlw	low __pdataBANK3
  1163     008D  0086               	movwf	6
  1164     008E  3001               	movlw	high __pdataBANK3
  1165     008F  0087               	movwf	7
  1166     0090  3015               	movlw	21
  1167     0091  319D  2578  3180   	fcall	init_ram
  1168                           
  1169                           ; Initialize objects allocated to BANK4
  1170     0094  307E               	movlw	low __pidataBANK4
  1171     0095  0084               	movwf	4
  1172     0096  309D               	movlw	(high __pidataBANK4)| (0+128)
  1173     0097  0085               	movwf	5
  1174     0098  3028               	movlw	low __pdataBANK4
  1175     0099  0086               	movwf	6
  1176     009A  3002               	movlw	high __pdataBANK4
  1177     009B  0087               	movwf	7
  1178     009C  3008               	movlw	8
  1179     009D  319D  2578  3180   	fcall	init_ram
  1180                           
  1181                           ; Clear objects allocated to BANK1
  1182     00A0  30C7               	movlw	low __pbssBANK1
  1183     00A1  0084               	movwf	4
  1184     00A2  3000               	movlw	high __pbssBANK1
  1185     00A3  0085               	movwf	5
  1186     00A4  3023               	movlw	35
  1187     00A5  319D  2572  3180   	fcall	clear_ram0
  1188                           
  1189                           ; Clear objects allocated to BANK3
  1190     00A8  30A0               	movlw	low __pbssBANK3
  1191     00A9  0084               	movwf	4
  1192     00AA  3001               	movlw	high __pbssBANK3
  1193     00AB  0085               	movwf	5
  1194     00AC  3021               	movlw	33
  1195     00AD  319D  2572  3180   	fcall	clear_ram0
  1196                           
  1197                           ; Clear objects allocated to BANK4
  1198     00B0  3020               	movlw	low __pbssBANK4
  1199     00B1  0084               	movwf	4
  1200     00B2  3002               	movlw	high __pbssBANK4
  1201     00B3  0085               	movwf	5
  1202     00B4  3008               	movlw	8
  1203     00B5  319D  2572  3180   	fcall	clear_ram0
  1204     00B8                     end_of_initialization:	
  1205                           ;End of C runtime variable initialization code
  1206                           
  1207     00B8                     __end_of__initialization:
  1208     00B8  107E               	bcf	int$flags,0	;clear compiler interrupt flag (level 1)
  1209     00B9  0020               	movlb	0
  1210     00BA  3190  2811         	ljmp	_main	;jump to C main() function
  1211                           
  1212                           	psect	bssBANK1
  1213     00C7                     __pbssBANK1:
  1214     00C7                     _er:
  1215     00C7                     	ds	4
  1216     00CB                     _pidi:
  1217     00CB                     	ds	4
  1218     00CF                     _iacum:
  1219     00CF                     	ds	3
  1220     00D2                     _vacum:
  1221     00D2                     	ds	3
  1222     00D5                     _i_ref:
  1223     00D5                     	ds	2
  1224     00D7                     _vmax:
  1225     00D7                     	ds	2
  1226     00D9                     _const_cur:
  1227     00D9                     	ds	2
  1228     00DB                     _const_vol:
  1229     00DB                     	ds	2
  1230     00DD                     _i:
  1231     00DD                     	ds	2
  1232     00DF                     _v:
  1233     00DF                     	ds	2
  1234     00E1                     _i_disc:
  1235     00E1                     	ds	2
  1236     00E3                     _i_char:
  1237     00E3                     	ds	2
  1238     00E5                     _capacity:
  1239     00E5                     	ds	2
  1240     00E7                     _conv:
  1241     00E7                     	ds	1
  1242     00E8                     _SRXF:
  1243     00E8                     	ds	1
  1244     00E9                     _log_data_ptr:
  1245     00E9                     	ds	1
  1246                           
  1247                           	psect	dataBANK1
  1248     00EA                     __pdataBANK1:
  1249     00EA                     _count:
  1250     00EA                     	ds	2
  1251     00EC                     _cmode:
  1252     00EC                     	ds	1
  1253     00ED                     _cell_count:
  1254     00ED                     	ds	1
  1255                           
  1256                           	psect	bssBANK3
  1257     01A0                     __pbssBANK3:
  1258     01A0                     _pidt:
  1259     01A0                     	ds	4
  1260     01A4                     _v_ref:
  1261     01A4                     	ds	4
  1262     01A8                     _kd:
  1263     01A8                     	ds	4
  1264     01AC                     _ki:
  1265     01AC                     	ds	4
  1266     01B0                     _kp:
  1267     01B0                     	ds	4
  1268     01B4                     _qavg:
  1269     01B4                     	ds	4
  1270     01B8                     _timeout:
  1271     01B8                     	ds	2
  1272     01BA                     _second:
  1273     01BA                     	ds	2
  1274     01BC                     _iavg:
  1275     01BC                     	ds	2
  1276     01BE                     _vavg:
  1277     01BE                     	ds	2
  1278     01C0                     _CC_char_disc_kd:
  1279     01C0                     	ds	1
  1280                           
  1281                           	psect	dataBANK3
  1282     01DA                     __pdataBANK3:
  1283     01DA                     _CC_char_ki:
  1284     01DA                     	ds	4
  1285     01DE                     _CC_char_kp:
  1286     01DE                     	ds	4
  1287     01E2                     _CV_kd:
  1288     01E2                     	ds	4
  1289     01E6                     _CV_ki:
  1290     01E6                     	ds	4
  1291     01EA                     _CV_kp:
  1292     01EA                     	ds	4
  1293     01EE                     _SECF:
  1294     01EE                     	ds	1
  1295                           
  1296                           	psect	bssBANK4
  1297     0220                     __pbssBANK4:
  1298     0220                     _log_data:
  1299     0220                     	ds	8
  1300                           
  1301                           	psect	dataBANK4
  1302     0228                     __pdataBANK4:
  1303     0228                     _CC_disc_ki:
  1304     0228                     	ds	4
  1305     022C                     _CC_disc_kp:
  1306     022C                     	ds	4
  1307                           
  1308                           	psect	inittext
  1309     1D78                     init_ram:
  1310     1D78  00FE               	movwf	btemp
  1311     1D79                     initloop:
  1312     1D79  0012               	moviw fsr0++
  1313     1D7A  001E               	movwi fsr1++
  1314     1D7B  0BFE               	decfsz	btemp,f
  1315     1D7C  2D79               	goto	initloop
  1316     1D7D  3400               	retlw	0
  1317                           
  1318                           	psect	clrtext
  1319     1D72                     clear_ram0:	
  1320                           ;	Called with FSR0 containing the base address, and
  1321                           ;	WREG with the size to clear
  1322                           
  1323     1D72  0064               	clrwdt	;clear the watchdog before getting into this loop
  1324     1D73                     clrloop0:
  1325     1D73  0180               	clrf	0	;clear RAM location pointed to by FSR
  1326     1D74  3101               	addfsr 0,1
  1327     1D75  0B89               	decfsz	9,f	;Have we reached the end of clearing yet?
  1328     1D76  2D73               	goto	clrloop0	;have we reached the end yet?
  1329     1D77  3400               	retlw	0	;all done for this memory range, return
  1330                           
  1331                           	psect	cstackBANK3
  1332     01C1                     __pcstackBANK3:
  1333     01C1                     ??___fladd:
  1334                           
  1335                           ; 1 bytes @ 0x0
  1336     01C1                     	ds	8
  1337     01C9                     ?___fltol:
  1338     01C9                     ___fltol@f1:	
  1339                           ; 4 bytes @ 0x8
  1340                           
  1341                           
  1342                           ; 4 bytes @ 0x8
  1343     01C9                     	ds	4
  1344     01CD                     ??___fltol:
  1345                           
  1346                           ; 1 bytes @ 0xC
  1347     01CD                     	ds	4
  1348     01D1                     ?_cc_cv_mode:
  1349     01D1                     set_DC@dc:	
  1350                           ; 1 bytes @ 0x10
  1351                           
  1352     01D1                     cc_cv_mode@current_voltage:	
  1353                           ; 2 bytes @ 0x10
  1354                           
  1355     01D1                     _scaling$1269:	
  1356                           ; 2 bytes @ 0x10
  1357                           
  1358                           
  1359                           ; 4 bytes @ 0x10
  1360     01D1                     	ds	2
  1361     01D3                     ??_initialize:
  1362     01D3                     cc_cv_mode@reference_voltage:	
  1363                           ; 1 bytes @ 0x12
  1364                           
  1365                           
  1366                           ; 2 bytes @ 0x12
  1367     01D3                     	ds	2
  1368     01D5                     cc_cv_mode@CC_mode_status:
  1369     01D5                     _scaling$1268:	
  1370                           ; 1 bytes @ 0x14
  1371                           
  1372                           
  1373                           ; 4 bytes @ 0x14
  1374     01D5                     	ds	4
  1375     01D9                     ??_main:
  1376                           
  1377                           ; 1 bytes @ 0x18
  1378     01D9                     	ds	1
  1379                           
  1380                           	psect	cstackBANK2
  1381     0120                     __pcstackBANK2:
  1382     0120                     ??_Cell_OFF:
  1383     0120                     ??_interrupt_enable:	
  1384                           ; 1 bytes @ 0x0
  1385                           
  1386     0120                     ?__Umul8_16:	
  1387                           ; 1 bytes @ 0x0
  1388                           
  1389     0120                     ?___xxtofl:	
  1390                           ; 2 bytes @ 0x0
  1391                           
  1392     0120                     __Umul8_16@multiplicand:	
  1393                           ; 4 bytes @ 0x0
  1394                           
  1395     0120                     ___xxtofl@val:	
  1396                           ; 1 bytes @ 0x0
  1397                           
  1398                           
  1399                           ; 4 bytes @ 0x0
  1400     0120                     	ds	2
  1401     0122                     ??__Umul8_16:
  1402                           
  1403                           ; 1 bytes @ 0x2
  1404     0122                     	ds	2
  1405     0124                     ??___xxtofl:
  1406     0124                     __Umul8_16@product:	
  1407                           ; 1 bytes @ 0x4
  1408                           
  1409                           
  1410                           ; 2 bytes @ 0x4
  1411     0124                     	ds	2
  1412     0126                     __Umul8_16@word_mpld:
  1413                           
  1414                           ; 2 bytes @ 0x6
  1415     0126                     	ds	2
  1416     0128                     __Umul8_16@multiplier:
  1417     0128                     ___xxtofl@sign:	
  1418                           ; 1 bytes @ 0x8
  1419                           
  1420                           
  1421                           ; 1 bytes @ 0x8
  1422     0128                     	ds	1
  1423     0129                     ___xxtofl@exp:
  1424                           
  1425                           ; 1 bytes @ 0x9
  1426     0129                     	ds	1
  1427     012A                     ___xxtofl@arg:
  1428                           
  1429                           ; 4 bytes @ 0xA
  1430     012A                     	ds	4
  1431     012E                     ?___flmul:
  1432     012E                     ___flmul@b:	
  1433                           ; 4 bytes @ 0xE
  1434                           
  1435                           
  1436                           ; 4 bytes @ 0xE
  1437     012E                     	ds	4
  1438     0132                     ___flmul@a:
  1439                           
  1440                           ; 4 bytes @ 0x12
  1441     0132                     	ds	4
  1442     0136                     ??___flmul:
  1443                           
  1444                           ; 1 bytes @ 0x16
  1445     0136                     	ds	5
  1446     013B                     ___flmul@sign:
  1447                           
  1448                           ; 1 bytes @ 0x1B
  1449     013B                     	ds	1
  1450     013C                     ___flmul@aexp:
  1451                           
  1452                           ; 1 bytes @ 0x1C
  1453     013C                     	ds	1
  1454     013D                     ___flmul@grs:
  1455                           
  1456                           ; 4 bytes @ 0x1D
  1457     013D                     	ds	4
  1458     0141                     ___flmul@bexp:
  1459                           
  1460                           ; 1 bytes @ 0x21
  1461     0141                     	ds	1
  1462     0142                     ___flmul@prod:
  1463                           
  1464                           ; 4 bytes @ 0x22
  1465     0142                     	ds	4
  1466     0146                     ___flmul@temp:
  1467                           
  1468                           ; 2 bytes @ 0x26
  1469     0146                     	ds	2
  1470     0148                     ?___fldiv:
  1471     0148                     ___fldiv@a:	
  1472                           ; 4 bytes @ 0x28
  1473                           
  1474                           
  1475                           ; 4 bytes @ 0x28
  1476     0148                     	ds	4
  1477     014C                     ___fldiv@b:
  1478                           
  1479                           ; 4 bytes @ 0x2C
  1480     014C                     	ds	4
  1481     0150                     ??___fldiv:
  1482                           
  1483                           ; 1 bytes @ 0x30
  1484     0150                     	ds	5
  1485     0155                     ___fldiv@rem:
  1486                           
  1487                           ; 4 bytes @ 0x35
  1488     0155                     	ds	4
  1489     0159                     ___fldiv@sign:
  1490                           
  1491                           ; 1 bytes @ 0x39
  1492     0159                     	ds	1
  1493     015A                     ___fldiv@new_exp:
  1494                           
  1495                           ; 2 bytes @ 0x3A
  1496     015A                     	ds	2
  1497     015C                     ___fldiv@grs:
  1498                           
  1499                           ; 4 bytes @ 0x3C
  1500     015C                     	ds	4
  1501     0160                     ___fldiv@bexp:
  1502                           
  1503                           ; 1 bytes @ 0x40
  1504     0160                     	ds	1
  1505     0161                     ___fldiv@aexp:
  1506                           
  1507                           ; 1 bytes @ 0x41
  1508     0161                     	ds	1
  1509     0162                     ?___fladd:
  1510     0162                     ___fladd@b:	
  1511                           ; 4 bytes @ 0x42
  1512                           
  1513                           
  1514                           ; 4 bytes @ 0x42
  1515     0162                     	ds	4
  1516     0166                     ___fladd@a:
  1517                           
  1518                           ; 4 bytes @ 0x46
  1519     0166                     	ds	4
  1520     016A                     ___fladd@signs:
  1521                           
  1522                           ; 1 bytes @ 0x4A
  1523     016A                     	ds	1
  1524     016B                     ___fladd@aexp:
  1525                           
  1526                           ; 1 bytes @ 0x4B
  1527     016B                     	ds	1
  1528     016C                     ___fladd@bexp:
  1529                           
  1530                           ; 1 bytes @ 0x4C
  1531     016C                     	ds	1
  1532     016D                     ___fladd@grs:
  1533                           
  1534                           ; 1 bytes @ 0x4D
  1535     016D                     	ds	1
  1536     016E                     ___fltol@sign1:
  1537                           
  1538                           ; 1 bytes @ 0x4E
  1539     016E                     	ds	1
  1540     016F                     ___fltol@exp1:
  1541                           
  1542                           ; 1 bytes @ 0x4F
  1543     016F                     	ds	1
  1544     0170                     ??_set_DC:
  1545     0170                     ??_cc_cv_mode:	
  1546                           ; 1 bytes @ 0x50
  1547                           
  1548     0170                     ??_scaling:	
  1549                           ; 1 bytes @ 0x50
  1550                           
  1551                           
  1552                           	psect	cstackBANK1
  1553     00A0                     __pcstackBANK1:	
  1554                           ; 1 bytes @ 0x50
  1555                           
  1556     00A0                     ?i1___fltol:
  1557     00A0                     i1___fltol@f1:	
  1558                           ; 4 bytes @ 0x0
  1559                           
  1560                           
  1561                           ; 4 bytes @ 0x0
  1562     00A0                     	ds	4
  1563     00A4                     ??i1___fltol:
  1564                           
  1565                           ; 1 bytes @ 0x4
  1566     00A4                     	ds	4
  1567     00A8                     i1___fltol@sign1:
  1568                           
  1569                           ; 1 bytes @ 0x8
  1570     00A8                     	ds	1
  1571     00A9                     i1___fltol@exp1:
  1572                           
  1573                           ; 1 bytes @ 0x9
  1574     00A9                     	ds	1
  1575     00AA                     i1set_DC@dc:
  1576                           
  1577                           ; 2 bytes @ 0xA
  1578     00AA                     	ds	2
  1579     00AC                     ??_converter_settings:
  1580                           
  1581                           ; 1 bytes @ 0xC
  1582     00AC                     	ds	1
  1583     00AD                     ??_command_interpreter:
  1584                           
  1585                           ; 1 bytes @ 0xD
  1586     00AD                     	ds	2
  1587     00AF                     command_interpreter@data:
  1588                           
  1589                           ; 20 bytes @ 0xF
  1590     00AF                     	ds	20
  1591     00C3                     command_interpreter@test:
  1592                           
  1593                           ; 1 bytes @ 0x23
  1594     00C3                     	ds	1
  1595     00C4                     command_interpreter@subcommand:
  1596                           
  1597                           ; 1 bytes @ 0x24
  1598     00C4                     	ds	1
  1599     00C5                     ??_ISR:
  1600                           
  1601                           ; 1 bytes @ 0x25
  1602     00C5                     	ds	2
  1603                           
  1604                           	psect	cstackCOMMON
  1605     0070                     __pcstackCOMMON:
  1606     0070                     ?___flge:
  1607     0070                     ?_Cell_OFF:	
  1608                           ; 1 bit 
  1609                           
  1610     0070                     ?_set_DC:	
  1611                           ; 1 bytes @ 0x0
  1612                           
  1613     0070                     ?_UART_read_until:	
  1614                           ; 1 bytes @ 0x0
  1615                           
  1616     0070                     ?_converter_settings:	
  1617                           ; 1 bytes @ 0x0
  1618                           
  1619     0070                     ?_Cell_ON:	
  1620                           ; 1 bytes @ 0x0
  1621                           
  1622     0070                     ??_Cell_ON:	
  1623                           ; 1 bytes @ 0x0
  1624                           
  1625     0070                     ?_UART_send_byte:	
  1626                           ; 1 bytes @ 0x0
  1627                           
  1628     0070                     ??_UART_send_byte:	
  1629                           ; 1 bytes @ 0x0
  1630                           
  1631     0070                     ?_initialize:	
  1632                           ; 1 bytes @ 0x0
  1633                           
  1634     0070                     ?_command_interpreter:	
  1635                           ; 1 bytes @ 0x0
  1636                           
  1637     0070                     ?_control_loop:	
  1638                           ; 1 bytes @ 0x0
  1639                           
  1640     0070                     ?_scaling:	
  1641                           ; 1 bytes @ 0x0
  1642                           
  1643     0070                     ?_timing:	
  1644                           ; 1 bytes @ 0x0
  1645                           
  1646     0070                     ??_timing:	
  1647                           ; 1 bytes @ 0x0
  1648                           
  1649     0070                     ?_calculate_avg:	
  1650                           ; 1 bytes @ 0x0
  1651                           
  1652     0070                     ??_calculate_avg:	
  1653                           ; 1 bytes @ 0x0
  1654                           
  1655     0070                     ?_interrupt_enable:	
  1656                           ; 1 bytes @ 0x0
  1657                           
  1658     0070                     ?_UART_send_char:	
  1659                           ; 1 bytes @ 0x0
  1660                           
  1661     0070                     ??_UART_send_char:	
  1662                           ; 1 bytes @ 0x0
  1663                           
  1664     0070                     ?_UART_get_byte:	
  1665                           ; 1 bytes @ 0x0
  1666                           
  1667     0070                     ??_UART_get_byte:	
  1668                           ; 1 bytes @ 0x0
  1669                           
  1670     0070                     ?_main:	
  1671                           ; 1 bytes @ 0x0
  1672                           
  1673     0070                     ?_ISR:	
  1674                           ; 1 bytes @ 0x0
  1675                           
  1676     0070                     ?i1_set_DC:	
  1677                           ; 1 bytes @ 0x0
  1678                           
  1679     0070                     ?i1_Cell_OFF:	
  1680                           ; 1 bytes @ 0x0
  1681                           
  1682     0070                     ??i1_Cell_OFF:	
  1683                           ; 1 bytes @ 0x0
  1684                           
  1685     0070                     ?_strcmp:	
  1686                           ; 1 bytes @ 0x0
  1687                           
  1688     0070                     ?_strlen:	
  1689                           ; 2 bytes @ 0x0
  1690                           
  1691     0070                     ?_abs:	
  1692                           ; 2 bytes @ 0x0
  1693                           
  1694     0070                     ?_read_ADC:	
  1695                           ; 2 bytes @ 0x0
  1696                           
  1697     0070                     ?i1__Umul8_16:	
  1698                           ; 2 bytes @ 0x0
  1699                           
  1700     0070                     ?i1___xxtofl:	
  1701                           ; 2 bytes @ 0x0
  1702                           
  1703     0070                     UART_send_char@bt:	
  1704                           ; 4 bytes @ 0x0
  1705                           
  1706     0070                     UART_read_until@terminator:	
  1707                           ; 1 bytes @ 0x0
  1708                           
  1709     0070                     UART_send_byte@byte:	
  1710                           ; 1 bytes @ 0x0
  1711                           
  1712     0070                     i1__Umul8_16@multiplicand:	
  1713                           ; 1 bytes @ 0x0
  1714                           
  1715     0070                     read_ADC@channel:	
  1716                           ; 1 bytes @ 0x0
  1717                           
  1718     0070                     abs@a:	
  1719                           ; 2 bytes @ 0x0
  1720                           
  1721     0070                     strcmp@r:	
  1722                           ; 2 bytes @ 0x0
  1723                           
  1724     0070                     strlen@s:	
  1725                           ; 2 bytes @ 0x0
  1726                           
  1727     0070                     ___flge@ff1:	
  1728                           ; 2 bytes @ 0x0
  1729                           
  1730     0070                     i1___xxtofl@val:	
  1731                           ; 4 bytes @ 0x0
  1732                           
  1733                           
  1734                           ; 4 bytes @ 0x0
  1735     0070                     	ds	1
  1736     0071                     ??_UART_read_until:
  1737     0071                     ?_UART_send_string:	
  1738                           ; 1 bytes @ 0x1
  1739                           
  1740     0071                     UART_send_string@st_pt:	
  1741                           ; 1 bytes @ 0x1
  1742                           
  1743                           
  1744                           ; 2 bytes @ 0x1
  1745     0071                     	ds	1
  1746     0072                     ??_strcmp:
  1747     0072                     ??_strlen:	
  1748                           ; 1 bytes @ 0x2
  1749                           
  1750     0072                     ??_abs:	
  1751                           ; 1 bytes @ 0x2
  1752                           
  1753     0072                     ??_read_ADC:	
  1754                           ; 1 bytes @ 0x2
  1755                           
  1756     0072                     ??i1__Umul8_16:	
  1757                           ; 1 bytes @ 0x2
  1758                           
  1759     0072                     UART_read_until@received_byte:	
  1760                           ; 1 bytes @ 0x2
  1761                           
  1762                           
  1763                           ; 1 bytes @ 0x2
  1764     0072                     	ds	1
  1765     0073                     ??_UART_send_string:
  1766     0073                     UART_read_until@data:	
  1767                           ; 1 bytes @ 0x3
  1768                           
  1769     0073                     strcmp@l:	
  1770                           ; 1 bytes @ 0x3
  1771                           
  1772     0073                     strlen@a:	
  1773                           ; 1 bytes @ 0x3
  1774                           
  1775                           
  1776                           ; 2 bytes @ 0x3
  1777     0073                     	ds	1
  1778     0074                     ??i1___xxtofl:
  1779     0074                     UART_read_until@index:	
  1780                           ; 1 bytes @ 0x4
  1781                           
  1782     0074                     i1__Umul8_16@product:	
  1783                           ; 2 bytes @ 0x4
  1784                           
  1785     0074                     ___flge@ff2:	
  1786                           ; 2 bytes @ 0x4
  1787                           
  1788                           
  1789                           ; 4 bytes @ 0x4
  1790     0074                     	ds	1
  1791     0075                     ?_UART_send_some_char:
  1792     0075                     UART_send_some_char@data:	
  1793                           ; 1 bytes @ 0x5
  1794                           
  1795                           
  1796                           ; 2 bytes @ 0x5
  1797     0075                     	ds	1
  1798     0076                     i1__Umul8_16@word_mpld:
  1799                           
  1800                           ; 2 bytes @ 0x6
  1801     0076                     	ds	1
  1802     0077                     ??_UART_send_some_char:
  1803     0077                     UART_send_some_char@length:	
  1804                           ; 1 bytes @ 0x7
  1805                           
  1806                           
  1807                           ; 1 bytes @ 0x7
  1808     0077                     	ds	1
  1809     0078                     ??___flge:
  1810     0078                     i1__Umul8_16@multiplier:	
  1811                           ; 1 bytes @ 0x8
  1812                           
  1813     0078                     i1___xxtofl@sign:	
  1814                           ; 1 bytes @ 0x8
  1815                           
  1816                           
  1817                           ; 1 bytes @ 0x8
  1818     0078                     	ds	1
  1819     0079                     i1___xxtofl@exp:
  1820     0079                     read_ADC@ad_res:	
  1821                           ; 1 bytes @ 0x9
  1822                           
  1823                           
  1824                           ; 2 bytes @ 0x9
  1825     0079                     	ds	1
  1826     007A                     i1___xxtofl@arg:
  1827                           
  1828                           ; 4 bytes @ 0xA
  1829     007A                     	ds	4
  1830     007E                     ??_pid:
  1831     007E                     ??_control_loop:	
  1832                           ; 1 bytes @ 0xE
  1833                           
  1834     007E                     ??___flsub:	
  1835                           ; 1 bytes @ 0xE
  1836                           
  1837     007E                     ??i1_set_DC:	
  1838                           ; 1 bytes @ 0xE
  1839                           
  1840                           
  1841                           	psect	cstackBANK0
  1842     0020                     __pcstackBANK0:	
  1843                           ; 1 bytes @ 0xE
  1844                           
  1845     0020                     ?i1___fladd:
  1846     0020                     i1___fladd@b:	
  1847                           ; 4 bytes @ 0x0
  1848                           
  1849                           
  1850                           ; 4 bytes @ 0x0
  1851     0020                     	ds	4
  1852     0024                     i1___fladd@a:
  1853                           
  1854                           ; 4 bytes @ 0x4
  1855     0024                     	ds	4
  1856     0028                     ??i1___fladd:
  1857                           
  1858                           ; 1 bytes @ 0x8
  1859     0028                     	ds	8
  1860     0030                     i1___fladd@signs:
  1861                           
  1862                           ; 1 bytes @ 0x10
  1863     0030                     	ds	1
  1864     0031                     i1___fladd@aexp:
  1865                           
  1866                           ; 1 bytes @ 0x11
  1867     0031                     	ds	1
  1868     0032                     i1___fladd@bexp:
  1869                           
  1870                           ; 1 bytes @ 0x12
  1871     0032                     	ds	1
  1872     0033                     i1___fladd@grs:
  1873                           
  1874                           ; 1 bytes @ 0x13
  1875     0033                     	ds	1
  1876     0034                     ?___flsub:
  1877     0034                     ___flsub@a:	
  1878                           ; 4 bytes @ 0x14
  1879                           
  1880                           
  1881                           ; 4 bytes @ 0x14
  1882     0034                     	ds	4
  1883     0038                     ___flsub@b:
  1884                           
  1885                           ; 4 bytes @ 0x18
  1886     0038                     	ds	4
  1887     003C                     ?i1___flmul:
  1888     003C                     i1___flmul@b:	
  1889                           ; 4 bytes @ 0x1C
  1890                           
  1891                           
  1892                           ; 4 bytes @ 0x1C
  1893     003C                     	ds	4
  1894     0040                     i1___flmul@a:
  1895                           
  1896                           ; 4 bytes @ 0x20
  1897     0040                     	ds	4
  1898     0044                     ??i1___flmul:
  1899                           
  1900                           ; 1 bytes @ 0x24
  1901     0044                     	ds	5
  1902     0049                     i1___flmul@sign:
  1903                           
  1904                           ; 1 bytes @ 0x29
  1905     0049                     	ds	1
  1906     004A                     i1___flmul@grs:
  1907                           
  1908                           ; 4 bytes @ 0x2A
  1909     004A                     	ds	4
  1910     004E                     i1___flmul@aexp:
  1911                           
  1912                           ; 1 bytes @ 0x2E
  1913     004E                     	ds	1
  1914     004F                     i1___flmul@bexp:
  1915                           
  1916                           ; 1 bytes @ 0x2F
  1917     004F                     	ds	1
  1918     0050                     i1___flmul@prod:
  1919                           
  1920                           ; 4 bytes @ 0x30
  1921     0050                     	ds	4
  1922     0054                     i1___flmul@temp:
  1923                           
  1924                           ; 2 bytes @ 0x34
  1925     0054                     	ds	2
  1926     0056                     ?_pid:
  1927     0056                     ?i1___fldiv:	
  1928                           ; 1 bytes @ 0x36
  1929                           
  1930     0056                     pid@feedback:	
  1931                           ; 4 bytes @ 0x36
  1932                           
  1933     0056                     i1___fldiv@a:	
  1934                           ; 4 bytes @ 0x36
  1935                           
  1936                           
  1937                           ; 4 bytes @ 0x36
  1938     0056                     	ds	4
  1939     005A                     pid@setpoint:
  1940     005A                     i1___fldiv@b:	
  1941                           ; 4 bytes @ 0x3A
  1942                           
  1943                           
  1944                           ; 4 bytes @ 0x3A
  1945     005A                     	ds	4
  1946     005E                     ??i1___fldiv:
  1947     005E                     _pid$1265:	
  1948                           ; 1 bytes @ 0x3E
  1949                           
  1950                           
  1951                           ; 4 bytes @ 0x3E
  1952     005E                     	ds	4
  1953     0062                     _pid$1378:
  1954                           
  1955                           ; 4 bytes @ 0x42
  1956     0062                     	ds	1
  1957     0063                     i1___fldiv@rem:
  1958                           
  1959                           ; 4 bytes @ 0x43
  1960     0063                     	ds	3
  1961     0066                     _pid$1379:
  1962                           
  1963                           ; 4 bytes @ 0x46
  1964     0066                     	ds	1
  1965     0067                     i1___fldiv@sign:
  1966                           
  1967                           ; 1 bytes @ 0x47
  1968     0067                     	ds	1
  1969     0068                     i1___fldiv@new_exp:
  1970                           
  1971                           ; 2 bytes @ 0x48
  1972     0068                     	ds	2
  1973     006A                     i1___fldiv@grs:
  1974                           
  1975                           ; 4 bytes @ 0x4A
  1976     006A                     	ds	4
  1977     006E                     i1___fldiv@bexp:
  1978                           
  1979                           ; 1 bytes @ 0x4E
  1980     006E                     	ds	1
  1981     006F                     i1___fldiv@aexp:
  1982                           
  1983                           ; 1 bytes @ 0x4F
  1984     006F                     	ds	1
  1985                           
  1986                           	psect	maintext
  1987     1011                     __pmaintext:	
  1988 ;;
  1989 ;;Main: autosize = 0, tempsize = 1, incstack = 0, save=0
  1990 ;;
  1991 ;; *************** function _main *****************
  1992 ;; Defined at:
  1993 ;;		line 24 in file "main.c"
  1994 ;; Parameters:    Size  Location     Type
  1995 ;;		None
  1996 ;; Auto vars:     Size  Location     Type
  1997 ;;		None
  1998 ;; Return value:  Size  Location     Type
  1999 ;;                  1    wreg      void 
  2000 ;; Registers used:
  2001 ;;		wreg, status,2, status,0, pclath, cstack
  2002 ;; Tracked objects:
  2003 ;;		On entry : B1F/0
  2004 ;;		On exit  : 0/0
  2005 ;;		Unchanged: 0/0
  2006 ;; Data sizes:     COMMON   BANK0   BANK1   BANK2   BANK3   BANK4   BANK5   BANK6   BANK7   BANK8   BANK9  BANK10  BANK1
      +1  BANK12
  2007 ;;      Params:         0       0       0       0       0       0       0       0       0       0       0       0       
      +0       0
  2008 ;;      Locals:         0       0       0       0       0       0       0       0       0       0       0       0       
      +0       0
  2009 ;;      Temps:          0       0       0       0       1       0       0       0       0       0       0       0       
      +0       0
  2010 ;;      Totals:         0       0       0       0       1       0       0       0       0       0       0       0       
      +0       0
  2011 ;;Total ram usage:        1 bytes
  2012 ;; Hardware stack levels required when called: 8
  2013 ;; This function calls:
  2014 ;;		_cc_cv_mode
  2015 ;;		_initialize
  2016 ;;		_interrupt_enable
  2017 ;;		_scaling
  2018 ;; This function is called by:
  2019 ;;		Startup code after reset
  2020 ;; This function uses a non-reentrant model
  2021 ;;
  2022                           
  2023     1011                     _main:	
  2024                           ;psect for function _main
  2025                           
  2026     1011                     l5341:	
  2027                           ;incstack = 0
  2028                           ; Regs used in _main: [wreg+status,2+status,0+pclath+cstack]
  2029                           
  2030                           
  2031                           ;main.c: 26:     initialize();
  2032     1011  3194  2409  3190   	fcall	_initialize
  2033     1014                     l5343:
  2034                           
  2035                           ;main.c: 27:     _delay((unsigned long)((10)*(32000000/4000.0)));
  2036     1014  3068               	movlw	104
  2037     1015  0023               	movlb	3	; select bank3
  2038     1016  00D9               	movwf	??_main^(0+384)
  2039     1017  30E4               	movlw	228
  2040     1018                     u6407:
  2041     1018  0B89               	decfsz	9,f
  2042     1019  2818               	goto	u6407
  2043     101A  0BD9               	decfsz	??_main^(0+384),f
  2044     101B  2818               	goto	u6407
  2045     101C  0000               	nop
  2046     101D                     l5345:
  2047                           
  2048                           ;main.c: 28:     interrupt_enable();
  2049     101D  319D  25C5  3190   	fcall	_interrupt_enable
  2050     1020                     l5347:
  2051                           
  2052                           ;main.c: 30:     {;main.c: 31:         if (SECF)
  2053     1020  0023               	movlb	3	; select bank3
  2054     1021  086E               	movf	_SECF^(0+384),w
  2055     1022  1903               	btfsc	3,2
  2056     1023  2825               	goto	u6381
  2057     1024  2826               	goto	u6380
  2058     1025                     u6381:
  2059     1025  2820               	goto	l5347
  2060     1026                     u6380:
  2061     1026                     l5349:
  2062                           
  2063                           ;main.c: 32:         {;main.c: 33:             scaling();
  2064     1026  318A  2235  3190   	fcall	_scaling
  2065     1029                     l5351:
  2066                           
  2067                           ;main.c: 35:             if (cmode == 1){
  2068     1029  0021               	movlb	1	; select bank1
  2069     102A  036C               	decf	_cmode^(0+128),w
  2070     102B  1D03               	btfss	3,2
  2071     102C  282E               	goto	u6391
  2072     102D  282F               	goto	u6390
  2073     102E                     u6391:
  2074     102E  2843               	goto	l5355
  2075     102F                     u6390:
  2076     102F                     l5353:
  2077                           
  2078                           ;main.c: 36:                 cc_cv_mode(vavg, const_vol, cmode);
  2079     102F  0023               	movlb	3	; select bank3
  2080     1030  083F               	movf	(_vavg+1)^(0+384),w
  2081     1031  00D2               	movwf	(cc_cv_mode@current_voltage+1)^(0+384)
  2082     1032  083E               	movf	_vavg^(0+384),w
  2083     1033  00D1               	movwf	cc_cv_mode@current_voltage^(0+384)
  2084     1034  0021               	movlb	1	; select bank1
  2085     1035  085C               	movf	(_const_vol+1)^(0+128),w
  2086     1036  0023               	movlb	3	; select bank3
  2087     1037  00D4               	movwf	(cc_cv_mode@reference_voltage+1)^(0+384)
  2088     1038  0021               	movlb	1	; select bank1
  2089     1039  085B               	movf	_const_vol^(0+128),w
  2090     103A  0023               	movlb	3	; select bank3
  2091     103B  00D3               	movwf	cc_cv_mode@reference_voltage^(0+384)
  2092     103C  0021               	movlb	1	; select bank1
  2093     103D  086C               	movf	_cmode^(0+128),w
  2094     103E  0023               	movlb	3	; select bank3
  2095     103F  00D5               	movwf	cc_cv_mode@CC_mode_status^(0+384)
  2096     1040  3187  276F  3190   	fcall	_cc_cv_mode
  2097     1043                     l5355:
  2098                           
  2099                           ;main.c: 39:             SECF = 0;
  2100     1043  0023               	movlb	3	; select bank3
  2101     1044  01EE               	clrf	_SECF^(0+384)
  2102     1045  2820               	goto	l5347
  2103     1046  3180  287A         	ljmp	start
  2104     1048                     __end_of_main:
  2105                           
  2106                           	psect	text1
  2107     0A35                     __ptext1:	
  2108 ;; *************** function _scaling *****************
  2109 ;; Defined at:
  2110 ;;		line 252 in file "charger_discharger.c"
  2111 ;; Parameters:    Size  Location     Type
  2112 ;;		None
  2113 ;; Auto vars:     Size  Location     Type
  2114 ;;		None
  2115 ;; Return value:  Size  Location     Type
  2116 ;;                  1    wreg      void 
  2117 ;; Registers used:
  2118 ;;		wreg, status,2, status,0, pclath, cstack
  2119 ;; Tracked objects:
  2120 ;;		On entry : 0/0
  2121 ;;		On exit  : 0/0
  2122 ;;		Unchanged: 0/0
  2123 ;; Data sizes:     COMMON   BANK0   BANK1   BANK2   BANK3   BANK4   BANK5   BANK6   BANK7   BANK8   BANK9  BANK10  BANK1
      +1  BANK12
  2124 ;;      Params:         0       0       0       0       0       0       0       0       0       0       0       0       
      +0       0
  2125 ;;      Locals:         0       0       0       0       8       0       0       0       0       0       0       0       
      +0       0
  2126 ;;      Temps:          0       0       0       0       0       0       0       0       0       0       0       0       
      +0       0
  2127 ;;      Totals:         0       0       0       0       8       0       0       0       0       0       0       0       
      +0       0
  2128 ;;Total ram usage:        8 bytes
  2129 ;; Hardware stack levels used: 1
  2130 ;; Hardware stack levels required when called: 7
  2131 ;; This function calls:
  2132 ;;		___fladd
  2133 ;;		___fldiv
  2134 ;;		___flmul
  2135 ;;		___fltol
  2136 ;;		___xxtofl
  2137 ;; This function is called by:
  2138 ;;		_main
  2139 ;; This function uses a non-reentrant model
  2140 ;;
  2141                           
  2142     0A35                     _scaling:	
  2143                           ;psect for function _scaling
  2144                           
  2145     0A35                     l5327:	
  2146                           ;incstack = 0
  2147                           ; Regs used in _scaling: [wreg+status,2+status,0+pclath+cstack]
  2148                           
  2149                           
  2150                           ;charger_discharger.c: 254:     log_data.current = (uint16_t) ( ( ( (float)iavg * 2.5 * 
      +                          5000.0 ) / 4096.0 ) + 0.5 );
  2151     0A35  0023               	movlb	3	; select bank3
  2152     0A36  083C               	movf	_iavg^(0+384),w
  2153     0A37  0022               	movlb	2	; select bank2
  2154     0A38  00A0               	movwf	___xxtofl@val^(0+256)
  2155     0A39  0023               	movlb	3	; select bank3
  2156     0A3A  083D               	movf	(_iavg+1)^(0+384),w
  2157     0A3B  0022               	movlb	2	; select bank2
  2158     0A3C  00A1               	movwf	(___xxtofl@val^(0+256)+1)
  2159     0A3D  01A2               	clrf	(___xxtofl@val^(0+256)+2)
  2160     0A3E  01A3               	clrf	(___xxtofl@val^(0+256)+3)
  2161     0A3F  3000               	movlw	0
  2162     0A40  3193  235E  318A   	fcall	___xxtofl
  2163     0A43  0022               	movlb	2	; select bank2
  2164     0A44  0823               	movf	(?___xxtofl+3)^(0+256),w
  2165     0A45  00B5               	movwf	(___flmul@a+3)^(0+256)
  2166     0A46  0822               	movf	(?___xxtofl+2)^(0+256),w
  2167     0A47  00B4               	movwf	(___flmul@a+2)^(0+256)
  2168     0A48  0821               	movf	(?___xxtofl+1)^(0+256),w
  2169     0A49  00B3               	movwf	(___flmul@a+1)^(0+256)
  2170     0A4A  0820               	movf	?___xxtofl^(0+256),w
  2171     0A4B  00B2               	movwf	___flmul@a^(0+256)
  2172     0A4C  3040               	movlw	64
  2173     0A4D  00B1               	movwf	(___flmul@b+3)^(0+256)
  2174     0A4E  3020               	movlw	32
  2175     0A4F  00B0               	movwf	(___flmul@b+2)^(0+256)
  2176     0A50  3000               	movlw	0
  2177     0A51  00AF               	movwf	(___flmul@b+1)^(0+256)
  2178     0A52  3000               	movlw	0
  2179     0A53  00AE               	movwf	___flmul@b^(0+256)
  2180     0A54  3182  22F9  318A   	fcall	___flmul
  2181     0A57  0022               	movlb	2	; select bank2
  2182     0A58  0831               	movf	(?___flmul+3)^(0+256),w
  2183     0A59  0023               	movlb	3	; select bank3
  2184     0A5A  00D8               	movwf	(_scaling$1268+3)^(0+384)
  2185     0A5B  0022               	movlb	2	; select bank2
  2186     0A5C  0830               	movf	(?___flmul+2)^(0+256),w
  2187     0A5D  0023               	movlb	3	; select bank3
  2188     0A5E  00D7               	movwf	(_scaling$1268+2)^(0+384)
  2189     0A5F  0022               	movlb	2	; select bank2
  2190     0A60  082F               	movf	(?___flmul+1)^(0+256),w
  2191     0A61  0023               	movlb	3	; select bank3
  2192     0A62  00D6               	movwf	(_scaling$1268+1)^(0+384)
  2193     0A63  0022               	movlb	2	; select bank2
  2194     0A64  082E               	movf	?___flmul^(0+256),w
  2195     0A65  0023               	movlb	3	; select bank3
  2196     0A66  00D5               	movwf	_scaling$1268^(0+384)
  2197                           
  2198                           ;charger_discharger.c: 254:     log_data.current = (uint16_t) ( ( ( (float)iavg * 2.5 * 
      +                          5000.0 ) / 4096.0 ) + 0.5 );
  2199     0A67  0858               	movf	(_scaling$1268+3)^(0+384),w
  2200     0A68  0022               	movlb	2	; select bank2
  2201     0A69  00B5               	movwf	(___flmul@a+3)^(0+256)
  2202     0A6A  0023               	movlb	3	; select bank3
  2203     0A6B  0857               	movf	(_scaling$1268+2)^(0+384),w
  2204     0A6C  0022               	movlb	2	; select bank2
  2205     0A6D  00B4               	movwf	(___flmul@a+2)^(0+256)
  2206     0A6E  0023               	movlb	3	; select bank3
  2207     0A6F  0856               	movf	(_scaling$1268+1)^(0+384),w
  2208     0A70  0022               	movlb	2	; select bank2
  2209     0A71  00B3               	movwf	(___flmul@a+1)^(0+256)
  2210     0A72  0023               	movlb	3	; select bank3
  2211     0A73  0855               	movf	_scaling$1268^(0+384),w
  2212     0A74  0022               	movlb	2	; select bank2
  2213     0A75  00B2               	movwf	___flmul@a^(0+256)
  2214     0A76  3045               	movlw	69
  2215     0A77  00B1               	movwf	(___flmul@b+3)^(0+256)
  2216     0A78  309C               	movlw	156
  2217     0A79  00B0               	movwf	(___flmul@b+2)^(0+256)
  2218     0A7A  3040               	movlw	64
  2219     0A7B  00AF               	movwf	(___flmul@b+1)^(0+256)
  2220     0A7C  3000               	movlw	0
  2221     0A7D  00AE               	movwf	___flmul@b^(0+256)
  2222     0A7E  3182  22F9  318A   	fcall	___flmul
  2223     0A81  0022               	movlb	2	; select bank2
  2224     0A82  0831               	movf	(?___flmul+3)^(0+256),w
  2225     0A83  00CF               	movwf	(___fldiv@b+3)^(0+256)
  2226     0A84  0830               	movf	(?___flmul+2)^(0+256),w
  2227     0A85  00CE               	movwf	(___fldiv@b+2)^(0+256)
  2228     0A86  082F               	movf	(?___flmul+1)^(0+256),w
  2229     0A87  00CD               	movwf	(___fldiv@b+1)^(0+256)
  2230     0A88  082E               	movf	?___flmul^(0+256),w
  2231     0A89  00CC               	movwf	___fldiv@b^(0+256)
  2232     0A8A  3045               	movlw	69
  2233     0A8B  00CB               	movwf	(___fldiv@a+3)^(0+256)
  2234     0A8C  3080               	movlw	128
  2235     0A8D  00CA               	movwf	(___fldiv@a+2)^(0+256)
  2236     0A8E  3000               	movlw	0
  2237     0A8F  00C9               	movwf	(___fldiv@a+1)^(0+256)
  2238     0A90  3000               	movlw	0
  2239     0A91  00C8               	movwf	___fldiv@a^(0+256)
  2240     0A92  3188  208B  318A   	fcall	___fldiv
  2241     0A95  0022               	movlb	2	; select bank2
  2242     0A96  084B               	movf	(?___fldiv+3)^(0+256),w
  2243     0A97  00E9               	movwf	(___fladd@a+3)^(0+256)
  2244     0A98  084A               	movf	(?___fldiv+2)^(0+256),w
  2245     0A99  00E8               	movwf	(___fladd@a+2)^(0+256)
  2246     0A9A  0849               	movf	(?___fldiv+1)^(0+256),w
  2247     0A9B  00E7               	movwf	(___fladd@a+1)^(0+256)
  2248     0A9C  0848               	movf	?___fldiv^(0+256),w
  2249     0A9D  00E6               	movwf	___fladd@a^(0+256)
  2250     0A9E  303F               	movlw	63
  2251     0A9F  00E5               	movwf	(___fladd@b+3)^(0+256)
  2252     0AA0  3000               	movlw	0
  2253     0AA1  00E4               	movwf	(___fladd@b+2)^(0+256)
  2254     0AA2  3000               	movlw	0
  2255     0AA3  00E3               	movwf	(___fladd@b+1)^(0+256)
  2256     0AA4  3000               	movlw	0
  2257     0AA5  00E2               	movwf	___fladd@b^(0+256)
  2258     0AA6  3180  20BC  318A   	fcall	___fladd
  2259     0AA9  0022               	movlb	2	; select bank2
  2260     0AAA  0865               	movf	(?___fladd+3)^(0+256),w
  2261     0AAB  0023               	movlb	3	; select bank3
  2262     0AAC  00CC               	movwf	(___fltol@f1+3)^(0+384)
  2263     0AAD  0022               	movlb	2	; select bank2
  2264     0AAE  0864               	movf	(?___fladd+2)^(0+256),w
  2265     0AAF  0023               	movlb	3	; select bank3
  2266     0AB0  00CB               	movwf	(___fltol@f1+2)^(0+384)
  2267     0AB1  0022               	movlb	2	; select bank2
  2268     0AB2  0863               	movf	(?___fladd+1)^(0+256),w
  2269     0AB3  0023               	movlb	3	; select bank3
  2270     0AB4  00CA               	movwf	(___fltol@f1+1)^(0+384)
  2271     0AB5  0022               	movlb	2	; select bank2
  2272     0AB6  0862               	movf	?___fladd^(0+256),w
  2273     0AB7  0023               	movlb	3	; select bank3
  2274     0AB8  00C9               	movwf	___fltol@f1^(0+384)
  2275     0AB9  3191  2114  318A   	fcall	___fltol
  2276     0ABC  0023               	movlb	3	; select bank3
  2277     0ABD  084A               	movf	(?___fltol+1)^(0+384),w
  2278     0ABE  0024               	movlb	4	; select bank4
  2279     0ABF  00A3               	movwf	((_log_data+1)^(0+512)+2)
  2280     0AC0  0023               	movlb	3	; select bank3
  2281     0AC1  0849               	movf	?___fltol^(0+384),w
  2282     0AC2  0024               	movlb	4	; select bank4
  2283     0AC3  00A2               	movwf	(_log_data^(0+512)+2)
  2284                           
  2285                           ;charger_discharger.c: 255:     log_data.voltage = (uint16_t) ( ( ( (float)vavg * 5000.0
      +                           ) / 4096.0 ) + 0.5 );
  2286     0AC4  0023               	movlb	3	; select bank3
  2287     0AC5  083E               	movf	_vavg^(0+384),w
  2288     0AC6  0022               	movlb	2	; select bank2
  2289     0AC7  00A0               	movwf	___xxtofl@val^(0+256)
  2290     0AC8  0023               	movlb	3	; select bank3
  2291     0AC9  083F               	movf	(_vavg+1)^(0+384),w
  2292     0ACA  0022               	movlb	2	; select bank2
  2293     0ACB  00A1               	movwf	(___xxtofl@val^(0+256)+1)
  2294     0ACC  01A2               	clrf	(___xxtofl@val^(0+256)+2)
  2295     0ACD  01A3               	clrf	(___xxtofl@val^(0+256)+3)
  2296     0ACE  3000               	movlw	0
  2297     0ACF  3193  235E  318A   	fcall	___xxtofl
  2298     0AD2  0022               	movlb	2	; select bank2
  2299     0AD3  0823               	movf	(?___xxtofl+3)^(0+256),w
  2300     0AD4  00B5               	movwf	(___flmul@a+3)^(0+256)
  2301     0AD5  0822               	movf	(?___xxtofl+2)^(0+256),w
  2302     0AD6  00B4               	movwf	(___flmul@a+2)^(0+256)
  2303     0AD7  0821               	movf	(?___xxtofl+1)^(0+256),w
  2304     0AD8  00B3               	movwf	(___flmul@a+1)^(0+256)
  2305     0AD9  0820               	movf	?___xxtofl^(0+256),w
  2306     0ADA  00B2               	movwf	___flmul@a^(0+256)
  2307     0ADB  3045               	movlw	69
  2308     0ADC  00B1               	movwf	(___flmul@b+3)^(0+256)
  2309     0ADD  309C               	movlw	156
  2310     0ADE  00B0               	movwf	(___flmul@b+2)^(0+256)
  2311     0ADF  3040               	movlw	64
  2312     0AE0  00AF               	movwf	(___flmul@b+1)^(0+256)
  2313     0AE1  3000               	movlw	0
  2314     0AE2  00AE               	movwf	___flmul@b^(0+256)
  2315     0AE3  3182  22F9  318A   	fcall	___flmul
  2316     0AE6  0022               	movlb	2	; select bank2
  2317     0AE7  0831               	movf	(?___flmul+3)^(0+256),w
  2318     0AE8  00CF               	movwf	(___fldiv@b+3)^(0+256)
  2319     0AE9  0830               	movf	(?___flmul+2)^(0+256),w
  2320     0AEA  00CE               	movwf	(___fldiv@b+2)^(0+256)
  2321     0AEB  082F               	movf	(?___flmul+1)^(0+256),w
  2322     0AEC  00CD               	movwf	(___fldiv@b+1)^(0+256)
  2323     0AED  082E               	movf	?___flmul^(0+256),w
  2324     0AEE  00CC               	movwf	___fldiv@b^(0+256)
  2325     0AEF  3045               	movlw	69
  2326     0AF0  00CB               	movwf	(___fldiv@a+3)^(0+256)
  2327     0AF1  3080               	movlw	128
  2328     0AF2  00CA               	movwf	(___fldiv@a+2)^(0+256)
  2329     0AF3  3000               	movlw	0
  2330     0AF4  00C9               	movwf	(___fldiv@a+1)^(0+256)
  2331     0AF5  3000               	movlw	0
  2332     0AF6  00C8               	movwf	___fldiv@a^(0+256)
  2333     0AF7  3188  208B  318A   	fcall	___fldiv
  2334     0AFA  0022               	movlb	2	; select bank2
  2335     0AFB  084B               	movf	(?___fldiv+3)^(0+256),w
  2336     0AFC  00E9               	movwf	(___fladd@a+3)^(0+256)
  2337     0AFD  084A               	movf	(?___fldiv+2)^(0+256),w
  2338     0AFE  00E8               	movwf	(___fladd@a+2)^(0+256)
  2339     0AFF  0849               	movf	(?___fldiv+1)^(0+256),w
  2340     0B00  00E7               	movwf	(___fladd@a+1)^(0+256)
  2341     0B01  0848               	movf	?___fldiv^(0+256),w
  2342     0B02  00E6               	movwf	___fladd@a^(0+256)
  2343     0B03  303F               	movlw	63
  2344     0B04  00E5               	movwf	(___fladd@b+3)^(0+256)
  2345     0B05  3000               	movlw	0
  2346     0B06  00E4               	movwf	(___fladd@b+2)^(0+256)
  2347     0B07  3000               	movlw	0
  2348     0B08  00E3               	movwf	(___fladd@b+1)^(0+256)
  2349     0B09  3000               	movlw	0
  2350     0B0A  00E2               	movwf	___fladd@b^(0+256)
  2351     0B0B  3180  20BC  318A   	fcall	___fladd
  2352     0B0E  0022               	movlb	2	; select bank2
  2353     0B0F  0865               	movf	(?___fladd+3)^(0+256),w
  2354     0B10  0023               	movlb	3	; select bank3
  2355     0B11  00CC               	movwf	(___fltol@f1+3)^(0+384)
  2356     0B12  0022               	movlb	2	; select bank2
  2357     0B13  0864               	movf	(?___fladd+2)^(0+256),w
  2358     0B14  0023               	movlb	3	; select bank3
  2359     0B15  00CB               	movwf	(___fltol@f1+2)^(0+384)
  2360     0B16  0022               	movlb	2	; select bank2
  2361     0B17  0863               	movf	(?___fladd+1)^(0+256),w
  2362     0B18  0023               	movlb	3	; select bank3
  2363     0B19  00CA               	movwf	(___fltol@f1+1)^(0+384)
  2364     0B1A  0022               	movlb	2	; select bank2
  2365     0B1B  0862               	movf	?___fladd^(0+256),w
  2366     0B1C  0023               	movlb	3	; select bank3
  2367     0B1D  00C9               	movwf	___fltol@f1^(0+384)
  2368     0B1E  3191  2114  318A   	fcall	___fltol
  2369     0B21  0023               	movlb	3	; select bank3
  2370     0B22  084A               	movf	(?___fltol+1)^(0+384),w
  2371     0B23  0024               	movlb	4	; select bank4
  2372     0B24  00A1               	movwf	(_log_data+1)^(0+512)
  2373     0B25  0023               	movlb	3	; select bank3
  2374     0B26  0849               	movf	?___fltol^(0+384),w
  2375     0B27  0024               	movlb	4	; select bank4
  2376     0B28  00A0               	movwf	_log_data^(0+512)
  2377                           
  2378                           ;charger_discharger.c: 256:     qavg += (float)( ( ( (float)iavg * 2.5 * 5000.0 ) / 4096
      +                          .0 ) + 0.5 ) / 3600.0;
  2379     0B29  0023               	movlb	3	; select bank3
  2380     0B2A  083C               	movf	_iavg^(0+384),w
  2381     0B2B  0022               	movlb	2	; select bank2
  2382     0B2C  00A0               	movwf	___xxtofl@val^(0+256)
  2383     0B2D  0023               	movlb	3	; select bank3
  2384     0B2E  083D               	movf	(_iavg+1)^(0+384),w
  2385     0B2F  0022               	movlb	2	; select bank2
  2386     0B30  00A1               	movwf	(___xxtofl@val^(0+256)+1)
  2387     0B31  01A2               	clrf	(___xxtofl@val^(0+256)+2)
  2388     0B32  01A3               	clrf	(___xxtofl@val^(0+256)+3)
  2389     0B33  3000               	movlw	0
  2390     0B34  3193  235E  318A   	fcall	___xxtofl
  2391     0B37  0022               	movlb	2	; select bank2
  2392     0B38  0823               	movf	(?___xxtofl+3)^(0+256),w
  2393     0B39  00B5               	movwf	(___flmul@a+3)^(0+256)
  2394     0B3A  0822               	movf	(?___xxtofl+2)^(0+256),w
  2395     0B3B  00B4               	movwf	(___flmul@a+2)^(0+256)
  2396     0B3C  0821               	movf	(?___xxtofl+1)^(0+256),w
  2397     0B3D  00B3               	movwf	(___flmul@a+1)^(0+256)
  2398     0B3E  0820               	movf	?___xxtofl^(0+256),w
  2399     0B3F  00B2               	movwf	___flmul@a^(0+256)
  2400     0B40  3040               	movlw	64
  2401     0B41  00B1               	movwf	(___flmul@b+3)^(0+256)
  2402     0B42  3020               	movlw	32
  2403     0B43  00B0               	movwf	(___flmul@b+2)^(0+256)
  2404     0B44  3000               	movlw	0
  2405     0B45  00AF               	movwf	(___flmul@b+1)^(0+256)
  2406     0B46  3000               	movlw	0
  2407     0B47  00AE               	movwf	___flmul@b^(0+256)
  2408     0B48  3182  22F9  318A   	fcall	___flmul
  2409     0B4B  0022               	movlb	2	; select bank2
  2410     0B4C  0831               	movf	(?___flmul+3)^(0+256),w
  2411     0B4D  0023               	movlb	3	; select bank3
  2412     0B4E  00D8               	movwf	(_scaling$1268+3)^(0+384)
  2413     0B4F  0022               	movlb	2	; select bank2
  2414     0B50  0830               	movf	(?___flmul+2)^(0+256),w
  2415     0B51  0023               	movlb	3	; select bank3
  2416     0B52  00D7               	movwf	(_scaling$1268+2)^(0+384)
  2417     0B53  0022               	movlb	2	; select bank2
  2418     0B54  082F               	movf	(?___flmul+1)^(0+256),w
  2419     0B55  0023               	movlb	3	; select bank3
  2420     0B56  00D6               	movwf	(_scaling$1268+1)^(0+384)
  2421     0B57  0022               	movlb	2	; select bank2
  2422     0B58  082E               	movf	?___flmul^(0+256),w
  2423     0B59  0023               	movlb	3	; select bank3
  2424     0B5A  00D5               	movwf	_scaling$1268^(0+384)
  2425                           
  2426                           ;charger_discharger.c: 256:     qavg += (float)( ( ( (float)iavg * 2.5 * 5000.0 ) / 4096
      +                          .0 ) + 0.5 ) / 3600.0;
  2427     0B5B  0858               	movf	(_scaling$1268+3)^(0+384),w
  2428     0B5C  0022               	movlb	2	; select bank2
  2429     0B5D  00B5               	movwf	(___flmul@a+3)^(0+256)
  2430     0B5E  0023               	movlb	3	; select bank3
  2431     0B5F  0857               	movf	(_scaling$1268+2)^(0+384),w
  2432     0B60  0022               	movlb	2	; select bank2
  2433     0B61  00B4               	movwf	(___flmul@a+2)^(0+256)
  2434     0B62  0023               	movlb	3	; select bank3
  2435     0B63  0856               	movf	(_scaling$1268+1)^(0+384),w
  2436     0B64  0022               	movlb	2	; select bank2
  2437     0B65  00B3               	movwf	(___flmul@a+1)^(0+256)
  2438     0B66  0023               	movlb	3	; select bank3
  2439     0B67  0855               	movf	_scaling$1268^(0+384),w
  2440     0B68  0022               	movlb	2	; select bank2
  2441     0B69  00B2               	movwf	___flmul@a^(0+256)
  2442     0B6A  3045               	movlw	69
  2443     0B6B  00B1               	movwf	(___flmul@b+3)^(0+256)
  2444     0B6C  309C               	movlw	156
  2445     0B6D  00B0               	movwf	(___flmul@b+2)^(0+256)
  2446     0B6E  3040               	movlw	64
  2447     0B6F  00AF               	movwf	(___flmul@b+1)^(0+256)
  2448     0B70  3000               	movlw	0
  2449     0B71  00AE               	movwf	___flmul@b^(0+256)
  2450     0B72  3182  22F9  318A   	fcall	___flmul
  2451     0B75  0022               	movlb	2	; select bank2
  2452     0B76  0831               	movf	(?___flmul+3)^(0+256),w
  2453     0B77  00CF               	movwf	(___fldiv@b+3)^(0+256)
  2454     0B78  0830               	movf	(?___flmul+2)^(0+256),w
  2455     0B79  00CE               	movwf	(___fldiv@b+2)^(0+256)
  2456     0B7A  082F               	movf	(?___flmul+1)^(0+256),w
  2457     0B7B  00CD               	movwf	(___fldiv@b+1)^(0+256)
  2458     0B7C  082E               	movf	?___flmul^(0+256),w
  2459     0B7D  00CC               	movwf	___fldiv@b^(0+256)
  2460     0B7E  3045               	movlw	69
  2461     0B7F  00CB               	movwf	(___fldiv@a+3)^(0+256)
  2462     0B80  3080               	movlw	128
  2463     0B81  00CA               	movwf	(___fldiv@a+2)^(0+256)
  2464     0B82  3000               	movlw	0
  2465     0B83  00C9               	movwf	(___fldiv@a+1)^(0+256)
  2466     0B84  3000               	movlw	0
  2467     0B85  00C8               	movwf	___fldiv@a^(0+256)
  2468     0B86  3188  208B  318A   	fcall	___fldiv
  2469     0B89  0022               	movlb	2	; select bank2
  2470     0B8A  084B               	movf	(?___fldiv+3)^(0+256),w
  2471     0B8B  00E9               	movwf	(___fladd@a+3)^(0+256)
  2472     0B8C  084A               	movf	(?___fldiv+2)^(0+256),w
  2473     0B8D  00E8               	movwf	(___fladd@a+2)^(0+256)
  2474     0B8E  0849               	movf	(?___fldiv+1)^(0+256),w
  2475     0B8F  00E7               	movwf	(___fladd@a+1)^(0+256)
  2476     0B90  0848               	movf	?___fldiv^(0+256),w
  2477     0B91  00E6               	movwf	___fladd@a^(0+256)
  2478     0B92  303F               	movlw	63
  2479     0B93  00E5               	movwf	(___fladd@b+3)^(0+256)
  2480     0B94  3000               	movlw	0
  2481     0B95  00E4               	movwf	(___fladd@b+2)^(0+256)
  2482     0B96  3000               	movlw	0
  2483     0B97  00E3               	movwf	(___fladd@b+1)^(0+256)
  2484     0B98  3000               	movlw	0
  2485     0B99  00E2               	movwf	___fladd@b^(0+256)
  2486     0B9A  3180  20BC  318A   	fcall	___fladd
  2487     0B9D  0022               	movlb	2	; select bank2
  2488     0B9E  0865               	movf	(?___fladd+3)^(0+256),w
  2489     0B9F  0023               	movlb	3	; select bank3
  2490     0BA0  00D4               	movwf	(_scaling$1269+3)^(0+384)
  2491     0BA1  0022               	movlb	2	; select bank2
  2492     0BA2  0864               	movf	(?___fladd+2)^(0+256),w
  2493     0BA3  0023               	movlb	3	; select bank3
  2494     0BA4  00D3               	movwf	(_scaling$1269+2)^(0+384)
  2495     0BA5  0022               	movlb	2	; select bank2
  2496     0BA6  0863               	movf	(?___fladd+1)^(0+256),w
  2497     0BA7  0023               	movlb	3	; select bank3
  2498     0BA8  00D2               	movwf	(_scaling$1269+1)^(0+384)
  2499     0BA9  0022               	movlb	2	; select bank2
  2500     0BAA  0862               	movf	?___fladd^(0+256),w
  2501     0BAB  0023               	movlb	3	; select bank3
  2502     0BAC  00D1               	movwf	_scaling$1269^(0+384)
  2503                           
  2504                           ;charger_discharger.c: 256:     qavg += (float)( ( ( (float)iavg * 2.5 * 5000.0 ) / 4096
      +                          .0 ) + 0.5 ) / 3600.0;
  2505     0BAD  0854               	movf	(_scaling$1269+3)^(0+384),w
  2506     0BAE  0022               	movlb	2	; select bank2
  2507     0BAF  00CF               	movwf	(___fldiv@b+3)^(0+256)
  2508     0BB0  0023               	movlb	3	; select bank3
  2509     0BB1  0853               	movf	(_scaling$1269+2)^(0+384),w
  2510     0BB2  0022               	movlb	2	; select bank2
  2511     0BB3  00CE               	movwf	(___fldiv@b+2)^(0+256)
  2512     0BB4  0023               	movlb	3	; select bank3
  2513     0BB5  0852               	movf	(_scaling$1269+1)^(0+384),w
  2514     0BB6  0022               	movlb	2	; select bank2
  2515     0BB7  00CD               	movwf	(___fldiv@b+1)^(0+256)
  2516     0BB8  0023               	movlb	3	; select bank3
  2517     0BB9  0851               	movf	_scaling$1269^(0+384),w
  2518     0BBA  0022               	movlb	2	; select bank2
  2519     0BBB  00CC               	movwf	___fldiv@b^(0+256)
  2520     0BBC  3045               	movlw	69
  2521     0BBD  00CB               	movwf	(___fldiv@a+3)^(0+256)
  2522     0BBE  3061               	movlw	97
  2523     0BBF  00CA               	movwf	(___fldiv@a+2)^(0+256)
  2524     0BC0  3000               	movlw	0
  2525     0BC1  00C9               	movwf	(___fldiv@a+1)^(0+256)
  2526     0BC2  3000               	movlw	0
  2527     0BC3  00C8               	movwf	___fldiv@a^(0+256)
  2528     0BC4  3188  208B  318A   	fcall	___fldiv
  2529     0BC7  0022               	movlb	2	; select bank2
  2530     0BC8  084B               	movf	(?___fldiv+3)^(0+256),w
  2531     0BC9  00E5               	movwf	(___fladd@b+3)^(0+256)
  2532     0BCA  084A               	movf	(?___fldiv+2)^(0+256),w
  2533     0BCB  00E4               	movwf	(___fladd@b+2)^(0+256)
  2534     0BCC  0849               	movf	(?___fldiv+1)^(0+256),w
  2535     0BCD  00E3               	movwf	(___fladd@b+1)^(0+256)
  2536     0BCE  0848               	movf	?___fldiv^(0+256),w
  2537     0BCF  00E2               	movwf	___fladd@b^(0+256)
  2538     0BD0  0023               	movlb	3	; select bank3
  2539     0BD1  0837               	movf	(_qavg+3)^(0+384),w
  2540     0BD2  0022               	movlb	2	; select bank2
  2541     0BD3  00E9               	movwf	(___fladd@a+3)^(0+256)
  2542     0BD4  0023               	movlb	3	; select bank3
  2543     0BD5  0836               	movf	(_qavg+2)^(0+384),w
  2544     0BD6  0022               	movlb	2	; select bank2
  2545     0BD7  00E8               	movwf	(___fladd@a+2)^(0+256)
  2546     0BD8  0023               	movlb	3	; select bank3
  2547     0BD9  0835               	movf	(_qavg+1)^(0+384),w
  2548     0BDA  0022               	movlb	2	; select bank2
  2549     0BDB  00E7               	movwf	(___fladd@a+1)^(0+256)
  2550     0BDC  0023               	movlb	3	; select bank3
  2551     0BDD  0834               	movf	_qavg^(0+384),w
  2552     0BDE  0022               	movlb	2	; select bank2
  2553     0BDF  00E6               	movwf	___fladd@a^(0+256)
  2554     0BE0  3180  20BC  318A   	fcall	___fladd
  2555     0BE3  0022               	movlb	2	; select bank2
  2556     0BE4  0865               	movf	(?___fladd+3)^(0+256),w
  2557     0BE5  0023               	movlb	3	; select bank3
  2558     0BE6  00B7               	movwf	(_qavg+3)^(0+384)
  2559     0BE7  0022               	movlb	2	; select bank2
  2560     0BE8  0864               	movf	(?___fladd+2)^(0+256),w
  2561     0BE9  0023               	movlb	3	; select bank3
  2562     0BEA  00B6               	movwf	(_qavg+2)^(0+384)
  2563     0BEB  0022               	movlb	2	; select bank2
  2564     0BEC  0863               	movf	(?___fladd+1)^(0+256),w
  2565     0BED  0023               	movlb	3	; select bank3
  2566     0BEE  00B5               	movwf	(_qavg+1)^(0+384)
  2567     0BEF  0022               	movlb	2	; select bank2
  2568     0BF0  0862               	movf	?___fladd^(0+256),w
  2569     0BF1  0023               	movlb	3	; select bank3
  2570     0BF2  00B4               	movwf	_qavg^(0+384)
  2571                           
  2572                           ;charger_discharger.c: 257:     log_data.capacity = (uint16_t) (qavg);
  2573     0BF3  0837               	movf	(_qavg+3)^(0+384),w
  2574     0BF4  00CC               	movwf	(___fltol@f1+3)^(0+384)
  2575     0BF5  0836               	movf	(_qavg+2)^(0+384),w
  2576     0BF6  00CB               	movwf	(___fltol@f1+2)^(0+384)
  2577     0BF7  0835               	movf	(_qavg+1)^(0+384),w
  2578     0BF8  00CA               	movwf	(___fltol@f1+1)^(0+384)
  2579     0BF9  0834               	movf	_qavg^(0+384),w
  2580     0BFA  00C9               	movwf	___fltol@f1^(0+384)
  2581     0BFB  3191  2114  318A   	fcall	___fltol
  2582     0BFE  0023               	movlb	3	; select bank3
  2583     0BFF  084A               	movf	(?___fltol+1)^(0+384),w
  2584     0C00  0024               	movlb	4	; select bank4
  2585     0C01  00A5               	movwf	((_log_data+1)^(0+512)+4)
  2586     0C02  0023               	movlb	3	; select bank3
  2587     0C03  0849               	movf	?___fltol^(0+384),w
  2588     0C04  0024               	movlb	4	; select bank4
  2589     0C05  00A4               	movwf	(_log_data^(0+512)+4)
  2590     0C06                     l343:
  2591     0C06  0008               	return
  2592     0C07                     __end_of_scaling:
  2593                           
  2594                           	psect	text2
  2595     1DC5                     __ptext2:	
  2596 ;; *************** function _interrupt_enable *****************
  2597 ;; Defined at:
  2598 ;;		line 332 in file "charger_discharger.c"
  2599 ;; Parameters:    Size  Location     Type
  2600 ;;		None
  2601 ;; Auto vars:     Size  Location     Type
  2602 ;;  clear_buffer    1    0        unsigned char 
  2603 ;; Return value:  Size  Location     Type
  2604 ;;                  1    wreg      void 
  2605 ;; Registers used:
  2606 ;;		wreg, status,2
  2607 ;; Tracked objects:
  2608 ;;		On entry : 0/0
  2609 ;;		On exit  : 0/0
  2610 ;;		Unchanged: 0/0
  2611 ;; Data sizes:     COMMON   BANK0   BANK1   BANK2   BANK3   BANK4   BANK5   BANK6   BANK7   BANK8   BANK9  BANK10  BANK1
      +1  BANK12
  2612 ;;      Params:         0       0       0       0       0       0       0       0       0       0       0       0       
      +0       0
  2613 ;;      Locals:         0       0       0       0       0       0       0       0       0       0       0       0       
      +0       0
  2614 ;;      Temps:          0       0       0       0       0       0       0       0       0       0       0       0       
      +0       0
  2615 ;;      Totals:         0       0       0       0       0       0       0       0       0       0       0       0       
      +0       0
  2616 ;;Total ram usage:        0 bytes
  2617 ;; Hardware stack levels used: 1
  2618 ;; Hardware stack levels required when called: 5
  2619 ;; This function calls:
  2620 ;;		Nothing
  2621 ;; This function is called by:
  2622 ;;		_main
  2623 ;; This function uses a non-reentrant model
  2624 ;;
  2625                           
  2626     1DC5                     _interrupt_enable:	
  2627                           ;psect for function _interrupt_enable
  2628                           
  2629     1DC5                     l5329:	
  2630                           ;incstack = 0
  2631                           ; Regs used in _interrupt_enable: [wreg+status,2]
  2632                           
  2633                           
  2634                           ;charger_discharger.c: 335:     while(RCIF){
  2635     1DC5  2DC8               	goto	l5333
  2636     1DC6                     l5331:
  2637     1DC6  0023               	movlb	3	; select bank3
  2638     1DC7  0819               	movf	25,w	;volatile
  2639     1DC8                     l5333:
  2640                           
  2641                           ;charger_discharger.c: 335:     while(RCIF){
  2642     1DC8  0020               	movlb	0	; select bank0
  2643     1DC9  1A91               	btfsc	17,5	;volatile
  2644     1DCA  2DCC               	goto	u6371
  2645     1DCB  2DCD               	goto	u6370
  2646     1DCC                     u6371:
  2647     1DCC  2DC6               	goto	l5331
  2648     1DCD                     u6370:
  2649     1DCD                     l370:
  2650                           
  2651                           ;charger_discharger.c: 338:     RCIE = 1;
  2652     1DCD  0021               	movlb	1	; select bank1
  2653     1DCE  1691               	bsf	17,5	;volatile
  2654                           
  2655                           ;charger_discharger.c: 339:     TXIE = 0;
  2656     1DCF  1211               	bcf	17,4	;volatile
  2657                           
  2658                           ;charger_discharger.c: 340:     TMR1IE = 1;
  2659     1DD0  1411               	bsf	17,0	;volatile
  2660                           
  2661                           ;charger_discharger.c: 341:     PEIE = 1;
  2662     1DD1  170B               	bsf	11,6	;volatile
  2663                           
  2664                           ;charger_discharger.c: 342:     GIE = 1;
  2665     1DD2  178B               	bsf	11,7	;volatile
  2666     1DD3                     l5335:
  2667                           
  2668                           ;charger_discharger.c: 343:     count = 1024;
  2669     1DD3  3000               	movlw	0
  2670     1DD4  00EA               	movwf	_count^(0+128)
  2671     1DD5  3004               	movlw	4
  2672     1DD6  00EB               	movwf	(_count^(0+128)+1)
  2673     1DD7                     l5337:
  2674                           
  2675                           ;charger_discharger.c: 344:     TMR1IF = 0;
  2676     1DD7  0020               	movlb	0	; select bank0
  2677     1DD8  1011               	bcf	17,0	;volatile
  2678     1DD9                     l5339:
  2679                           
  2680                           ;charger_discharger.c: 345:     TMR1ON = 1;
  2681     1DD9  1418               	bsf	24,0	;volatile
  2682     1DDA                     l371:
  2683     1DDA  0008               	return
  2684     1DDB                     __end_of_interrupt_enable:
  2685                           
  2686                           	psect	text3
  2687     1409                     __ptext3:	
  2688 ;; *************** function _initialize *****************
  2689 ;; Defined at:
  2690 ;;		line 18 in file "charger_discharger.c"
  2691 ;; Parameters:    Size  Location     Type
  2692 ;;		None
  2693 ;; Auto vars:     Size  Location     Type
  2694 ;;		None
  2695 ;; Return value:  Size  Location     Type
  2696 ;;                  1    wreg      void 
  2697 ;; Registers used:
  2698 ;;		wreg, status,2, status,0, pclath, cstack
  2699 ;; Tracked objects:
  2700 ;;		On entry : 0/0
  2701 ;;		On exit  : 0/0
  2702 ;;		Unchanged: 0/0
  2703 ;; Data sizes:     COMMON   BANK0   BANK1   BANK2   BANK3   BANK4   BANK5   BANK6   BANK7   BANK8   BANK9  BANK10  BANK1
      +1  BANK12
  2704 ;;      Params:         0       0       0       0       0       0       0       0       0       0       0       0       
      +0       0
  2705 ;;      Locals:         0       0       0       0       0       0       0       0       0       0       0       0       
      +0       0
  2706 ;;      Temps:          0       0       0       0       2       0       0       0       0       0       0       0       
      +0       0
  2707 ;;      Totals:         0       0       0       0       2       0       0       0       0       0       0       0       
      +0       0
  2708 ;;Total ram usage:        2 bytes
  2709 ;; Hardware stack levels used: 1
  2710 ;; Hardware stack levels required when called: 7
  2711 ;; This function calls:
  2712 ;;		_Cell_OFF
  2713 ;;		_set_DC
  2714 ;; This function is called by:
  2715 ;;		_main
  2716 ;; This function uses a non-reentrant model
  2717 ;;
  2718                           
  2719     1409                     _initialize:	
  2720                           ;psect for function _initialize
  2721                           
  2722     1409                     l5105:	
  2723                           ;incstack = 0
  2724                           ; Regs used in _initialize: [wreg+status,2+status,0+pclath+cstack]
  2725                           
  2726     1409  0064               	clrwdt	;# 
  2727                           
  2728                           ;charger_discharger.c: 22:     nWPUEN = 0;
  2729     140A  0021               	movlb	1	; select bank1
  2730     140B  1395               	bcf	21,7	;volatile
  2731                           
  2732                           ;charger_discharger.c: 23:     WPUE3 = 1;
  2733     140C  0024               	movlb	4	; select bank4
  2734     140D  1590               	bsf	16,3	;volatile
  2735     140E                     l5107:
  2736                           
  2737                           ;charger_discharger.c: 25:     OSCCONbits.IRCF = 0b1111;
  2738     140E  3078               	movlw	120
  2739     140F  0021               	movlb	1	; select bank1
  2740     1410  0499               	iorwf	25,f	;volatile
  2741                           
  2742                           ;charger_discharger.c: 26:     OSCCONbits.SCS = 0b00;
  2743     1411  30FC               	movlw	-4
  2744     1412  0599               	andwf	25,f	;volatile
  2745     1413                     l5109:
  2746                           
  2747                           ;charger_discharger.c: 27:     OSCCONbits.SPLLEN = 1;
  2748     1413  1799               	bsf	25,7	;volatile
  2749     1414                     l5111:
  2750                           
  2751                           ;charger_discharger.c: 31:     TRISC3 = 0;
  2752     1414  118E               	bcf	14,3	;volatile
  2753     1415                     l5113:
  2754                           
  2755                           ;charger_discharger.c: 32:     WPUC3 = 0;
  2756     1415  0024               	movlb	4	; select bank4
  2757     1416  118E               	bcf	14,3	;volatile
  2758     1417                     l5115:
  2759                           
  2760                           ;charger_discharger.c: 33:     TRISC4 = 0;
  2761     1417  0021               	movlb	1	; select bank1
  2762     1418  120E               	bcf	14,4	;volatile
  2763     1419                     l5117:
  2764                           
  2765                           ;charger_discharger.c: 34:     WPUC4 = 0;
  2766     1419  0024               	movlb	4	; select bank4
  2767     141A  120E               	bcf	14,4	;volatile
  2768     141B                     l5119:
  2769                           
  2770                           ;charger_discharger.c: 35:     TRISC5 = 0;
  2771     141B  0021               	movlb	1	; select bank1
  2772     141C  128E               	bcf	14,5	;volatile
  2773     141D                     l5121:
  2774                           
  2775                           ;charger_discharger.c: 36:     WPUC5 = 0;
  2776     141D  0024               	movlb	4	; select bank4
  2777     141E  128E               	bcf	14,5	;volatile
  2778     141F                     l5123:
  2779                           
  2780                           ;charger_discharger.c: 38:     TRISB2 = 0;
  2781     141F  0021               	movlb	1	; select bank1
  2782     1420  110D               	bcf	13,2	;volatile
  2783     1421                     l5125:
  2784                           
  2785                           ;charger_discharger.c: 39:     ANSB2 = 0;
  2786     1421  0023               	movlb	3	; select bank3
  2787     1422  110D               	bcf	13,2	;volatile
  2788     1423                     l5127:
  2789                           
  2790                           ;charger_discharger.c: 40:     WPUB2 = 0;
  2791     1423  0024               	movlb	4	; select bank4
  2792     1424  110D               	bcf	13,2	;volatile
  2793     1425                     l5129:
  2794                           
  2795                           ;charger_discharger.c: 41:     TRISB3 = 0;
  2796     1425  0021               	movlb	1	; select bank1
  2797     1426  118D               	bcf	13,3	;volatile
  2798     1427                     l5131:
  2799                           
  2800                           ;charger_discharger.c: 42:     ANSB3 = 0;
  2801     1427  0023               	movlb	3	; select bank3
  2802     1428  118D               	bcf	13,3	;volatile
  2803     1429                     l5133:
  2804                           
  2805                           ;charger_discharger.c: 43:     WPUB3 = 0;
  2806     1429  0024               	movlb	4	; select bank4
  2807     142A  118D               	bcf	13,3	;volatile
  2808     142B                     l5135:
  2809                           
  2810                           ;charger_discharger.c: 44:     TRISB4 = 0;
  2811     142B  0021               	movlb	1	; select bank1
  2812     142C  120D               	bcf	13,4	;volatile
  2813     142D                     l5137:
  2814                           
  2815                           ;charger_discharger.c: 45:     ANSB4 = 0;
  2816     142D  0023               	movlb	3	; select bank3
  2817     142E  120D               	bcf	13,4	;volatile
  2818     142F                     l5139:
  2819                           
  2820                           ;charger_discharger.c: 46:     WPUB4 = 0;
  2821     142F  0024               	movlb	4	; select bank4
  2822     1430  120D               	bcf	13,4	;volatile
  2823     1431                     l5141:
  2824                           
  2825                           ;charger_discharger.c: 47:     TRISB5 = 0;
  2826     1431  0021               	movlb	1	; select bank1
  2827     1432  128D               	bcf	13,5	;volatile
  2828     1433                     l5143:
  2829                           
  2830                           ;charger_discharger.c: 48:     ANSB5 = 0;
  2831     1433  0023               	movlb	3	; select bank3
  2832     1434  128D               	bcf	13,5	;volatile
  2833     1435                     l5145:
  2834                           
  2835                           ;charger_discharger.c: 49:     WPUB5 = 0;
  2836     1435  0024               	movlb	4	; select bank4
  2837     1436  128D               	bcf	13,5	;volatile
  2838     1437                     l5147:
  2839                           
  2840                           ;charger_discharger.c: 50:     Cell_OFF();
  2841     1437  319F  270C  3194   	fcall	_Cell_OFF
  2842     143A                     l5149:
  2843                           
  2844                           ;charger_discharger.c: 52:     nT1SYNC = 0;
  2845     143A  0020               	movlb	0	; select bank0
  2846     143B  1118               	bcf	24,2	;volatile
  2847     143C                     l5151:
  2848                           
  2849                           ;charger_discharger.c: 53:     T1OSCEN = 0;
  2850     143C  1198               	bcf	24,3	;volatile
  2851     143D                     l5153:
  2852                           
  2853                           ;charger_discharger.c: 54:     TMR1ON = 0;
  2854     143D  1018               	bcf	24,0	;volatile
  2855     143E                     l5155:
  2856                           
  2857                           ;charger_discharger.c: 55:     TMR1GE = 0;
  2858     143E  1399               	bcf	25,7	;volatile
  2859     143F                     l5157:
  2860                           
  2861                           ;charger_discharger.c: 56:     TMR1CS0 = 0;
  2862     143F  1318               	bcf	24,6	;volatile
  2863     1440                     l5159:
  2864                           
  2865                           ;charger_discharger.c: 57:     TMR1CS1 = 0;
  2866     1440  1398               	bcf	24,7	;volatile
  2867     1441                     l5161:
  2868                           
  2869                           ;charger_discharger.c: 58:     T1CKPS0 = 0;
  2870     1441  1218               	bcf	24,4	;volatile
  2871     1442                     l5163:
  2872                           
  2873                           ;charger_discharger.c: 59:     T1CKPS1 = 0;
  2874     1442  1298               	bcf	24,5	;volatile
  2875     1443                     l5165:
  2876                           
  2877                           ;charger_discharger.c: 60:     TMR1H = 0xE1;
  2878     1443  30E1               	movlw	225
  2879     1444  0097               	movwf	23	;volatile
  2880     1445                     l5167:
  2881                           
  2882                           ;charger_discharger.c: 61:     TMR1L = 0x83;
  2883     1445  3083               	movlw	131
  2884     1446  0096               	movwf	22	;volatile
  2885     1447                     l5169:
  2886                           
  2887                           ;charger_discharger.c: 63:     PSMC1CON = 0x00;
  2888     1447  0030               	movlb	16	; select bank16
  2889     1448  0191               	clrf	17	;volatile
  2890     1449                     l5171:
  2891                           
  2892                           ;charger_discharger.c: 64:     PSMC1MDL = 0x00;
  2893     1449  0192               	clrf	18	;volatile
  2894     144A                     l5173:
  2895                           
  2896                           ;charger_discharger.c: 65:     PSMC1CLK = 0x01;
  2897     144A  3001               	movlw	1
  2898     144B  0094               	movwf	20	;volatile
  2899     144C                     l5175:
  2900                           
  2901                           ;charger_discharger.c: 66:     PSMC1PRH = 0x01;
  2902     144C  3001               	movlw	1
  2903     144D  00A6               	movwf	38	;volatile
  2904     144E                     l5177:
  2905                           
  2906                           ;charger_discharger.c: 67:     PSMC1PRL = 0xFF;
  2907     144E  30FF               	movlw	255
  2908     144F  00A5               	movwf	37	;volatile
  2909     1450                     l5179:
  2910                           
  2911                           ;charger_discharger.c: 70:     PSMC1DCH = 0x00;
  2912     1450  01A4               	clrf	36	;volatile
  2913     1451                     l5181:
  2914                           
  2915                           ;charger_discharger.c: 71:     PSMC1DCL = 0x32;
  2916     1451  3032               	movlw	50
  2917     1452  00A3               	movwf	35	;volatile
  2918     1453                     l5183:
  2919                           
  2920                           ;charger_discharger.c: 72:     PSMC1PHH = 0x00;
  2921     1453  01A2               	clrf	34	;volatile
  2922     1454                     l5185:
  2923                           
  2924                           ;charger_discharger.c: 73:     PSMC1PHL = 0x00;
  2925     1454  01A1               	clrf	33	;volatile
  2926     1455                     l5187:
  2927                           
  2928                           ;charger_discharger.c: 74:     P1STRC = 1;
  2929     1455  152E               	bsf	46,2	;volatile
  2930     1456                     l5189:
  2931                           
  2932                           ;charger_discharger.c: 75:     P1POLC = 0;
  2933     1456  1116               	bcf	22,2	;volatile
  2934     1457                     l5191:
  2935                           
  2936                           ;charger_discharger.c: 76:     P1OEC = 1;
  2937     1457  1515               	bsf	21,2	;volatile
  2938     1458                     l5193:
  2939                           
  2940                           ;charger_discharger.c: 77:     P1PRST = 1;
  2941     1458  141C               	bsf	28,0	;volatile
  2942     1459                     l5195:
  2943                           
  2944                           ;charger_discharger.c: 78:     P1PHST = 1;
  2945     1459  141A               	bsf	26,0	;volatile
  2946     145A                     l5197:
  2947                           
  2948                           ;charger_discharger.c: 79:     P1DCST = 1;
  2949     145A  141B               	bsf	27,0	;volatile
  2950     145B                     l5199:
  2951                           
  2952                           ;charger_discharger.c: 80:     PSMC1CON = 0x80;
  2953     145B  3080               	movlw	128
  2954     145C  0091               	movwf	17	;volatile
  2955     145D                     l5201:
  2956                           
  2957                           ;charger_discharger.c: 84:     TRISC2 = 0;
  2958     145D  0021               	movlb	1	; select bank1
  2959     145E  110E               	bcf	14,2	;volatile
  2960     145F                     l5203:
  2961                           
  2962                           ;charger_discharger.c: 85:     WPUC2 = 0;
  2963     145F  0024               	movlb	4	; select bank4
  2964     1460  110E               	bcf	14,2	;volatile
  2965     1461                     l5205:
  2966                           
  2967                           ;charger_discharger.c: 87:     TRISA3 = 1;
  2968     1461  0021               	movlb	1	; select bank1
  2969     1462  158C               	bsf	12,3	;volatile
  2970     1463                     l5207:
  2971                           
  2972                           ;charger_discharger.c: 88:     ANSA3 = 1;
  2973     1463  0023               	movlb	3	; select bank3
  2974     1464  158C               	bsf	12,3	;volatile
  2975     1465                     l5209:
  2976                           
  2977                           ;charger_discharger.c: 89:     WPUA3 = 0;
  2978     1465  0024               	movlb	4	; select bank4
  2979     1466  118C               	bcf	12,3	;volatile
  2980     1467                     l5211:
  2981                           
  2982                           ;charger_discharger.c: 90:     TRISB1 = 1;
  2983     1467  0021               	movlb	1	; select bank1
  2984     1468  148D               	bsf	13,1	;volatile
  2985     1469                     l5213:
  2986                           
  2987                           ;charger_discharger.c: 91:     ANSB1 = 1;
  2988     1469  0023               	movlb	3	; select bank3
  2989     146A  148D               	bsf	13,1	;volatile
  2990     146B                     l5215:
  2991                           
  2992                           ;charger_discharger.c: 92:     WPUB1 = 0;
  2993     146B  0024               	movlb	4	; select bank4
  2994     146C  108D               	bcf	13,1	;volatile
  2995     146D                     l5217:
  2996                           
  2997                           ;charger_discharger.c: 93:     TRISB0 = 1;
  2998     146D  0021               	movlb	1	; select bank1
  2999     146E  140D               	bsf	13,0	;volatile
  3000     146F                     l5219:
  3001                           
  3002                           ;charger_discharger.c: 94:     ANSB0 = 1;
  3003     146F  0023               	movlb	3	; select bank3
  3004     1470  140D               	bsf	13,0	;volatile
  3005     1471                     l5221:
  3006                           
  3007                           ;charger_discharger.c: 95:     WPUB0 = 0;
  3008     1471  0024               	movlb	4	; select bank4
  3009     1472  100D               	bcf	13,0	;volatile
  3010     1473                     l5223:
  3011                           
  3012                           ;charger_discharger.c: 96:     TRISA5 = 1;
  3013     1473  0021               	movlb	1	; select bank1
  3014     1474  168C               	bsf	12,5	;volatile
  3015     1475                     l5225:
  3016                           
  3017                           ;charger_discharger.c: 97:     ANSA5 = 1;
  3018     1475  0023               	movlb	3	; select bank3
  3019     1476  168C               	bsf	12,5	;volatile
  3020     1477                     l5227:
  3021                           
  3022                           ;charger_discharger.c: 98:     WPUA5 = 0;
  3023     1477  0024               	movlb	4	; select bank4
  3024     1478  128C               	bcf	12,5	;volatile
  3025     1479                     l5229:
  3026                           
  3027                           ;charger_discharger.c: 99:     ADCON0bits.ADRMD = 0;
  3028     1479  0021               	movlb	1	; select bank1
  3029     147A  139D               	bcf	29,7	;volatile
  3030     147B                     l5231:
  3031                           
  3032                           ;charger_discharger.c: 100:     ADCON1bits.ADCS = 0b010;
  3033     147B  081E               	movf	30,w	;volatile
  3034     147C  398F               	andlw	-113
  3035     147D  3820               	iorlw	32
  3036     147E  009E               	movwf	30	;volatile
  3037     147F                     l5233:
  3038                           
  3039                           ;charger_discharger.c: 101:     ADCON1bits.ADNREF = 0;
  3040     147F  111E               	bcf	30,2	;volatile
  3041     1480                     l5235:
  3042                           
  3043                           ;charger_discharger.c: 102:     ADCON1bits.ADPREF = 0b01;
  3044     1480  081E               	movf	30,w	;volatile
  3045     1481  39FC               	andlw	-4
  3046     1482  3801               	iorlw	1
  3047     1483  009E               	movwf	30	;volatile
  3048     1484                     l5237:
  3049                           
  3050                           ;charger_discharger.c: 103:     ADCON1bits.ADFM = 1;
  3051     1484  179E               	bsf	30,7	;volatile
  3052     1485                     l5239:
  3053                           
  3054                           ;charger_discharger.c: 104:     ADCON2bits.CHSN = 0b1111;
  3055     1485  300F               	movlw	15
  3056     1486  049F               	iorwf	31,f	;volatile
  3057     1487                     l5241:
  3058                           
  3059                           ;charger_discharger.c: 105:     ADCON0bits.ADON = 1;
  3060     1487  141D               	bsf	29,0	;volatile
  3061     1488                     l5243:
  3062                           
  3063                           ;charger_discharger.c: 107:     TXSEL = 0;
  3064     1488  0022               	movlb	2	; select bank2
  3065     1489  111D               	bcf	29,2	;volatile
  3066     148A                     l5245:
  3067                           
  3068                           ;charger_discharger.c: 108:     RXSEL = 0;
  3069     148A  109D               	bcf	29,1	;volatile
  3070     148B                     l5247:
  3071                           
  3072                           ;charger_discharger.c: 109:     SP1BRGH = 0x00;
  3073     148B  0023               	movlb	3	; select bank3
  3074     148C  019C               	clrf	28	;volatile
  3075     148D                     l5249:
  3076                           
  3077                           ;charger_discharger.c: 110:     SP1BRGL = 0x8A;
  3078     148D  308A               	movlw	138
  3079     148E  009B               	movwf	27	;volatile
  3080     148F                     l5251:
  3081                           
  3082                           ;charger_discharger.c: 111:     BRGH = 1;
  3083     148F  151E               	bsf	30,2	;volatile
  3084     1490                     l5253:
  3085                           
  3086                           ;charger_discharger.c: 112:     BRG16 = 1;
  3087     1490  159F               	bsf	31,3	;volatile
  3088     1491                     l5255:
  3089                           
  3090                           ;charger_discharger.c: 113:     SYNC = 0;
  3091     1491  121E               	bcf	30,4	;volatile
  3092     1492                     l5257:
  3093                           
  3094                           ;charger_discharger.c: 114:     SPEN = 1;
  3095     1492  179D               	bsf	29,7	;volatile
  3096     1493                     l5259:
  3097                           
  3098                           ;charger_discharger.c: 115:     TXEN = 1;
  3099     1493  169E               	bsf	30,5	;volatile
  3100     1494                     l5261:
  3101                           
  3102                           ;charger_discharger.c: 116:     CREN = 1;
  3103     1494  161D               	bsf	29,4	;volatile
  3104     1495                     l5263:
  3105                           
  3106                           ;charger_discharger.c: 117:     TX9 = 0;
  3107     1495  131E               	bcf	30,6	;volatile
  3108     1496                     l5265:
  3109                           
  3110                           ;charger_discharger.c: 118:     RX9 = 0;
  3111     1496  131D               	bcf	29,6	;volatile
  3112     1497                     l5267:
  3113                           
  3114                           ;charger_discharger.c: 119:     RCIE = 0;
  3115     1497  0021               	movlb	1	; select bank1
  3116     1498  1291               	bcf	17,5	;volatile
  3117     1499                     l5269:
  3118                           
  3119                           ;charger_discharger.c: 120:     TXIE = 0;
  3120     1499  1211               	bcf	17,4	;volatile
  3121     149A                     l5271:
  3122                           
  3123                           ;charger_discharger.c: 122:     { RC3 = 0; RC4 = 0; _delay((unsigned long)((100)*(320000
      +                          00/4000.0))); RC3 = 1; _delay((unsigned long)((100)*(32000000/4000.0))); RC3 = 0; _delay
      +                          ((unsigned long)((100)*(32000000/4000.0))); RC5 = 1; _delay((unsigned long)((100)*(32000
      +                          000/4000.0))); kp = CC_disc_kp; ki = CC_disc_ki; kd = (float) (CC_char_disc_kd); pidi = 
      +                          0.0;};
  3124     149A  0020               	movlb	0	; select bank0
  3125     149B  118E               	bcf	14,3	;volatile
  3126     149C                     l5273:
  3127     149C  120E               	bcf	14,4	;volatile
  3128     149D                     l5275:
  3129     149D  3005               	movlw	5
  3130     149E  0023               	movlb	3	; select bank3
  3131     149F  00D4               	movwf	(??_initialize^(0+384)+1)
  3132     14A0  300F               	movlw	15
  3133     14A1  00D3               	movwf	??_initialize^(0+384)
  3134     14A2  30F1               	movlw	241
  3135     14A3                     u6417:
  3136     14A3  0B89               	decfsz	9,f
  3137     14A4  2CA3               	goto	u6417
  3138     14A5  0BD3               	decfsz	??_initialize^(0+384),f
  3139     14A6  2CA3               	goto	u6417
  3140     14A7  0BD4               	decfsz	(??_initialize^(0+384)+1),f
  3141     14A8  2CA3               	goto	u6417
  3142     14A9                     l5277:
  3143     14A9  0020               	movlb	0	; select bank0
  3144     14AA  158E               	bsf	14,3	;volatile
  3145     14AB                     l5279:
  3146     14AB  3005               	movlw	5
  3147     14AC  0023               	movlb	3	; select bank3
  3148     14AD  00D4               	movwf	(??_initialize^(0+384)+1)
  3149     14AE  300F               	movlw	15
  3150     14AF  00D3               	movwf	??_initialize^(0+384)
  3151     14B0  30F1               	movlw	241
  3152     14B1                     u6427:
  3153     14B1  0B89               	decfsz	9,f
  3154     14B2  2CB1               	goto	u6427
  3155     14B3  0BD3               	decfsz	??_initialize^(0+384),f
  3156     14B4  2CB1               	goto	u6427
  3157     14B5  0BD4               	decfsz	(??_initialize^(0+384)+1),f
  3158     14B6  2CB1               	goto	u6427
  3159     14B7                     l5281:
  3160     14B7  0020               	movlb	0	; select bank0
  3161     14B8  118E               	bcf	14,3	;volatile
  3162     14B9                     l5283:
  3163     14B9  3005               	movlw	5
  3164     14BA  0023               	movlb	3	; select bank3
  3165     14BB  00D4               	movwf	(??_initialize^(0+384)+1)
  3166     14BC  300F               	movlw	15
  3167     14BD  00D3               	movwf	??_initialize^(0+384)
  3168     14BE  30F1               	movlw	241
  3169     14BF                     u6437:
  3170     14BF  0B89               	decfsz	9,f
  3171     14C0  2CBF               	goto	u6437
  3172     14C1  0BD3               	decfsz	??_initialize^(0+384),f
  3173     14C2  2CBF               	goto	u6437
  3174     14C3  0BD4               	decfsz	(??_initialize^(0+384)+1),f
  3175     14C4  2CBF               	goto	u6437
  3176     14C5                     l5285:
  3177     14C5  0020               	movlb	0	; select bank0
  3178     14C6  168E               	bsf	14,5	;volatile
  3179     14C7                     l5287:
  3180     14C7  3005               	movlw	5
  3181     14C8  0023               	movlb	3	; select bank3
  3182     14C9  00D4               	movwf	(??_initialize^(0+384)+1)
  3183     14CA  300F               	movlw	15
  3184     14CB  00D3               	movwf	??_initialize^(0+384)
  3185     14CC  30F1               	movlw	241
  3186     14CD                     u6447:
  3187     14CD  0B89               	decfsz	9,f
  3188     14CE  2CCD               	goto	u6447
  3189     14CF  0BD3               	decfsz	??_initialize^(0+384),f
  3190     14D0  2CCD               	goto	u6447
  3191     14D1  0BD4               	decfsz	(??_initialize^(0+384)+1),f
  3192     14D2  2CCD               	goto	u6447
  3193     14D3                     l5289:
  3194     14D3  303B               	movlw	59
  3195     14D4  0023               	movlb	3	; select bank3
  3196     14D5  00B3               	movwf	(_kp+3)^(0+384)
  3197     14D6  30C4               	movlw	196
  3198     14D7  00B2               	movwf	(_kp+2)^(0+384)
  3199     14D8  309B               	movlw	155
  3200     14D9  00B1               	movwf	(_kp+1)^(0+384)
  3201     14DA  30A6               	movlw	166
  3202     14DB  00B0               	movwf	_kp^(0+384)
  3203     14DC                     l5291:
  3204     14DC  303A               	movlw	58
  3205     14DD  00AF               	movwf	(_ki+3)^(0+384)
  3206     14DE  3083               	movlw	131
  3207     14DF  00AE               	movwf	(_ki+2)^(0+384)
  3208     14E0  3012               	movlw	18
  3209     14E1  00AD               	movwf	(_ki+1)^(0+384)
  3210     14E2  306F               	movlw	111
  3211     14E3  00AC               	movwf	_ki^(0+384)
  3212     14E4                     l5293:
  3213     14E4  3000               	movlw	0
  3214     14E5  00AB               	movwf	(_kd+3)^(0+384)
  3215     14E6  3000               	movlw	0
  3216     14E7  00AA               	movwf	(_kd+2)^(0+384)
  3217     14E8  3000               	movlw	0
  3218     14E9  00A9               	movwf	(_kd+1)^(0+384)
  3219     14EA  3000               	movlw	0
  3220     14EB  00A8               	movwf	_kd^(0+384)
  3221     14EC                     l5295:
  3222     14EC  3000               	movlw	0
  3223     14ED  0021               	movlb	1	; select bank1
  3224     14EE  00CE               	movwf	(_pidi+3)^(0+128)
  3225     14EF  3000               	movlw	0
  3226     14F0  00CD               	movwf	(_pidi+2)^(0+128)
  3227     14F1  3000               	movlw	0
  3228     14F2  00CC               	movwf	(_pidi+1)^(0+128)
  3229     14F3  3000               	movlw	0
  3230     14F4  00CB               	movwf	_pidi^(0+128)
  3231     14F5                     l5297:
  3232                           
  3233                           ;charger_discharger.c: 123:     _delay((unsigned long)((100)*(32000000/4000.0)));
  3234     14F5  3005               	movlw	5
  3235     14F6  0023               	movlb	3	; select bank3
  3236     14F7  00D4               	movwf	(??_initialize^(0+384)+1)
  3237     14F8  300F               	movlw	15
  3238     14F9  00D3               	movwf	??_initialize^(0+384)
  3239     14FA  30F1               	movlw	241
  3240     14FB                     u6457:
  3241     14FB  0B89               	decfsz	9,f
  3242     14FC  2CFB               	goto	u6457
  3243     14FD  0BD3               	decfsz	??_initialize^(0+384),f
  3244     14FE  2CFB               	goto	u6457
  3245     14FF  0BD4               	decfsz	(??_initialize^(0+384)+1),f
  3246     1500  2CFB               	goto	u6457
  3247     1501                     l5299:
  3248                           
  3249                           ;charger_discharger.c: 124:     { RC3 = 0; RC4 = 0; conv = 0; RC5 = 0; pidt = 50.0; set_
      +                          DC(); Cell_OFF();};
  3250     1501  0020               	movlb	0	; select bank0
  3251     1502  118E               	bcf	14,3	;volatile
  3252     1503                     l5301:
  3253     1503  120E               	bcf	14,4	;volatile
  3254     1504                     l5303:
  3255     1504  0021               	movlb	1	; select bank1
  3256     1505  01E7               	clrf	_conv^(0+128)
  3257     1506                     l5305:
  3258     1506  0020               	movlb	0	; select bank0
  3259     1507  128E               	bcf	14,5	;volatile
  3260     1508                     l5307:
  3261     1508  3042               	movlw	66
  3262     1509  0023               	movlb	3	; select bank3
  3263     150A  00A3               	movwf	(_pidt+3)^(0+384)
  3264     150B  3048               	movlw	72
  3265     150C  00A2               	movwf	(_pidt+2)^(0+384)
  3266     150D  3000               	movlw	0
  3267     150E  00A1               	movwf	(_pidt+1)^(0+384)
  3268     150F  3000               	movlw	0
  3269     1510  00A0               	movwf	_pidt^(0+384)
  3270     1511                     l5309:
  3271     1511  319E  263F  3194   	fcall	_set_DC
  3272     1514                     l5311:
  3273     1514  319F  270C  3194   	fcall	_Cell_OFF
  3274     1517                     l297:
  3275     1517  0008               	return
  3276     1518                     __end_of_initialize:
  3277                           
  3278                           	psect	text4
  3279     1E3F                     __ptext4:	
  3280 ;; *************** function _set_DC *****************
  3281 ;; Defined at:
  3282 ;;		line 227 in file "charger_discharger.c"
  3283 ;; Parameters:    Size  Location     Type
  3284 ;;		None
  3285 ;; Auto vars:     Size  Location     Type
  3286 ;;  dc              2   16[BANK3 ] unsigned short 
  3287 ;; Return value:  Size  Location     Type
  3288 ;;                  1    wreg      void 
  3289 ;; Registers used:
  3290 ;;		wreg, status,2, status,0, pclath, cstack
  3291 ;; Tracked objects:
  3292 ;;		On entry : 0/0
  3293 ;;		On exit  : 0/0
  3294 ;;		Unchanged: 0/0
  3295 ;; Data sizes:     COMMON   BANK0   BANK1   BANK2   BANK3   BANK4   BANK5   BANK6   BANK7   BANK8   BANK9  BANK10  BANK1
      +1  BANK12
  3296 ;;      Params:         0       0       0       0       0       0       0       0       0       0       0       0       
      +0       0
  3297 ;;      Locals:         0       0       0       0       2       0       0       0       0       0       0       0       
      +0       0
  3298 ;;      Temps:          0       0       0       0       0       0       0       0       0       0       0       0       
      +0       0
  3299 ;;      Totals:         0       0       0       0       2       0       0       0       0       0       0       0       
      +0       0
  3300 ;;Total ram usage:        2 bytes
  3301 ;; Hardware stack levels used: 1
  3302 ;; Hardware stack levels required when called: 6
  3303 ;; This function calls:
  3304 ;;		___fltol
  3305 ;; This function is called by:
  3306 ;;		_initialize
  3307 ;; This function uses a non-reentrant model
  3308 ;;
  3309                           
  3310     1E3F                     _set_DC:	
  3311                           ;psect for function _set_DC
  3312                           
  3313     1E3F                     l4957:	
  3314                           ;incstack = 0
  3315                           ; Regs used in _set_DC: [wreg+status,2+status,0+pclath+cstack]
  3316                           
  3317                           
  3318                           ;charger_discharger.c: 230:     uint16_t dc = (uint16_t) pidt;
  3319     1E3F  0023               	movlb	3	; select bank3
  3320     1E40  0823               	movf	(_pidt+3)^(0+384),w
  3321     1E41  00CC               	movwf	(___fltol@f1+3)^(0+384)
  3322     1E42  0822               	movf	(_pidt+2)^(0+384),w
  3323     1E43  00CB               	movwf	(___fltol@f1+2)^(0+384)
  3324     1E44  0821               	movf	(_pidt+1)^(0+384),w
  3325     1E45  00CA               	movwf	(___fltol@f1+1)^(0+384)
  3326     1E46  0820               	movf	_pidt^(0+384),w
  3327     1E47  00C9               	movwf	___fltol@f1^(0+384)
  3328     1E48  3191  2114  319E   	fcall	___fltol
  3329     1E4B  0023               	movlb	3	; select bank3
  3330     1E4C  084A               	movf	(?___fltol+1)^(0+384),w
  3331     1E4D  00D2               	movwf	(set_DC@dc+1)^(0+384)
  3332     1E4E  0849               	movf	?___fltol^(0+384),w
  3333     1E4F  00D1               	movwf	set_DC@dc^(0+384)
  3334     1E50                     l4959:
  3335                           
  3336                           ;charger_discharger.c: 232:     PSMC1DCL = dc & 0x00FF;
  3337     1E50  0851               	movf	set_DC@dc^(0+384),w
  3338     1E51  0030               	movlb	16	; select bank16
  3339     1E52  00A3               	movwf	35	;volatile
  3340     1E53                     l4961:
  3341                           
  3342                           ;charger_discharger.c: 233:     PSMC1DCH = (dc >> 8) & 0x01;
  3343     1E53  0023               	movlb	3	; select bank3
  3344     1E54  0852               	movf	(set_DC@dc+1)^(0+384),w
  3345     1E55  3901               	andlw	1
  3346     1E56  0030               	movlb	16	; select bank16
  3347     1E57  00A4               	movwf	36	;volatile
  3348     1E58                     l4963:
  3349                           
  3350                           ;charger_discharger.c: 234:     PSMC1CONbits.PSMC1LD = 1;
  3351     1E58  1711               	bsf	17,6	;volatile
  3352     1E59                     l336:
  3353     1E59  0008               	return
  3354     1E5A                     __end_of_set_DC:
  3355                           
  3356                           	psect	text5
  3357     1F0C                     __ptext5:	
  3358 ;; *************** function _Cell_OFF *****************
  3359 ;; Defined at:
  3360 ;;		line 502 in file "charger_discharger.c"
  3361 ;; Parameters:    Size  Location     Type
  3362 ;;		None
  3363 ;; Auto vars:     Size  Location     Type
  3364 ;;		None
  3365 ;; Return value:  Size  Location     Type
  3366 ;;                  1    wreg      void 
  3367 ;; Registers used:
  3368 ;;		wreg
  3369 ;; Tracked objects:
  3370 ;;		On entry : 0/0
  3371 ;;		On exit  : 0/0
  3372 ;;		Unchanged: 0/0
  3373 ;; Data sizes:     COMMON   BANK0   BANK1   BANK2   BANK3   BANK4   BANK5   BANK6   BANK7   BANK8   BANK9  BANK10  BANK1
      +1  BANK12
  3374 ;;      Params:         0       0       0       0       0       0       0       0       0       0       0       0       
      +0       0
  3375 ;;      Locals:         0       0       0       0       0       0       0       0       0       0       0       0       
      +0       0
  3376 ;;      Temps:          0       0       0       1       0       0       0       0       0       0       0       0       
      +0       0
  3377 ;;      Totals:         0       0       0       1       0       0       0       0       0       0       0       0       
      +0       0
  3378 ;;Total ram usage:        1 bytes
  3379 ;; Hardware stack levels used: 1
  3380 ;; Hardware stack levels required when called: 5
  3381 ;; This function calls:
  3382 ;;		Nothing
  3383 ;; This function is called by:
  3384 ;;		_initialize
  3385 ;; This function uses a non-reentrant model
  3386 ;;
  3387                           
  3388     1F0C                     _Cell_OFF:	
  3389                           ;psect for function _Cell_OFF
  3390                           
  3391     1F0C                     l4947:	
  3392                           ;incstack = 0
  3393                           ; Regs used in _Cell_OFF: [wreg]
  3394                           
  3395                           
  3396                           ;charger_discharger.c: 504:     { RB2 = 0; };
  3397     1F0C  0020               	movlb	0	; select bank0
  3398     1F0D  110D               	bcf	13,2	;volatile
  3399     1F0E                     l4949:
  3400                           
  3401                           ;charger_discharger.c: 505:     _delay((unsigned long)((10)*(32000000/4000.0)));
  3402     1F0E  3068               	movlw	104
  3403     1F0F  0022               	movlb	2	; select bank2
  3404     1F10  00A0               	movwf	??_Cell_OFF^(0+256)
  3405     1F11  30E4               	movlw	228
  3406     1F12                     u6467:
  3407     1F12  0B89               	decfsz	9,f
  3408     1F13  2F12               	goto	u6467
  3409     1F14  0BA0               	decfsz	??_Cell_OFF^(0+256),f
  3410     1F15  2F12               	goto	u6467
  3411     1F16  0000               	nop
  3412     1F17                     l4951:
  3413                           
  3414                           ;charger_discharger.c: 506:     { RB3 = 0; };
  3415     1F17  0020               	movlb	0	; select bank0
  3416     1F18  118D               	bcf	13,3	;volatile
  3417                           
  3418                           ;charger_discharger.c: 507:     _delay((unsigned long)((10)*(32000000/4000.0)));
  3419     1F19  3068               	movlw	104
  3420     1F1A  0022               	movlb	2	; select bank2
  3421     1F1B  00A0               	movwf	??_Cell_OFF^(0+256)
  3422     1F1C  30E4               	movlw	228
  3423     1F1D                     u6477:
  3424     1F1D  0B89               	decfsz	9,f
  3425     1F1E  2F1D               	goto	u6477
  3426     1F1F  0BA0               	decfsz	??_Cell_OFF^(0+256),f
  3427     1F20  2F1D               	goto	u6477
  3428     1F21  0000               	nop
  3429     1F22                     l4953:
  3430                           
  3431                           ;charger_discharger.c: 508:     { RB4 = 0; };
  3432     1F22  0020               	movlb	0	; select bank0
  3433     1F23  120D               	bcf	13,4	;volatile
  3434                           
  3435                           ;charger_discharger.c: 509:     _delay((unsigned long)((10)*(32000000/4000.0)));
  3436     1F24  3068               	movlw	104
  3437     1F25  0022               	movlb	2	; select bank2
  3438     1F26  00A0               	movwf	??_Cell_OFF^(0+256)
  3439     1F27  30E4               	movlw	228
  3440     1F28                     u6487:
  3441     1F28  0B89               	decfsz	9,f
  3442     1F29  2F28               	goto	u6487
  3443     1F2A  0BA0               	decfsz	??_Cell_OFF^(0+256),f
  3444     1F2B  2F28               	goto	u6487
  3445     1F2C  0000               	nop
  3446     1F2D                     l4955:
  3447                           
  3448                           ;charger_discharger.c: 510:     { RB5 = 0; };
  3449     1F2D  0020               	movlb	0	; select bank0
  3450     1F2E  128D               	bcf	13,5	;volatile
  3451                           
  3452                           ;charger_discharger.c: 511:     _delay((unsigned long)((10)*(32000000/4000.0)));
  3453     1F2F  3068               	movlw	104
  3454     1F30  0022               	movlb	2	; select bank2
  3455     1F31  00A0               	movwf	??_Cell_OFF^(0+256)
  3456     1F32  30E4               	movlw	228
  3457     1F33                     u6497:
  3458     1F33  0B89               	decfsz	9,f
  3459     1F34  2F33               	goto	u6497
  3460     1F35  0BA0               	decfsz	??_Cell_OFF^(0+256),f
  3461     1F36  2F33               	goto	u6497
  3462     1F37  0000               	nop
  3463     1F38                     l444:
  3464     1F38  0008               	return
  3465     1F39                     __end_of_Cell_OFF:
  3466                           
  3467                           	psect	text6
  3468     076F                     __ptext6:	
  3469 ;; *************** function _cc_cv_mode *****************
  3470 ;; Defined at:
  3471 ;;		line 237 in file "charger_discharger.c"
  3472 ;; Parameters:    Size  Location     Type
  3473 ;;  current_volt    2   16[BANK3 ] unsigned short 
  3474 ;;  reference_vo    2   18[BANK3 ] unsigned short 
  3475 ;;  CC_mode_stat    1   20[BANK3 ] _Bool 
  3476 ;; Auto vars:     Size  Location     Type
  3477 ;;		None
  3478 ;; Return value:  Size  Location     Type
  3479 ;;                  1    wreg      void 
  3480 ;; Registers used:
  3481 ;;		wreg, status,2, status,0, pclath, cstack
  3482 ;; Tracked objects:
  3483 ;;		On entry : 0/0
  3484 ;;		On exit  : 0/0
  3485 ;;		Unchanged: 0/0
  3486 ;; Data sizes:     COMMON   BANK0   BANK1   BANK2   BANK3   BANK4   BANK5   BANK6   BANK7   BANK8   BANK9  BANK10  BANK1
      +1  BANK12
  3487 ;;      Params:         0       0       0       0       5       0       0       0       0       0       0       0       
      +0       0
  3488 ;;      Locals:         0       0       0       0       0       0       0       0       0       0       0       0       
      +0       0
  3489 ;;      Temps:          0       0       0       0       0       0       0       0       0       0       0       0       
      +0       0
  3490 ;;      Totals:         0       0       0       0       5       0       0       0       0       0       0       0       
      +0       0
  3491 ;;Total ram usage:        5 bytes
  3492 ;; Hardware stack levels used: 1
  3493 ;; Hardware stack levels required when called: 7
  3494 ;; This function calls:
  3495 ;;		___fladd
  3496 ;;		___fldiv
  3497 ;;		___flmul
  3498 ;;		___fltol
  3499 ;;		___xxtofl
  3500 ;; This function is called by:
  3501 ;;		_main
  3502 ;; This function uses a non-reentrant model
  3503 ;;
  3504                           
  3505     076F                     _cc_cv_mode:	
  3506                           ;psect for function _cc_cv_mode
  3507                           
  3508     076F                     l5313:	
  3509                           ;incstack = 0
  3510                           ; Regs used in _cc_cv_mode: [wreg+status,2+status,0+pclath+cstack]
  3511                           
  3512                           
  3513                           ;charger_discharger.c: 237: void cc_cv_mode(uint16_t current_voltage, uint16_t reference
      +                          _voltage, _Bool CC_mode_status);charger_discharger.c: 238: {;charger_discharger.c: 240: 
      +                              if( ( ( (uint16_t) ( ( ( (float)current_voltage * 5000.0 ) / 4096.0 ) + 0.5 ) ) > re
      +                          ference_voltage ) && CC_mode_status )
  3514     076F  0023               	movlb	3	; select bank3
  3515     0770  0851               	movf	cc_cv_mode@current_voltage^(0+384),w
  3516     0771  0022               	movlb	2	; select bank2
  3517     0772  00A0               	movwf	___xxtofl@val^(0+256)
  3518     0773  0023               	movlb	3	; select bank3
  3519     0774  0852               	movf	(cc_cv_mode@current_voltage+1)^(0+384),w
  3520     0775  0022               	movlb	2	; select bank2
  3521     0776  00A1               	movwf	(___xxtofl@val^(0+256)+1)
  3522     0777  01A2               	clrf	(___xxtofl@val^(0+256)+2)
  3523     0778  01A3               	clrf	(___xxtofl@val^(0+256)+3)
  3524     0779  3000               	movlw	0
  3525     077A  3193  235E  3187   	fcall	___xxtofl
  3526     077D  0022               	movlb	2	; select bank2
  3527     077E  0823               	movf	(?___xxtofl+3)^(0+256),w
  3528     077F  00B5               	movwf	(___flmul@a+3)^(0+256)
  3529     0780  0822               	movf	(?___xxtofl+2)^(0+256),w
  3530     0781  00B4               	movwf	(___flmul@a+2)^(0+256)
  3531     0782  0821               	movf	(?___xxtofl+1)^(0+256),w
  3532     0783  00B3               	movwf	(___flmul@a+1)^(0+256)
  3533     0784  0820               	movf	?___xxtofl^(0+256),w
  3534     0785  00B2               	movwf	___flmul@a^(0+256)
  3535     0786  3045               	movlw	69
  3536     0787  00B1               	movwf	(___flmul@b+3)^(0+256)
  3537     0788  309C               	movlw	156
  3538     0789  00B0               	movwf	(___flmul@b+2)^(0+256)
  3539     078A  3040               	movlw	64
  3540     078B  00AF               	movwf	(___flmul@b+1)^(0+256)
  3541     078C  3000               	movlw	0
  3542     078D  00AE               	movwf	___flmul@b^(0+256)
  3543     078E  3182  22F9  3187   	fcall	___flmul
  3544     0791  0022               	movlb	2	; select bank2
  3545     0792  0831               	movf	(?___flmul+3)^(0+256),w
  3546     0793  00CF               	movwf	(___fldiv@b+3)^(0+256)
  3547     0794  0830               	movf	(?___flmul+2)^(0+256),w
  3548     0795  00CE               	movwf	(___fldiv@b+2)^(0+256)
  3549     0796  082F               	movf	(?___flmul+1)^(0+256),w
  3550     0797  00CD               	movwf	(___fldiv@b+1)^(0+256)
  3551     0798  082E               	movf	?___flmul^(0+256),w
  3552     0799  00CC               	movwf	___fldiv@b^(0+256)
  3553     079A  3045               	movlw	69
  3554     079B  00CB               	movwf	(___fldiv@a+3)^(0+256)
  3555     079C  3080               	movlw	128
  3556     079D  00CA               	movwf	(___fldiv@a+2)^(0+256)
  3557     079E  3000               	movlw	0
  3558     079F  00C9               	movwf	(___fldiv@a+1)^(0+256)
  3559     07A0  3000               	movlw	0
  3560     07A1  00C8               	movwf	___fldiv@a^(0+256)
  3561     07A2  3188  208B  3187   	fcall	___fldiv
  3562     07A5  0022               	movlb	2	; select bank2
  3563     07A6  084B               	movf	(?___fldiv+3)^(0+256),w
  3564     07A7  00E9               	movwf	(___fladd@a+3)^(0+256)
  3565     07A8  084A               	movf	(?___fldiv+2)^(0+256),w
  3566     07A9  00E8               	movwf	(___fladd@a+2)^(0+256)
  3567     07AA  0849               	movf	(?___fldiv+1)^(0+256),w
  3568     07AB  00E7               	movwf	(___fladd@a+1)^(0+256)
  3569     07AC  0848               	movf	?___fldiv^(0+256),w
  3570     07AD  00E6               	movwf	___fladd@a^(0+256)
  3571     07AE  303F               	movlw	63
  3572     07AF  00E5               	movwf	(___fladd@b+3)^(0+256)
  3573     07B0  3000               	movlw	0
  3574     07B1  00E4               	movwf	(___fladd@b+2)^(0+256)
  3575     07B2  3000               	movlw	0
  3576     07B3  00E3               	movwf	(___fladd@b+1)^(0+256)
  3577     07B4  3000               	movlw	0
  3578     07B5  00E2               	movwf	___fladd@b^(0+256)
  3579     07B6  3180  20BC  3187   	fcall	___fladd
  3580     07B9  0022               	movlb	2	; select bank2
  3581     07BA  0865               	movf	(?___fladd+3)^(0+256),w
  3582     07BB  0023               	movlb	3	; select bank3
  3583     07BC  00CC               	movwf	(___fltol@f1+3)^(0+384)
  3584     07BD  0022               	movlb	2	; select bank2
  3585     07BE  0864               	movf	(?___fladd+2)^(0+256),w
  3586     07BF  0023               	movlb	3	; select bank3
  3587     07C0  00CB               	movwf	(___fltol@f1+2)^(0+384)
  3588     07C1  0022               	movlb	2	; select bank2
  3589     07C2  0863               	movf	(?___fladd+1)^(0+256),w
  3590     07C3  0023               	movlb	3	; select bank3
  3591     07C4  00CA               	movwf	(___fltol@f1+1)^(0+384)
  3592     07C5  0022               	movlb	2	; select bank2
  3593     07C6  0862               	movf	?___fladd^(0+256),w
  3594     07C7  0023               	movlb	3	; select bank3
  3595     07C8  00C9               	movwf	___fltol@f1^(0+384)
  3596     07C9  3191  2114  3187   	fcall	___fltol
  3597     07CC  0023               	movlb	3	; select bank3
  3598     07CD  084A               	movf	(?___fltol+1)^(0+384),w
  3599     07CE  0254               	subwf	(cc_cv_mode@reference_voltage+1)^(0+384),w
  3600     07CF  1D03               	skipz
  3601     07D0  2FD3               	goto	u6355
  3602     07D1  0849               	movf	?___fltol^(0+384),w
  3603     07D2  0253               	subwf	cc_cv_mode@reference_voltage^(0+384),w
  3604     07D3                     u6355:
  3605     07D3  1803               	skipnc
  3606     07D4  2FD6               	goto	u6351
  3607     07D5  2FD7               	goto	u6350
  3608     07D6                     u6351:
  3609     07D6  2FFF               	goto	l340
  3610     07D7                     u6350:
  3611     07D7                     l5315:
  3612     07D7  0855               	movf	cc_cv_mode@CC_mode_status^(0+384),w
  3613     07D8  1903               	btfsc	3,2
  3614     07D9  2FDB               	goto	u6361
  3615     07DA  2FDC               	goto	u6360
  3616     07DB                     u6361:
  3617     07DB  2FFF               	goto	l340
  3618     07DC                     u6360:
  3619     07DC                     l5317:
  3620                           
  3621                           ;charger_discharger.c: 241:     {;charger_discharger.c: 242:         pidi = 0;
  3622     07DC  3000               	movlw	0
  3623     07DD  0021               	movlb	1	; select bank1
  3624     07DE  00CE               	movwf	(_pidi+3)^(0+128)
  3625     07DF  3000               	movlw	0
  3626     07E0  00CD               	movwf	(_pidi+2)^(0+128)
  3627     07E1  3000               	movlw	0
  3628     07E2  00CC               	movwf	(_pidi+1)^(0+128)
  3629     07E3  3000               	movlw	0
  3630     07E4  00CB               	movwf	_pidi^(0+128)
  3631     07E5                     l5319:
  3632                           
  3633                           ;charger_discharger.c: 243:         cmode = 0;
  3634     07E5  01EC               	clrf	_cmode^(0+128)
  3635     07E6                     l5321:
  3636     07E6  303A               	movlw	58
  3637     07E7  0023               	movlb	3	; select bank3
  3638     07E8  00B3               	movwf	(_kp+3)^(0+384)
  3639     07E9  30EB               	movlw	235
  3640     07EA  00B2               	movwf	(_kp+2)^(0+384)
  3641     07EB  30ED               	movlw	237
  3642     07EC  00B1               	movwf	(_kp+1)^(0+384)
  3643     07ED  30FA               	movlw	250
  3644     07EE  00B0               	movwf	_kp^(0+384)
  3645     07EF                     l5323:
  3646     07EF  303A               	movlw	58
  3647     07F0  00AF               	movwf	(_ki+3)^(0+384)
  3648     07F1  3003               	movlw	3
  3649     07F2  00AE               	movwf	(_ki+2)^(0+384)
  3650     07F3  3012               	movlw	18
  3651     07F4  00AD               	movwf	(_ki+1)^(0+384)
  3652     07F5  306F               	movlw	111
  3653     07F6  00AC               	movwf	_ki^(0+384)
  3654     07F7                     l5325:
  3655     07F7  303C               	movlw	60
  3656     07F8  00AB               	movwf	(_kd+3)^(0+384)
  3657     07F9  30A3               	movlw	163
  3658     07FA  00AA               	movwf	(_kd+2)^(0+384)
  3659     07FB  30D7               	movlw	215
  3660     07FC  00A9               	movwf	(_kd+1)^(0+384)
  3661     07FD  300A               	movlw	10
  3662     07FE  00A8               	movwf	_kd^(0+384)
  3663     07FF                     l340:
  3664     07FF  0008               	return
  3665     0800                     __end_of_cc_cv_mode:
  3666                           
  3667                           	psect	text7
  3668     135E                     __ptext7:	
  3669 ;; *************** function ___xxtofl *****************
  3670 ;; Defined at:
  3671 ;;		line 10 in file "C:\Program Files\Microchip\xc8\v2.40\pic\sources\c99\common\xxtofl.c"
  3672 ;; Parameters:    Size  Location     Type
  3673 ;;  sign            1    wreg     unsigned char 
  3674 ;;  val             4    0[BANK2 ] long 
  3675 ;; Auto vars:     Size  Location     Type
  3676 ;;  sign            1    8[BANK2 ] unsigned char 
  3677 ;;  arg             4   10[BANK2 ] unsigned long 
  3678 ;;  exp             1    9[BANK2 ] unsigned char 
  3679 ;; Return value:  Size  Location     Type
  3680 ;;                  4    0[BANK2 ] unsigned char 
  3681 ;; Registers used:
  3682 ;;		wreg, status,2, status,0
  3683 ;; Tracked objects:
  3684 ;;		On entry : 0/0
  3685 ;;		On exit  : 0/0
  3686 ;;		Unchanged: 0/0
  3687 ;; Data sizes:     COMMON   BANK0   BANK1   BANK2   BANK3   BANK4   BANK5   BANK6   BANK7   BANK8   BANK9  BANK10  BANK1
      +1  BANK12
  3688 ;;      Params:         0       0       0       4       0       0       0       0       0       0       0       0       
      +0       0
  3689 ;;      Locals:         0       0       0       6       0       0       0       0       0       0       0       0       
      +0       0
  3690 ;;      Temps:          0       0       0       4       0       0       0       0       0       0       0       0       
      +0       0
  3691 ;;      Totals:         0       0       0      14       0       0       0       0       0       0       0       0       
      +0       0
  3692 ;;Total ram usage:       14 bytes
  3693 ;; Hardware stack levels used: 1
  3694 ;; Hardware stack levels required when called: 5
  3695 ;; This function calls:
  3696 ;;		Nothing
  3697 ;; This function is called by:
  3698 ;;		_initialize
  3699 ;;		_cc_cv_mode
  3700 ;;		_scaling
  3701 ;; This function uses a non-reentrant model
  3702 ;;
  3703                           
  3704     135E                     ___xxtofl:	
  3705                           ;psect for function ___xxtofl
  3706                           
  3707                           
  3708                           ;incstack = 0
  3709                           ; Regs used in ___xxtofl: [wreg+status,2+status,0]
  3710                           ;___xxtofl@sign stored from wreg
  3711     135E  0022               	movlb	2	; select bank2
  3712     135F  00A8               	movwf	___xxtofl@sign^(0+256)
  3713     1360                     l4183:
  3714     1360  0828               	movf	___xxtofl@sign^(0+256),w
  3715     1361  1903               	btfsc	3,2
  3716     1362  2B64               	goto	u5201
  3717     1363  2B65               	goto	u5200
  3718     1364                     u5201:
  3719     1364  2B79               	goto	l4189
  3720     1365                     u5200:
  3721     1365                     l4185:
  3722     1365  1FA3               	btfss	(___xxtofl@val+3)^(0+256),7
  3723     1366  2B68               	goto	u5211
  3724     1367  2B69               	goto	u5210
  3725     1368                     u5211:
  3726     1368  2B79               	goto	l4189
  3727     1369                     u5210:
  3728     1369                     l4187:
  3729     1369  0920               	comf	___xxtofl@val^(0+256),w
  3730     136A  00AA               	movwf	___xxtofl@arg^(0+256)
  3731     136B  0921               	comf	(___xxtofl@val^(0+256)+1),w
  3732     136C  00AB               	movwf	(___xxtofl@arg+1)^(0+256)
  3733     136D  0922               	comf	(___xxtofl@val^(0+256)+2),w
  3734     136E  00AC               	movwf	(___xxtofl@arg+2)^(0+256)
  3735     136F  0923               	comf	(___xxtofl@val^(0+256)+3),w
  3736     1370  00AD               	movwf	(___xxtofl@arg+3)^(0+256)
  3737     1371  0AAA               	incf	___xxtofl@arg^(0+256),f
  3738     1372  1903               	skipnz
  3739     1373  0AAB               	incf	(___xxtofl@arg+1)^(0+256),f
  3740     1374  1903               	skipnz
  3741     1375  0AAC               	incf	(___xxtofl@arg+2)^(0+256),f
  3742     1376  1903               	skipnz
  3743     1377  0AAD               	incf	(___xxtofl@arg+3)^(0+256),f
  3744     1378  2B81               	goto	l1171
  3745     1379                     l4189:
  3746     1379  0823               	movf	(___xxtofl@val+3)^(0+256),w
  3747     137A  00AD               	movwf	(___xxtofl@arg+3)^(0+256)
  3748     137B  0822               	movf	(___xxtofl@val+2)^(0+256),w
  3749     137C  00AC               	movwf	(___xxtofl@arg+2)^(0+256)
  3750     137D  0821               	movf	(___xxtofl@val+1)^(0+256),w
  3751     137E  00AB               	movwf	(___xxtofl@arg+1)^(0+256)
  3752     137F  0820               	movf	___xxtofl@val^(0+256),w
  3753     1380  00AA               	movwf	___xxtofl@arg^(0+256)
  3754     1381                     l1171:
  3755     1381  0823               	movf	(___xxtofl@val+3)^(0+256),w
  3756     1382  0422               	iorwf	(___xxtofl@val+2)^(0+256),w
  3757     1383  0421               	iorwf	(___xxtofl@val+1)^(0+256),w
  3758     1384  0420               	iorwf	___xxtofl@val^(0+256),w
  3759     1385  1D03               	skipz
  3760     1386  2B88               	goto	u5221
  3761     1387  2B89               	goto	u5220
  3762     1388                     u5221:
  3763     1388  2B92               	goto	l4195
  3764     1389                     u5220:
  3765     1389                     l4191:
  3766     1389  3000               	movlw	0
  3767     138A  00A3               	movwf	(?___xxtofl+3)^(0+256)
  3768     138B  3000               	movlw	0
  3769     138C  00A2               	movwf	(?___xxtofl+2)^(0+256)
  3770     138D  3000               	movlw	0
  3771     138E  00A1               	movwf	(?___xxtofl+1)^(0+256)
  3772     138F  3000               	movlw	0
  3773     1390  00A0               	movwf	?___xxtofl^(0+256)
  3774     1391  2C08               	goto	l1173
  3775     1392                     l4195:
  3776     1392  3096               	movlw	150
  3777     1393  00A9               	movwf	___xxtofl@exp^(0+256)
  3778     1394  2BA0               	goto	l4199
  3779     1395                     l4197:
  3780     1395  3001               	movlw	1
  3781     1396  00A4               	movwf	??___xxtofl^(0+256)
  3782     1397  0824               	movf	??___xxtofl^(0+256),w
  3783     1398  07A9               	addwf	___xxtofl@exp^(0+256),f
  3784     1399  3001               	movlw	1
  3785     139A                     u5235:
  3786     139A  36AD               	lsrf	(___xxtofl@arg+3)^(0+256),f
  3787     139B  0CAC               	rrf	(___xxtofl@arg+2)^(0+256),f
  3788     139C  0CAB               	rrf	(___xxtofl@arg+1)^(0+256),f
  3789     139D  0CAA               	rrf	___xxtofl@arg^(0+256),f
  3790     139E  0B89               	decfsz	9,f
  3791     139F  2B9A               	goto	u5235
  3792     13A0                     l4199:
  3793     13A0  30FE               	movlw	254
  3794     13A1  052D               	andwf	(___xxtofl@arg+3)^(0+256),w
  3795     13A2  1D03               	btfss	3,2
  3796     13A3  2BA5               	goto	u5241
  3797     13A4  2BA6               	goto	u5240
  3798     13A5                     u5241:
  3799     13A5  2B95               	goto	l4197
  3800     13A6                     u5240:
  3801     13A6  2BBA               	goto	l1177
  3802     13A7                     l4201:
  3803     13A7  3001               	movlw	1
  3804     13A8  00A4               	movwf	??___xxtofl^(0+256)
  3805     13A9  0824               	movf	??___xxtofl^(0+256),w
  3806     13AA  07A9               	addwf	___xxtofl@exp^(0+256),f
  3807     13AB                     l4203:
  3808     13AB  3001               	movlw	1
  3809     13AC  07AA               	addwf	___xxtofl@arg^(0+256),f
  3810     13AD  3000               	movlw	0
  3811     13AE  3DAB               	addwfc	(___xxtofl@arg+1)^(0+256),f
  3812     13AF  3000               	movlw	0
  3813     13B0  3DAC               	addwfc	(___xxtofl@arg+2)^(0+256),f
  3814     13B1  3000               	movlw	0
  3815     13B2  3DAD               	addwfc	(___xxtofl@arg+3)^(0+256),f
  3816     13B3                     l4205:
  3817     13B3  3001               	movlw	1
  3818     13B4                     u5255:
  3819     13B4  36AD               	lsrf	(___xxtofl@arg+3)^(0+256),f
  3820     13B5  0CAC               	rrf	(___xxtofl@arg+2)^(0+256),f
  3821     13B6  0CAB               	rrf	(___xxtofl@arg+1)^(0+256),f
  3822     13B7  0CAA               	rrf	___xxtofl@arg^(0+256),f
  3823     13B8  0B89               	decfsz	9,f
  3824     13B9  2BB4               	goto	u5255
  3825     13BA                     l1177:
  3826     13BA  30FF               	movlw	255
  3827     13BB  052D               	andwf	(___xxtofl@arg+3)^(0+256),w
  3828     13BC  1D03               	btfss	3,2
  3829     13BD  2BBF               	goto	u5261
  3830     13BE  2BC0               	goto	u5260
  3831     13BF                     u5261:
  3832     13BF  2BA7               	goto	l4201
  3833     13C0                     u5260:
  3834     13C0  2BCA               	goto	l4209
  3835     13C1                     l4207:
  3836     13C1  3001               	movlw	1
  3837     13C2  02A9               	subwf	___xxtofl@exp^(0+256),f
  3838     13C3  3001               	movlw	1
  3839     13C4                     u5275:
  3840     13C4  35AA               	lslf	___xxtofl@arg^(0+256),f
  3841     13C5  0DAB               	rlf	(___xxtofl@arg+1)^(0+256),f
  3842     13C6  0DAC               	rlf	(___xxtofl@arg+2)^(0+256),f
  3843     13C7  0DAD               	rlf	(___xxtofl@arg+3)^(0+256),f
  3844     13C8  0B89               	decfsz	9,f
  3845     13C9  2BC4               	goto	u5275
  3846     13CA                     l4209:
  3847     13CA  1BAC               	btfsc	(___xxtofl@arg+2)^(0+256),7
  3848     13CB  2BCD               	goto	u5281
  3849     13CC  2BCE               	goto	u5280
  3850     13CD                     u5281:
  3851     13CD  2BD4               	goto	l1184
  3852     13CE                     u5280:
  3853     13CE                     l4211:
  3854     13CE  3002               	movlw	2
  3855     13CF  0229               	subwf	___xxtofl@exp^(0+256),w
  3856     13D0  1803               	skipnc
  3857     13D1  2BD3               	goto	u5291
  3858     13D2  2BD4               	goto	u5290
  3859     13D3                     u5291:
  3860     13D3  2BC1               	goto	l4207
  3861     13D4                     u5290:
  3862     13D4                     l1184:
  3863     13D4  1829               	btfsc	___xxtofl@exp^(0+256),0
  3864     13D5  2BD7               	goto	u5301
  3865     13D6  2BD8               	goto	u5300
  3866     13D7                     u5301:
  3867     13D7  2BE0               	goto	l1185
  3868     13D8                     u5300:
  3869     13D8                     l4213:
  3870     13D8  30FF               	movlw	255
  3871     13D9  05AA               	andwf	___xxtofl@arg^(0+256),f
  3872     13DA  30FF               	movlw	255
  3873     13DB  05AB               	andwf	(___xxtofl@arg+1)^(0+256),f
  3874     13DC  307F               	movlw	127
  3875     13DD  05AC               	andwf	(___xxtofl@arg+2)^(0+256),f
  3876     13DE  30FF               	movlw	255
  3877     13DF  05AD               	andwf	(___xxtofl@arg+3)^(0+256),f
  3878     13E0                     l1185:
  3879     13E0  1003               	clrc
  3880     13E1  0CA9               	rrf	___xxtofl@exp^(0+256),f
  3881     13E2                     l4215:
  3882     13E2  0829               	movf	___xxtofl@exp^(0+256),w
  3883     13E3  00A4               	movwf	??___xxtofl^(0+256)
  3884     13E4  01A5               	clrf	(??___xxtofl^(0+256)+1)
  3885     13E5  01A6               	clrf	(??___xxtofl^(0+256)+2)
  3886     13E6  01A7               	clrf	(??___xxtofl^(0+256)+3)
  3887     13E7  3018               	movlw	24
  3888     13E8                     u5315:
  3889     13E8  35A4               	lslf	??___xxtofl^(0+256),f
  3890     13E9  0DA5               	rlf	(??___xxtofl^(0+256)+1),f
  3891     13EA  0DA6               	rlf	(??___xxtofl^(0+256)+2),f
  3892     13EB  0DA7               	rlf	(??___xxtofl^(0+256)+3),f
  3893     13EC                     u5310:
  3894     13EC  0B89               	decfsz	9,f
  3895     13ED  2BE8               	goto	u5315
  3896     13EE  0824               	movf	??___xxtofl^(0+256),w
  3897     13EF  04AA               	iorwf	___xxtofl@arg^(0+256),f
  3898     13F0  0825               	movf	(??___xxtofl+1)^(0+256),w
  3899     13F1  04AB               	iorwf	(___xxtofl@arg+1)^(0+256),f
  3900     13F2  0826               	movf	(??___xxtofl+2)^(0+256),w
  3901     13F3  04AC               	iorwf	(___xxtofl@arg+2)^(0+256),f
  3902     13F4  0827               	movf	(??___xxtofl+3)^(0+256),w
  3903     13F5  04AD               	iorwf	(___xxtofl@arg+3)^(0+256),f
  3904     13F6                     l4217:
  3905     13F6  0828               	movf	___xxtofl@sign^(0+256),w
  3906     13F7  1903               	btfsc	3,2
  3907     13F8  2BFA               	goto	u5321
  3908     13F9  2BFB               	goto	u5320
  3909     13FA                     u5321:
  3910     13FA  2C00               	goto	l4223
  3911     13FB                     u5320:
  3912     13FB                     l4219:
  3913     13FB  1FA3               	btfss	(___xxtofl@val+3)^(0+256),7
  3914     13FC  2BFE               	goto	u5331
  3915     13FD  2BFF               	goto	u5330
  3916     13FE                     u5331:
  3917     13FE  2C00               	goto	l4223
  3918     13FF                     u5330:
  3919     13FF                     l4221:
  3920     13FF  17AD               	bsf	(___xxtofl@arg^(0+256)+3),7
  3921     1400                     l4223:
  3922     1400  082D               	movf	(___xxtofl@arg+3)^(0+256),w
  3923     1401  00A3               	movwf	(?___xxtofl+3)^(0+256)
  3924     1402  082C               	movf	(___xxtofl@arg+2)^(0+256),w
  3925     1403  00A2               	movwf	(?___xxtofl+2)^(0+256)
  3926     1404  082B               	movf	(___xxtofl@arg+1)^(0+256),w
  3927     1405  00A1               	movwf	(?___xxtofl+1)^(0+256)
  3928     1406  082A               	movf	___xxtofl@arg^(0+256),w
  3929     1407  00A0               	movwf	?___xxtofl^(0+256)
  3930     1408                     l1173:
  3931     1408  0008               	return
  3932     1409                     __end_of___xxtofl:
  3933                           
  3934                           	psect	text8
  3935     1114                     __ptext8:	
  3936 ;; *************** function ___fltol *****************
  3937 ;; Defined at:
  3938 ;;		line 43 in file "C:\Program Files\Microchip\xc8\v2.40\pic\sources\c99\common\fltol.c"
  3939 ;; Parameters:    Size  Location     Type
  3940 ;;  f1              4    8[BANK3 ] unsigned char 
  3941 ;; Auto vars:     Size  Location     Type
  3942 ;;  exp1            1   79[BANK2 ] unsigned char 
  3943 ;;  sign1           1   78[BANK2 ] unsigned char 
  3944 ;; Return value:  Size  Location     Type
  3945 ;;                  4    8[BANK3 ] long 
  3946 ;; Registers used:
  3947 ;;		wreg, status,2, status,0
  3948 ;; Tracked objects:
  3949 ;;		On entry : 0/0
  3950 ;;		On exit  : 0/0
  3951 ;;		Unchanged: 0/0
  3952 ;; Data sizes:     COMMON   BANK0   BANK1   BANK2   BANK3   BANK4   BANK5   BANK6   BANK7   BANK8   BANK9  BANK10  BANK1
      +1  BANK12
  3953 ;;      Params:         0       0       0       0       4       0       0       0       0       0       0       0       
      +0       0
  3954 ;;      Locals:         0       0       0       2       0       0       0       0       0       0       0       0       
      +0       0
  3955 ;;      Temps:          0       0       0       0       4       0       0       0       0       0       0       0       
      +0       0
  3956 ;;      Totals:         0       0       0       2       8       0       0       0       0       0       0       0       
      +0       0
  3957 ;;Total ram usage:       10 bytes
  3958 ;; Hardware stack levels used: 1
  3959 ;; Hardware stack levels required when called: 5
  3960 ;; This function calls:
  3961 ;;		Nothing
  3962 ;; This function is called by:
  3963 ;;		_set_DC
  3964 ;;		_cc_cv_mode
  3965 ;;		_scaling
  3966 ;; This function uses a non-reentrant model
  3967 ;;
  3968                           
  3969     1114                     ___fltol:	
  3970                           ;psect for function ___fltol
  3971                           
  3972     1114                     l3397:	
  3973                           ;incstack = 0
  3974                           ; Regs used in ___fltol: [wreg+status,2+status,0]
  3975                           
  3976     1114  1003               	clrc
  3977     1115  0023               	movlb	3	; select bank3
  3978     1116  0D4B               	rlf	(___fltol@f1+2)^(0+384),w
  3979     1117  0D4C               	rlf	(___fltol@f1+3)^(0+384),w
  3980     1118  0022               	movlb	2	; select bank2
  3981     1119  00EF               	movwf	___fltol@exp1^(0+256)
  3982     111A  086F               	movf	___fltol@exp1^(0+256),w
  3983     111B  1D03               	btfss	3,2
  3984     111C  291E               	goto	u3721
  3985     111D  291F               	goto	u3720
  3986     111E                     u3721:
  3987     111E  2929               	goto	l3403
  3988     111F                     u3720:
  3989     111F                     l3399:
  3990     111F  3000               	movlw	0
  3991     1120  0023               	movlb	3	; select bank3
  3992     1121  00CC               	movwf	(?___fltol+3)^(0+384)
  3993     1122  3000               	movlw	0
  3994     1123  00CB               	movwf	(?___fltol+2)^(0+384)
  3995     1124  3000               	movlw	0
  3996     1125  00CA               	movwf	(?___fltol+1)^(0+384)
  3997     1126  3000               	movlw	0
  3998     1127  00C9               	movwf	?___fltol^(0+384)
  3999     1128  298F               	goto	l924
  4000     1129                     l3403:
  4001     1129  0023               	movlb	3	; select bank3
  4002     112A  0849               	movf	___fltol@f1^(0+384),w
  4003     112B  00CD               	movwf	??___fltol^(0+384)
  4004     112C  084A               	movf	(___fltol@f1+1)^(0+384),w
  4005     112D  00CE               	movwf	(??___fltol^(0+384)+1)
  4006     112E  084B               	movf	(___fltol@f1+2)^(0+384),w
  4007     112F  00CF               	movwf	(??___fltol^(0+384)+2)
  4008     1130  084C               	movf	(___fltol@f1+3)^(0+384),w
  4009     1131  00D0               	movwf	(??___fltol^(0+384)+3)
  4010     1132  301F               	movlw	31
  4011     1133                     u3735:
  4012     1133  36D0               	lsrf	(??___fltol^(0+384)+3),f
  4013     1134  0CCF               	rrf	(??___fltol^(0+384)+2),f
  4014     1135  0CCE               	rrf	(??___fltol^(0+384)+1),f
  4015     1136  0CCD               	rrf	??___fltol^(0+384),f
  4016     1137                     u3730:
  4017     1137  0B89               	decfsz	9,f
  4018     1138  2933               	goto	u3735
  4019     1139  084D               	movf	??___fltol^(0+384),w
  4020     113A  0022               	movlb	2	; select bank2
  4021     113B  00EE               	movwf	___fltol@sign1^(0+256)
  4022     113C                     l3405:
  4023     113C  0023               	movlb	3	; select bank3
  4024     113D  17CB               	bsf	(___fltol@f1^(0+384)+2),7
  4025     113E                     l3407:
  4026     113E  30FF               	movlw	255
  4027     113F  05C9               	andwf	___fltol@f1^(0+384),f
  4028     1140  30FF               	movlw	255
  4029     1141  05CA               	andwf	(___fltol@f1+1)^(0+384),f
  4030     1142  30FF               	movlw	255
  4031     1143  05CB               	andwf	(___fltol@f1+2)^(0+384),f
  4032     1144  3000               	movlw	0
  4033     1145  05CC               	andwf	(___fltol@f1+3)^(0+384),f
  4034     1146                     l3409:
  4035     1146  3096               	movlw	150
  4036     1147  0022               	movlb	2	; select bank2
  4037     1148  02EF               	subwf	___fltol@exp1^(0+256),f
  4038     1149                     l3411:
  4039     1149  1FEF               	btfss	___fltol@exp1^(0+256),7
  4040     114A  294C               	goto	u3741
  4041     114B  294D               	goto	u3740
  4042     114C                     u3741:
  4043     114C  2967               	goto	l3421
  4044     114D                     u3740:
  4045     114D                     l3413:
  4046     114D  086F               	movf	___fltol@exp1^(0+256),w
  4047     114E  3A80               	xorlw	128
  4048     114F  3E97               	addlw	151
  4049     1150  1803               	skipnc
  4050     1151  2953               	goto	u3751
  4051     1152  2954               	goto	u3750
  4052     1153                     u3751:
  4053     1153  2955               	goto	l3419
  4054     1154                     u3750:
  4055     1154  291F               	goto	l3399
  4056     1155                     l3419:
  4057     1155  3001               	movlw	1
  4058     1156                     u3765:
  4059     1156  0023               	movlb	3	; select bank3
  4060     1157  36CC               	lsrf	(___fltol@f1+3)^(0+384),f
  4061     1158  0CCB               	rrf	(___fltol@f1+2)^(0+384),f
  4062     1159  0CCA               	rrf	(___fltol@f1+1)^(0+384),f
  4063     115A  0CC9               	rrf	___fltol@f1^(0+384),f
  4064     115B  0B89               	decfsz	9,f
  4065     115C  2956               	goto	u3765
  4066     115D  3001               	movlw	1
  4067     115E  00CD               	movwf	??___fltol^(0+384)
  4068     115F  084D               	movf	??___fltol^(0+384),w
  4069     1160  0022               	movlb	2	; select bank2
  4070     1161  07EF               	addwf	___fltol@exp1^(0+256),f
  4071     1162  1D03               	btfss	3,2
  4072     1163  2965               	goto	u3771
  4073     1164  2966               	goto	u3770
  4074     1165                     u3771:
  4075     1165  2955               	goto	l3419
  4076     1166                     u3770:
  4077     1166  297E               	goto	l3429
  4078     1167                     l3421:
  4079     1167  3020               	movlw	32
  4080     1168  026F               	subwf	___fltol@exp1^(0+256),w
  4081     1169  1C03               	skipc
  4082     116A  296C               	goto	u3781
  4083     116B  296D               	goto	u3780
  4084     116C                     u3781:
  4085     116C  2979               	goto	l931
  4086     116D                     u3780:
  4087     116D  291F               	goto	l3399
  4088     116E                     l3427:
  4089     116E  3001               	movlw	1
  4090     116F                     u3795:
  4091     116F  0023               	movlb	3	; select bank3
  4092     1170  35C9               	lslf	___fltol@f1^(0+384),f
  4093     1171  0DCA               	rlf	(___fltol@f1+1)^(0+384),f
  4094     1172  0DCB               	rlf	(___fltol@f1+2)^(0+384),f
  4095     1173  0DCC               	rlf	(___fltol@f1+3)^(0+384),f
  4096     1174  0B89               	decfsz	9,f
  4097     1175  296F               	goto	u3795
  4098     1176  3001               	movlw	1
  4099     1177  0022               	movlb	2	; select bank2
  4100     1178  02EF               	subwf	___fltol@exp1^(0+256),f
  4101     1179                     l931:
  4102     1179  086F               	movf	___fltol@exp1^(0+256),w
  4103     117A  1D03               	btfss	3,2
  4104     117B  297D               	goto	u3801
  4105     117C  297E               	goto	u3800
  4106     117D                     u3801:
  4107     117D  296E               	goto	l3427
  4108     117E                     u3800:
  4109     117E                     l3429:
  4110     117E  086E               	movf	___fltol@sign1^(0+256),w
  4111     117F  1903               	btfsc	3,2
  4112     1180  2982               	goto	u3811
  4113     1181  2983               	goto	u3810
  4114     1182                     u3811:
  4115     1182  298F               	goto	l934
  4116     1183                     u3810:
  4117     1183                     l3431:
  4118     1183  0023               	movlb	3	; select bank3
  4119     1184  09C9               	comf	___fltol@f1^(0+384),f
  4120     1185  09CA               	comf	(___fltol@f1+1)^(0+384),f
  4121     1186  09CB               	comf	(___fltol@f1+2)^(0+384),f
  4122     1187  09CC               	comf	(___fltol@f1+3)^(0+384),f
  4123     1188  0AC9               	incf	___fltol@f1^(0+384),f
  4124     1189  1903               	skipnz
  4125     118A  0ACA               	incf	(___fltol@f1+1)^(0+384),f
  4126     118B  1903               	skipnz
  4127     118C  0ACB               	incf	(___fltol@f1+2)^(0+384),f
  4128     118D  1903               	skipnz
  4129     118E  0ACC               	incf	(___fltol@f1+3)^(0+384),f
  4130     118F                     l934:
  4131     118F                     l924:
  4132     118F  0008               	return
  4133     1190                     __end_of___fltol:
  4134                           
  4135                           	psect	text9
  4136     02F9                     __ptext9:	
  4137 ;; *************** function ___flmul *****************
  4138 ;; Defined at:
  4139 ;;		line 8 in file "C:\Program Files\Microchip\xc8\v2.40\pic\sources\c99\common\sprcmul.c"
  4140 ;; Parameters:    Size  Location     Type
  4141 ;;  b               4   14[BANK2 ] long 
  4142 ;;  a               4   18[BANK2 ] long 
  4143 ;; Auto vars:     Size  Location     Type
  4144 ;;  prod            4   34[BANK2 ] struct .
  4145 ;;  grs             4   29[BANK2 ] unsigned long 
  4146 ;;  temp            2   38[BANK2 ] struct .
  4147 ;;  bexp            1   33[BANK2 ] unsigned char 
  4148 ;;  aexp            1   28[BANK2 ] unsigned char 
  4149 ;;  sign            1   27[BANK2 ] unsigned char 
  4150 ;; Return value:  Size  Location     Type
  4151 ;;                  4   14[BANK2 ] unsigned char 
  4152 ;; Registers used:
  4153 ;;		wreg, status,2, status,0, pclath, cstack
  4154 ;; Tracked objects:
  4155 ;;		On entry : 0/0
  4156 ;;		On exit  : 0/0
  4157 ;;		Unchanged: 0/0
  4158 ;; Data sizes:     COMMON   BANK0   BANK1   BANK2   BANK3   BANK4   BANK5   BANK6   BANK7   BANK8   BANK9  BANK10  BANK1
      +1  BANK12
  4159 ;;      Params:         0       0       0       8       0       0       0       0       0       0       0       0       
      +0       0
  4160 ;;      Locals:         0       0       0      13       0       0       0       0       0       0       0       0       
      +0       0
  4161 ;;      Temps:          0       0       0       5       0       0       0       0       0       0       0       0       
      +0       0
  4162 ;;      Totals:         0       0       0      26       0       0       0       0       0       0       0       0       
      +0       0
  4163 ;;Total ram usage:       26 bytes
  4164 ;; Hardware stack levels used: 1
  4165 ;; Hardware stack levels required when called: 6
  4166 ;; This function calls:
  4167 ;;		__Umul8_16
  4168 ;; This function is called by:
  4169 ;;		_cc_cv_mode
  4170 ;;		_scaling
  4171 ;; This function uses a non-reentrant model
  4172 ;;
  4173                           
  4174     02F9                     ___flmul:	
  4175                           ;psect for function ___flmul
  4176                           
  4177     02F9                     l4965:	
  4178                           ;incstack = 0
  4179                           ; Regs used in ___flmul: [wreg+status,2+status,0+pclath+cstack]
  4180                           
  4181     02F9  0022               	movlb	2	; select bank2
  4182     02FA  0831               	movf	(___flmul@b^(0+256)+3),w
  4183     02FB  3980               	andlw	128
  4184     02FC  00BB               	movwf	___flmul@sign^(0+256)
  4185     02FD                     l4967:
  4186     02FD  3531               	lslf	(___flmul@b^(0+256)+3),w
  4187     02FE  00C1               	movwf	___flmul@bexp^(0+256)
  4188     02FF                     l4969:
  4189     02FF  1FB0               	btfss	(___flmul@b^(0+256)+2),7
  4190     0300  2B02               	goto	u6091
  4191     0301  2B03               	goto	u6090
  4192     0302                     u6091:
  4193     0302  2B04               	goto	l4973
  4194     0303                     u6090:
  4195     0303                     l4971:
  4196     0303  1441               	bsf	___flmul@bexp^(0+256),0
  4197     0304                     l4973:
  4198     0304  0841               	movf	___flmul@bexp^(0+256),w
  4199     0305  1903               	btfsc	3,2
  4200     0306  2B08               	goto	u6101
  4201     0307  2B09               	goto	u6100
  4202     0308                     u6101:
  4203     0308  2B18               	goto	l4981
  4204     0309                     u6100:
  4205     0309                     l4975:
  4206     0309  0A41               	incf	___flmul@bexp^(0+256),w
  4207     030A  1D03               	btfss	3,2
  4208     030B  2B0D               	goto	u6111
  4209     030C  2B0E               	goto	u6110
  4210     030D                     u6111:
  4211     030D  2B16               	goto	l4979
  4212     030E                     u6110:
  4213     030E                     l4977:
  4214     030E  3000               	movlw	0
  4215     030F  00B1               	movwf	(___flmul@b+3)^(0+256)
  4216     0310  3000               	movlw	0
  4217     0311  00B0               	movwf	(___flmul@b+2)^(0+256)
  4218     0312  3000               	movlw	0
  4219     0313  00AF               	movwf	(___flmul@b+1)^(0+256)
  4220     0314  3000               	movlw	0
  4221     0315  00AE               	movwf	___flmul@b^(0+256)
  4222     0316                     l4979:
  4223     0316  17B0               	bsf	(___flmul@b^(0+256)+2),7
  4224     0317  2B20               	goto	l4983
  4225     0318                     l4981:
  4226     0318  3000               	movlw	0
  4227     0319  00B1               	movwf	(___flmul@b+3)^(0+256)
  4228     031A  3000               	movlw	0
  4229     031B  00B0               	movwf	(___flmul@b+2)^(0+256)
  4230     031C  3000               	movlw	0
  4231     031D  00AF               	movwf	(___flmul@b+1)^(0+256)
  4232     031E  3000               	movlw	0
  4233     031F  00AE               	movwf	___flmul@b^(0+256)
  4234     0320                     l4983:
  4235     0320  0835               	movf	(___flmul@a^(0+256)+3),w
  4236     0321  3980               	andlw	128
  4237     0322  00B6               	movwf	??___flmul^(0+256)
  4238     0323  0836               	movf	??___flmul^(0+256),w
  4239     0324  06BB               	xorwf	___flmul@sign^(0+256),f
  4240     0325                     l4985:
  4241     0325  3535               	lslf	(___flmul@a^(0+256)+3),w
  4242     0326  00BC               	movwf	___flmul@aexp^(0+256)
  4243     0327                     l4987:
  4244     0327  1FB4               	btfss	(___flmul@a^(0+256)+2),7
  4245     0328  2B2A               	goto	u6121
  4246     0329  2B2B               	goto	u6120
  4247     032A                     u6121:
  4248     032A  2B2C               	goto	l4991
  4249     032B                     u6120:
  4250     032B                     l4989:
  4251     032B  143C               	bsf	___flmul@aexp^(0+256),0
  4252     032C                     l4991:
  4253     032C  083C               	movf	___flmul@aexp^(0+256),w
  4254     032D  1903               	btfsc	3,2
  4255     032E  2B30               	goto	u6131
  4256     032F  2B31               	goto	u6130
  4257     0330                     u6131:
  4258     0330  2B40               	goto	l4999
  4259     0331                     u6130:
  4260     0331                     l4993:
  4261     0331  0A3C               	incf	___flmul@aexp^(0+256),w
  4262     0332  1D03               	btfss	3,2
  4263     0333  2B35               	goto	u6141
  4264     0334  2B36               	goto	u6140
  4265     0335                     u6141:
  4266     0335  2B3E               	goto	l4997
  4267     0336                     u6140:
  4268     0336                     l4995:
  4269     0336  3000               	movlw	0
  4270     0337  00B5               	movwf	(___flmul@a+3)^(0+256)
  4271     0338  3000               	movlw	0
  4272     0339  00B4               	movwf	(___flmul@a+2)^(0+256)
  4273     033A  3000               	movlw	0
  4274     033B  00B3               	movwf	(___flmul@a+1)^(0+256)
  4275     033C  3000               	movlw	0
  4276     033D  00B2               	movwf	___flmul@a^(0+256)
  4277     033E                     l4997:
  4278     033E  17B4               	bsf	(___flmul@a^(0+256)+2),7
  4279     033F  2B48               	goto	l5001
  4280     0340                     l4999:
  4281     0340  3000               	movlw	0
  4282     0341  00B5               	movwf	(___flmul@a+3)^(0+256)
  4283     0342  3000               	movlw	0
  4284     0343  00B4               	movwf	(___flmul@a+2)^(0+256)
  4285     0344  3000               	movlw	0
  4286     0345  00B3               	movwf	(___flmul@a+1)^(0+256)
  4287     0346  3000               	movlw	0
  4288     0347  00B2               	movwf	___flmul@a^(0+256)
  4289     0348                     l5001:
  4290     0348  083C               	movf	___flmul@aexp^(0+256),w
  4291     0349  1903               	btfsc	3,2
  4292     034A  2B4C               	goto	u6151
  4293     034B  2B4D               	goto	u6150
  4294     034C                     u6151:
  4295     034C  2B52               	goto	l5005
  4296     034D                     u6150:
  4297     034D                     l5003:
  4298     034D  0841               	movf	___flmul@bexp^(0+256),w
  4299     034E  1D03               	btfss	3,2
  4300     034F  2B51               	goto	u6161
  4301     0350  2B52               	goto	u6160
  4302     0351                     u6161:
  4303     0351  2B5B               	goto	l5009
  4304     0352                     u6160:
  4305     0352                     l5005:
  4306     0352  3000               	movlw	0
  4307     0353  00B1               	movwf	(?___flmul+3)^(0+256)
  4308     0354  3000               	movlw	0
  4309     0355  00B0               	movwf	(?___flmul+2)^(0+256)
  4310     0356  3000               	movlw	0
  4311     0357  00AF               	movwf	(?___flmul+1)^(0+256)
  4312     0358  3000               	movlw	0
  4313     0359  00AE               	movwf	?___flmul^(0+256)
  4314     035A  2D33               	goto	l1127
  4315     035B                     l5009:
  4316     035B  082E               	movf	___flmul@b^(0+256),w
  4317     035C  00A0               	movwf	__Umul8_16@multiplicand^(0+256)
  4318     035D  0834               	movf	(___flmul@a^(0+256)+2),w
  4319     035E  319E  26BF  3182   	fcall	__Umul8_16
  4320     0361  0022               	movlb	2	; select bank2
  4321     0362  0821               	movf	(?__Umul8_16+1)^(0+256),w
  4322     0363  00C7               	movwf	(___flmul@temp+1)^(0+256)
  4323     0364  0820               	movf	?__Umul8_16^(0+256),w
  4324     0365  00C6               	movwf	___flmul@temp^(0+256)
  4325     0366                     l5011:
  4326     0366  0846               	movf	___flmul@temp^(0+256),w
  4327     0367  00B6               	movwf	??___flmul^(0+256)
  4328     0368  01B7               	clrf	(??___flmul^(0+256)+1)
  4329     0369  01B8               	clrf	(??___flmul^(0+256)+2)
  4330     036A  01B9               	clrf	(??___flmul^(0+256)+3)
  4331     036B  0839               	movf	(??___flmul+3)^(0+256),w
  4332     036C  00C0               	movwf	(___flmul@grs+3)^(0+256)
  4333     036D  0838               	movf	(??___flmul+2)^(0+256),w
  4334     036E  00BF               	movwf	(___flmul@grs+2)^(0+256)
  4335     036F  0837               	movf	(??___flmul+1)^(0+256),w
  4336     0370  00BE               	movwf	(___flmul@grs+1)^(0+256)
  4337     0371  0836               	movf	??___flmul^(0+256),w
  4338     0372  00BD               	movwf	___flmul@grs^(0+256)
  4339     0373                     l5013:
  4340     0373  0847               	movf	(___flmul@temp^(0+256)+1),w
  4341     0374  00B6               	movwf	??___flmul^(0+256)
  4342     0375  01B7               	clrf	(??___flmul^(0+256)+1)
  4343     0376  01B8               	clrf	(??___flmul^(0+256)+2)
  4344     0377  01B9               	clrf	(??___flmul^(0+256)+3)
  4345     0378  0839               	movf	(??___flmul+3)^(0+256),w
  4346     0379  00C5               	movwf	(___flmul@prod+3)^(0+256)
  4347     037A  0838               	movf	(??___flmul+2)^(0+256),w
  4348     037B  00C4               	movwf	(___flmul@prod+2)^(0+256)
  4349     037C  0837               	movf	(??___flmul+1)^(0+256),w
  4350     037D  00C3               	movwf	(___flmul@prod+1)^(0+256)
  4351     037E  0836               	movf	??___flmul^(0+256),w
  4352     037F  00C2               	movwf	___flmul@prod^(0+256)
  4353     0380  082F               	movf	(___flmul@b^(0+256)+1),w
  4354     0381  00A0               	movwf	__Umul8_16@multiplicand^(0+256)
  4355     0382  0833               	movf	(___flmul@a^(0+256)+1),w
  4356     0383  319E  26BF  3182   	fcall	__Umul8_16
  4357     0386  0022               	movlb	2	; select bank2
  4358     0387  0821               	movf	(?__Umul8_16+1)^(0+256),w
  4359     0388  00C7               	movwf	(___flmul@temp+1)^(0+256)
  4360     0389  0820               	movf	?__Umul8_16^(0+256),w
  4361     038A  00C6               	movwf	___flmul@temp^(0+256)
  4362     038B                     l5015:
  4363     038B  0846               	movf	___flmul@temp^(0+256),w
  4364     038C  00B6               	movwf	??___flmul^(0+256)
  4365     038D  01B7               	clrf	(??___flmul^(0+256)+1)
  4366     038E  01B8               	clrf	(??___flmul^(0+256)+2)
  4367     038F  01B9               	clrf	(??___flmul^(0+256)+3)
  4368     0390  0836               	movf	??___flmul^(0+256),w
  4369     0391  07BD               	addwf	___flmul@grs^(0+256),f
  4370     0392  0837               	movf	(??___flmul+1)^(0+256),w
  4371     0393  3DBE               	addwfc	(___flmul@grs+1)^(0+256),f
  4372     0394  0838               	movf	(??___flmul+2)^(0+256),w
  4373     0395  3DBF               	addwfc	(___flmul@grs+2)^(0+256),f
  4374     0396  0839               	movf	(??___flmul+3)^(0+256),w
  4375     0397  3DC0               	addwfc	(___flmul@grs+3)^(0+256),f
  4376     0398                     l5017:
  4377     0398  0847               	movf	(___flmul@temp^(0+256)+1),w
  4378     0399  00B6               	movwf	??___flmul^(0+256)
  4379     039A  01B7               	clrf	(??___flmul^(0+256)+1)
  4380     039B  01B8               	clrf	(??___flmul^(0+256)+2)
  4381     039C  01B9               	clrf	(??___flmul^(0+256)+3)
  4382     039D  0836               	movf	??___flmul^(0+256),w
  4383     039E  07C2               	addwf	___flmul@prod^(0+256),f
  4384     039F  0837               	movf	(??___flmul+1)^(0+256),w
  4385     03A0  3DC3               	addwfc	(___flmul@prod+1)^(0+256),f
  4386     03A1  0838               	movf	(??___flmul+2)^(0+256),w
  4387     03A2  3DC4               	addwfc	(___flmul@prod+2)^(0+256),f
  4388     03A3  0839               	movf	(??___flmul+3)^(0+256),w
  4389     03A4  3DC5               	addwfc	(___flmul@prod+3)^(0+256),f
  4390     03A5  0830               	movf	(___flmul@b^(0+256)+2),w
  4391     03A6  00A0               	movwf	__Umul8_16@multiplicand^(0+256)
  4392     03A7  0832               	movf	___flmul@a^(0+256),w
  4393     03A8  319E  26BF  3182   	fcall	__Umul8_16
  4394     03AB  0022               	movlb	2	; select bank2
  4395     03AC  0821               	movf	(?__Umul8_16+1)^(0+256),w
  4396     03AD  00C7               	movwf	(___flmul@temp+1)^(0+256)
  4397     03AE  0820               	movf	?__Umul8_16^(0+256),w
  4398     03AF  00C6               	movwf	___flmul@temp^(0+256)
  4399     03B0                     l5019:
  4400     03B0  0846               	movf	___flmul@temp^(0+256),w
  4401     03B1  00B6               	movwf	??___flmul^(0+256)
  4402     03B2  01B7               	clrf	(??___flmul^(0+256)+1)
  4403     03B3  01B8               	clrf	(??___flmul^(0+256)+2)
  4404     03B4  01B9               	clrf	(??___flmul^(0+256)+3)
  4405     03B5  0836               	movf	??___flmul^(0+256),w
  4406     03B6  07BD               	addwf	___flmul@grs^(0+256),f
  4407     03B7  0837               	movf	(??___flmul+1)^(0+256),w
  4408     03B8  3DBE               	addwfc	(___flmul@grs+1)^(0+256),f
  4409     03B9  0838               	movf	(??___flmul+2)^(0+256),w
  4410     03BA  3DBF               	addwfc	(___flmul@grs+2)^(0+256),f
  4411     03BB  0839               	movf	(??___flmul+3)^(0+256),w
  4412     03BC  3DC0               	addwfc	(___flmul@grs+3)^(0+256),f
  4413     03BD                     l5021:
  4414     03BD  0847               	movf	(___flmul@temp^(0+256)+1),w
  4415     03BE  00B6               	movwf	??___flmul^(0+256)
  4416     03BF  01B7               	clrf	(??___flmul^(0+256)+1)
  4417     03C0  01B8               	clrf	(??___flmul^(0+256)+2)
  4418     03C1  01B9               	clrf	(??___flmul^(0+256)+3)
  4419     03C2  0836               	movf	??___flmul^(0+256),w
  4420     03C3  07C2               	addwf	___flmul@prod^(0+256),f
  4421     03C4  0837               	movf	(??___flmul+1)^(0+256),w
  4422     03C5  3DC3               	addwfc	(___flmul@prod+1)^(0+256),f
  4423     03C6  0838               	movf	(??___flmul+2)^(0+256),w
  4424     03C7  3DC4               	addwfc	(___flmul@prod+2)^(0+256),f
  4425     03C8  0839               	movf	(??___flmul+3)^(0+256),w
  4426     03C9  3DC5               	addwfc	(___flmul@prod+3)^(0+256),f
  4427     03CA                     l5023:
  4428     03CA  3008               	movlw	8
  4429     03CB                     u6175:
  4430     03CB  35BD               	lslf	___flmul@grs^(0+256),f
  4431     03CC  0DBE               	rlf	(___flmul@grs+1)^(0+256),f
  4432     03CD  0DBF               	rlf	(___flmul@grs+2)^(0+256),f
  4433     03CE  0DC0               	rlf	(___flmul@grs+3)^(0+256),f
  4434     03CF  0B89               	decfsz	9,f
  4435     03D0  2BCB               	goto	u6175
  4436     03D1                     l5025:
  4437     03D1  082F               	movf	(___flmul@b^(0+256)+1),w
  4438     03D2  00A0               	movwf	__Umul8_16@multiplicand^(0+256)
  4439     03D3  0832               	movf	___flmul@a^(0+256),w
  4440     03D4  319E  26BF  3182   	fcall	__Umul8_16
  4441     03D7  0022               	movlb	2	; select bank2
  4442     03D8  0821               	movf	(?__Umul8_16+1)^(0+256),w
  4443     03D9  00C7               	movwf	(___flmul@temp+1)^(0+256)
  4444     03DA  0820               	movf	?__Umul8_16^(0+256),w
  4445     03DB  00C6               	movwf	___flmul@temp^(0+256)
  4446     03DC                     l5027:
  4447     03DC  0846               	movf	___flmul@temp^(0+256),w
  4448     03DD  07BD               	addwf	___flmul@grs^(0+256),f
  4449     03DE  0847               	movf	(___flmul@temp+1)^(0+256),w
  4450     03DF  3DBE               	addwfc	(___flmul@grs+1)^(0+256),f
  4451     03E0  3000               	movlw	0
  4452     03E1  3DBF               	addwfc	(___flmul@grs+2)^(0+256),f
  4453     03E2  3DC0               	addwfc	(___flmul@grs+3)^(0+256),f
  4454     03E3                     l5029:
  4455     03E3  082E               	movf	___flmul@b^(0+256),w
  4456     03E4  00A0               	movwf	__Umul8_16@multiplicand^(0+256)
  4457     03E5  0833               	movf	(___flmul@a^(0+256)+1),w
  4458     03E6  319E  26BF  3182   	fcall	__Umul8_16
  4459     03E9  0022               	movlb	2	; select bank2
  4460     03EA  0821               	movf	(?__Umul8_16+1)^(0+256),w
  4461     03EB  00C7               	movwf	(___flmul@temp+1)^(0+256)
  4462     03EC  0820               	movf	?__Umul8_16^(0+256),w
  4463     03ED  00C6               	movwf	___flmul@temp^(0+256)
  4464     03EE                     l5031:
  4465     03EE  0846               	movf	___flmul@temp^(0+256),w
  4466     03EF  07BD               	addwf	___flmul@grs^(0+256),f
  4467     03F0  0847               	movf	(___flmul@temp+1)^(0+256),w
  4468     03F1  3DBE               	addwfc	(___flmul@grs+1)^(0+256),f
  4469     03F2  3000               	movlw	0
  4470     03F3  3DBF               	addwfc	(___flmul@grs+2)^(0+256),f
  4471     03F4  3DC0               	addwfc	(___flmul@grs+3)^(0+256),f
  4472     03F5                     l5033:
  4473     03F5  3008               	movlw	8
  4474     03F6                     u6185:
  4475     03F6  35BD               	lslf	___flmul@grs^(0+256),f
  4476     03F7  0DBE               	rlf	(___flmul@grs+1)^(0+256),f
  4477     03F8  0DBF               	rlf	(___flmul@grs+2)^(0+256),f
  4478     03F9  0DC0               	rlf	(___flmul@grs+3)^(0+256),f
  4479     03FA  0B89               	decfsz	9,f
  4480     03FB  2BF6               	goto	u6185
  4481     03FC  082E               	movf	___flmul@b^(0+256),w
  4482     03FD  00A0               	movwf	__Umul8_16@multiplicand^(0+256)
  4483     03FE  0832               	movf	___flmul@a^(0+256),w
  4484     03FF  319E  26BF  3182   	fcall	__Umul8_16
  4485     0402  0022               	movlb	2	; select bank2
  4486     0403  0821               	movf	(?__Umul8_16+1)^(0+256),w
  4487     0404  00C7               	movwf	(___flmul@temp+1)^(0+256)
  4488     0405  0820               	movf	?__Umul8_16^(0+256),w
  4489     0406  00C6               	movwf	___flmul@temp^(0+256)
  4490     0407                     l5035:
  4491     0407  0846               	movf	___flmul@temp^(0+256),w
  4492     0408  07BD               	addwf	___flmul@grs^(0+256),f
  4493     0409  0847               	movf	(___flmul@temp+1)^(0+256),w
  4494     040A  3DBE               	addwfc	(___flmul@grs+1)^(0+256),f
  4495     040B  3000               	movlw	0
  4496     040C  3DBF               	addwfc	(___flmul@grs+2)^(0+256),f
  4497     040D  3DC0               	addwfc	(___flmul@grs+3)^(0+256),f
  4498     040E                     l5037:
  4499     040E  082F               	movf	(___flmul@b^(0+256)+1),w
  4500     040F  00A0               	movwf	__Umul8_16@multiplicand^(0+256)
  4501     0410  0834               	movf	(___flmul@a^(0+256)+2),w
  4502     0411  319E  26BF  3182   	fcall	__Umul8_16
  4503     0414  0022               	movlb	2	; select bank2
  4504     0415  0821               	movf	(?__Umul8_16+1)^(0+256),w
  4505     0416  00C7               	movwf	(___flmul@temp+1)^(0+256)
  4506     0417  0820               	movf	?__Umul8_16^(0+256),w
  4507     0418  00C6               	movwf	___flmul@temp^(0+256)
  4508     0419  0846               	movf	___flmul@temp^(0+256),w
  4509     041A  07C2               	addwf	___flmul@prod^(0+256),f
  4510     041B  0847               	movf	(___flmul@temp+1)^(0+256),w
  4511     041C  3DC3               	addwfc	(___flmul@prod+1)^(0+256),f
  4512     041D  3000               	movlw	0
  4513     041E  3DC4               	addwfc	(___flmul@prod+2)^(0+256),f
  4514     041F  3DC5               	addwfc	(___flmul@prod+3)^(0+256),f
  4515     0420                     l5039:
  4516     0420  0830               	movf	(___flmul@b^(0+256)+2),w
  4517     0421  00A0               	movwf	__Umul8_16@multiplicand^(0+256)
  4518     0422  0833               	movf	(___flmul@a^(0+256)+1),w
  4519     0423  319E  26BF  3182   	fcall	__Umul8_16
  4520     0426  0022               	movlb	2	; select bank2
  4521     0427  0821               	movf	(?__Umul8_16+1)^(0+256),w
  4522     0428  00C7               	movwf	(___flmul@temp+1)^(0+256)
  4523     0429  0820               	movf	?__Umul8_16^(0+256),w
  4524     042A  00C6               	movwf	___flmul@temp^(0+256)
  4525     042B                     l5041:
  4526     042B  0846               	movf	___flmul@temp^(0+256),w
  4527     042C  07C2               	addwf	___flmul@prod^(0+256),f
  4528     042D  0847               	movf	(___flmul@temp+1)^(0+256),w
  4529     042E  3DC3               	addwfc	(___flmul@prod+1)^(0+256),f
  4530     042F  3000               	movlw	0
  4531     0430  3DC4               	addwfc	(___flmul@prod+2)^(0+256),f
  4532     0431  3DC5               	addwfc	(___flmul@prod+3)^(0+256),f
  4533     0432  0830               	movf	(___flmul@b^(0+256)+2),w
  4534     0433  00A0               	movwf	__Umul8_16@multiplicand^(0+256)
  4535     0434  0834               	movf	(___flmul@a^(0+256)+2),w
  4536     0435  319E  26BF  3182   	fcall	__Umul8_16
  4537     0438  0022               	movlb	2	; select bank2
  4538     0439  0821               	movf	(?__Umul8_16+1)^(0+256),w
  4539     043A  00C7               	movwf	(___flmul@temp+1)^(0+256)
  4540     043B  0820               	movf	?__Umul8_16^(0+256),w
  4541     043C  00C6               	movwf	___flmul@temp^(0+256)
  4542     043D                     l5043:
  4543     043D  0846               	movf	___flmul@temp^(0+256),w
  4544     043E  00B6               	movwf	??___flmul^(0+256)
  4545     043F  0847               	movf	(___flmul@temp+1)^(0+256),w
  4546     0440  00B7               	movwf	(??___flmul^(0+256)+1)
  4547     0441  01B8               	clrf	(??___flmul^(0+256)+2)
  4548     0442  01B9               	clrf	(??___flmul^(0+256)+3)
  4549     0443  3008               	movlw	8
  4550     0444                     u6195:
  4551     0444  35B6               	lslf	??___flmul^(0+256),f
  4552     0445  0DB7               	rlf	(??___flmul^(0+256)+1),f
  4553     0446  0DB8               	rlf	(??___flmul^(0+256)+2),f
  4554     0447  0DB9               	rlf	(??___flmul^(0+256)+3),f
  4555     0448                     u6190:
  4556     0448  0B89               	decfsz	9,f
  4557     0449  2C44               	goto	u6195
  4558     044A  0836               	movf	??___flmul^(0+256),w
  4559     044B  07C2               	addwf	___flmul@prod^(0+256),f
  4560     044C  0837               	movf	(??___flmul+1)^(0+256),w
  4561     044D  3DC3               	addwfc	(___flmul@prod+1)^(0+256),f
  4562     044E  0838               	movf	(??___flmul+2)^(0+256),w
  4563     044F  3DC4               	addwfc	(___flmul@prod+2)^(0+256),f
  4564     0450  0839               	movf	(??___flmul+3)^(0+256),w
  4565     0451  3DC5               	addwfc	(___flmul@prod+3)^(0+256),f
  4566     0452                     l5045:
  4567     0452  083D               	movf	___flmul@grs^(0+256),w
  4568     0453  00B6               	movwf	??___flmul^(0+256)
  4569     0454  083E               	movf	(___flmul@grs+1)^(0+256),w
  4570     0455  00B7               	movwf	(??___flmul^(0+256)+1)
  4571     0456  083F               	movf	(___flmul@grs+2)^(0+256),w
  4572     0457  00B8               	movwf	(??___flmul^(0+256)+2)
  4573     0458  0840               	movf	(___flmul@grs+3)^(0+256),w
  4574     0459  00B9               	movwf	(??___flmul^(0+256)+3)
  4575     045A  3018               	movlw	24
  4576     045B                     u6205:
  4577     045B  36B9               	lsrf	(??___flmul^(0+256)+3),f
  4578     045C  0CB8               	rrf	(??___flmul^(0+256)+2),f
  4579     045D  0CB7               	rrf	(??___flmul^(0+256)+1),f
  4580     045E  0CB6               	rrf	??___flmul^(0+256),f
  4581     045F                     u6200:
  4582     045F  0B89               	decfsz	9,f
  4583     0460  2C5B               	goto	u6205
  4584     0461  0836               	movf	??___flmul^(0+256),w
  4585     0462  07C2               	addwf	___flmul@prod^(0+256),f
  4586     0463  0837               	movf	(??___flmul+1)^(0+256),w
  4587     0464  3DC3               	addwfc	(___flmul@prod+1)^(0+256),f
  4588     0465  0838               	movf	(??___flmul+2)^(0+256),w
  4589     0466  3DC4               	addwfc	(___flmul@prod+2)^(0+256),f
  4590     0467  0839               	movf	(??___flmul+3)^(0+256),w
  4591     0468  3DC5               	addwfc	(___flmul@prod+3)^(0+256),f
  4592     0469                     l5047:
  4593     0469  3008               	movlw	8
  4594     046A                     u6215:
  4595     046A  35BD               	lslf	___flmul@grs^(0+256),f
  4596     046B  0DBE               	rlf	(___flmul@grs+1)^(0+256),f
  4597     046C  0DBF               	rlf	(___flmul@grs+2)^(0+256),f
  4598     046D  0DC0               	rlf	(___flmul@grs+3)^(0+256),f
  4599     046E  0B89               	decfsz	9,f
  4600     046F  2C6A               	goto	u6215
  4601     0470                     l5049:
  4602     0470  0841               	movf	___flmul@bexp^(0+256),w
  4603     0471  073C               	addwf	___flmul@aexp^(0+256),w
  4604     0472  00B6               	movwf	??___flmul^(0+256)
  4605     0473  01B7               	clrf	(??___flmul^(0+256)+1)
  4606     0474  0DB7               	rlf	(??___flmul+1)^(0+256),f
  4607     0475  0836               	movf	??___flmul^(0+256),w
  4608     0476  3E82               	addlw	130
  4609     0477  00C6               	movwf	___flmul@temp^(0+256)
  4610     0478  30FF               	movlw	255
  4611     0479  3D37               	addwfc	(??___flmul+1)^(0+256),w
  4612     047A  00C7               	movwf	(___flmul@temp+1)^(0+256)
  4613     047B  2C93               	goto	l5061
  4614     047C                     l5051:
  4615     047C  3001               	movlw	1
  4616     047D                     u6225:
  4617     047D  35C2               	lslf	___flmul@prod^(0+256),f
  4618     047E  0DC3               	rlf	(___flmul@prod+1)^(0+256),f
  4619     047F  0DC4               	rlf	(___flmul@prod+2)^(0+256),f
  4620     0480  0DC5               	rlf	(___flmul@prod+3)^(0+256),f
  4621     0481  0B89               	decfsz	9,f
  4622     0482  2C7D               	goto	u6225
  4623     0483                     l5053:
  4624     0483  1FC0               	btfss	(___flmul@grs+3)^(0+256),7
  4625     0484  2C86               	goto	u6231
  4626     0485  2C87               	goto	u6230
  4627     0486                     u6231:
  4628     0486  2C88               	goto	l5057
  4629     0487                     u6230:
  4630     0487                     l5055:
  4631     0487  1442               	bsf	___flmul@prod^(0+256),0
  4632     0488                     l5057:
  4633     0488  3001               	movlw	1
  4634     0489                     u6245:
  4635     0489  35BD               	lslf	___flmul@grs^(0+256),f
  4636     048A  0DBE               	rlf	(___flmul@grs+1)^(0+256),f
  4637     048B  0DBF               	rlf	(___flmul@grs+2)^(0+256),f
  4638     048C  0DC0               	rlf	(___flmul@grs+3)^(0+256),f
  4639     048D  0B89               	decfsz	9,f
  4640     048E  2C89               	goto	u6245
  4641     048F                     l5059:
  4642     048F  30FF               	movlw	255
  4643     0490  07C6               	addwf	___flmul@temp^(0+256),f
  4644     0491  30FF               	movlw	255
  4645     0492  3DC7               	addwfc	(___flmul@temp+1)^(0+256),f
  4646     0493                     l5061:
  4647     0493  1FC4               	btfss	(___flmul@prod+2)^(0+256),7
  4648     0494  2C96               	goto	u6251
  4649     0495  2C97               	goto	u6250
  4650     0496                     u6251:
  4651     0496  2C7C               	goto	l5051
  4652     0497                     u6250:
  4653     0497                     l5063:
  4654     0497  01BC               	clrf	___flmul@aexp^(0+256)
  4655     0498                     l5065:
  4656     0498  1FC0               	btfss	(___flmul@grs+3)^(0+256),7
  4657     0499  2C9B               	goto	u6261
  4658     049A  2C9C               	goto	u6260
  4659     049B                     u6261:
  4660     049B  2CB8               	goto	l5073
  4661     049C                     u6260:
  4662     049C                     l5067:
  4663     049C  30FF               	movlw	255
  4664     049D  053D               	andwf	___flmul@grs^(0+256),w
  4665     049E  00B6               	movwf	??___flmul^(0+256)
  4666     049F  30FF               	movlw	255
  4667     04A0  053E               	andwf	(___flmul@grs+1)^(0+256),w
  4668     04A1  00B7               	movwf	(??___flmul^(0+256)+1)
  4669     04A2  30FF               	movlw	255
  4670     04A3  053F               	andwf	(___flmul@grs+2)^(0+256),w
  4671     04A4  00B8               	movwf	(??___flmul^(0+256)+2)
  4672     04A5  307F               	movlw	127
  4673     04A6  0540               	andwf	(___flmul@grs+3)^(0+256),w
  4674     04A7  00B9               	movwf	(??___flmul^(0+256)+3)
  4675     04A8  0839               	movf	(??___flmul+3)^(0+256),w
  4676     04A9  0438               	iorwf	(??___flmul+2)^(0+256),w
  4677     04AA  0437               	iorwf	(??___flmul+1)^(0+256),w
  4678     04AB  0436               	iorwf	??___flmul^(0+256),w
  4679     04AC  1903               	skipnz
  4680     04AD  2CAF               	goto	u6271
  4681     04AE  2CB0               	goto	u6270
  4682     04AF                     u6271:
  4683     04AF  2CB3               	goto	l1133
  4684     04B0                     u6270:
  4685     04B0                     l5069:
  4686     04B0  01BC               	clrf	___flmul@aexp^(0+256)
  4687     04B1  0ABC               	incf	___flmul@aexp^(0+256),f
  4688     04B2  2CB8               	goto	l5073
  4689     04B3                     l1133:
  4690     04B3  1C42               	btfss	___flmul@prod^(0+256),0
  4691     04B4  2CB6               	goto	u6281
  4692     04B5  2CB7               	goto	u6280
  4693     04B6                     u6281:
  4694     04B6  2CB8               	goto	l5073
  4695     04B7                     u6280:
  4696     04B7  2CB0               	goto	l5069
  4697     04B8                     l5073:
  4698     04B8  083C               	movf	___flmul@aexp^(0+256),w
  4699     04B9  1903               	btfsc	3,2
  4700     04BA  2CBC               	goto	u6291
  4701     04BB  2CBD               	goto	u6290
  4702     04BC                     u6291:
  4703     04BC  2CE5               	goto	l5083
  4704     04BD                     u6290:
  4705     04BD                     l5075:
  4706     04BD  3001               	movlw	1
  4707     04BE  07C2               	addwf	___flmul@prod^(0+256),f
  4708     04BF  3000               	movlw	0
  4709     04C0  3DC3               	addwfc	(___flmul@prod+1)^(0+256),f
  4710     04C1  3000               	movlw	0
  4711     04C2  3DC4               	addwfc	(___flmul@prod+2)^(0+256),f
  4712     04C3  3000               	movlw	0
  4713     04C4  3DC5               	addwfc	(___flmul@prod+3)^(0+256),f
  4714     04C5                     l5077:
  4715     04C5  1C45               	btfss	(___flmul@prod+3)^(0+256),0
  4716     04C6  2CC8               	goto	u6301
  4717     04C7  2CC9               	goto	u6300
  4718     04C8                     u6301:
  4719     04C8  2CE5               	goto	l5083
  4720     04C9                     u6300:
  4721     04C9                     l5079:
  4722     04C9  0842               	movf	___flmul@prod^(0+256),w
  4723     04CA  00B6               	movwf	??___flmul^(0+256)
  4724     04CB  0843               	movf	(___flmul@prod+1)^(0+256),w
  4725     04CC  00B7               	movwf	(??___flmul^(0+256)+1)
  4726     04CD  0844               	movf	(___flmul@prod+2)^(0+256),w
  4727     04CE  00B8               	movwf	(??___flmul^(0+256)+2)
  4728     04CF  0845               	movf	(___flmul@prod+3)^(0+256),w
  4729     04D0  00B9               	movwf	(??___flmul^(0+256)+3)
  4730     04D1  3001               	movlw	1
  4731     04D2  00BA               	movwf	(??___flmul+4)^(0+256)
  4732     04D3                     u6315:
  4733     04D3  37B9               	asrf	(??___flmul^(0+256)+3),f
  4734     04D4  0CB8               	rrf	(??___flmul^(0+256)+2),f
  4735     04D5  0CB7               	rrf	(??___flmul^(0+256)+1),f
  4736     04D6  0CB6               	rrf	??___flmul^(0+256),f
  4737     04D7                     u6310:
  4738     04D7  0BBA               	decfsz	(??___flmul+4)^(0+256),f
  4739     04D8  2CD3               	goto	u6315
  4740     04D9  0839               	movf	(??___flmul+3)^(0+256),w
  4741     04DA  00C5               	movwf	(___flmul@prod+3)^(0+256)
  4742     04DB  0838               	movf	(??___flmul+2)^(0+256),w
  4743     04DC  00C4               	movwf	(___flmul@prod+2)^(0+256)
  4744     04DD  0837               	movf	(??___flmul+1)^(0+256),w
  4745     04DE  00C3               	movwf	(___flmul@prod+1)^(0+256)
  4746     04DF  0836               	movf	??___flmul^(0+256),w
  4747     04E0  00C2               	movwf	___flmul@prod^(0+256)
  4748     04E1                     l5081:
  4749     04E1  3001               	movlw	1
  4750     04E2  07C6               	addwf	___flmul@temp^(0+256),f
  4751     04E3  3000               	movlw	0
  4752     04E4  3DC7               	addwfc	(___flmul@temp+1)^(0+256),f
  4753     04E5                     l5083:
  4754     04E5  0847               	movf	(___flmul@temp+1)^(0+256),w
  4755     04E6  3A80               	xorlw	128
  4756     04E7  00B6               	movwf	??___flmul^(0+256)
  4757     04E8  3080               	movlw	128
  4758     04E9  0236               	subwf	??___flmul^(0+256),w
  4759     04EA  1D03               	skipz
  4760     04EB  2CEE               	goto	u6325
  4761     04EC  30FF               	movlw	255
  4762     04ED  0246               	subwf	___flmul@temp^(0+256),w
  4763     04EE                     u6325:
  4764     04EE  1C03               	skipc
  4765     04EF  2CF1               	goto	u6321
  4766     04F0  2CF2               	goto	u6320
  4767     04F1                     u6321:
  4768     04F1  2CFC               	goto	l5087
  4769     04F2                     u6320:
  4770     04F2                     l5085:
  4771     04F2  307F               	movlw	127
  4772     04F3  0022               	movlb	2	; select bank2
  4773     04F4  00C5               	movwf	(___flmul@prod+3)^(0+256)
  4774     04F5  3080               	movlw	128
  4775     04F6  00C4               	movwf	(___flmul@prod+2)^(0+256)
  4776     04F7  3000               	movlw	0
  4777     04F8  00C3               	movwf	(___flmul@prod+1)^(0+256)
  4778     04F9  3000               	movlw	0
  4779     04FA  00C2               	movwf	___flmul@prod^(0+256)
  4780     04FB  2D27               	goto	l1139
  4781     04FC                     l5087:
  4782     04FC  0022               	movlb	2	; select bank2
  4783     04FD  0847               	movf	(___flmul@temp+1)^(0+256),w
  4784     04FE  3A80               	xorlw	128
  4785     04FF  00B6               	movwf	??___flmul^(0+256)
  4786     0500  3080               	movlw	128
  4787     0501  0236               	subwf	??___flmul^(0+256),w
  4788     0502  1D03               	skipz
  4789     0503  2D06               	goto	u6335
  4790     0504  3001               	movlw	1
  4791     0505  0246               	subwf	___flmul@temp^(0+256),w
  4792     0506                     u6335:
  4793     0506  1803               	skipnc
  4794     0507  2D09               	goto	u6331
  4795     0508  2D0A               	goto	u6330
  4796     0509                     u6331:
  4797     0509  2D15               	goto	l5093
  4798     050A                     u6330:
  4799     050A                     l5089:
  4800     050A  3000               	movlw	0
  4801     050B  0022               	movlb	2	; select bank2
  4802     050C  00C5               	movwf	(___flmul@prod+3)^(0+256)
  4803     050D  3000               	movlw	0
  4804     050E  00C4               	movwf	(___flmul@prod+2)^(0+256)
  4805     050F  3000               	movlw	0
  4806     0510  00C3               	movwf	(___flmul@prod+1)^(0+256)
  4807     0511  3000               	movlw	0
  4808     0512  00C2               	movwf	___flmul@prod^(0+256)
  4809     0513                     l5091:
  4810     0513  01BB               	clrf	___flmul@sign^(0+256)
  4811     0514  2D27               	goto	l1139
  4812     0515                     l5093:
  4813     0515  0022               	movlb	2	; select bank2
  4814     0516  0846               	movf	___flmul@temp^(0+256),w
  4815     0517  00C1               	movwf	___flmul@bexp^(0+256)
  4816     0518  30FF               	movlw	255
  4817     0519  05C2               	andwf	___flmul@prod^(0+256),f
  4818     051A  30FF               	movlw	255
  4819     051B  05C3               	andwf	(___flmul@prod+1)^(0+256),f
  4820     051C  307F               	movlw	127
  4821     051D  05C4               	andwf	(___flmul@prod+2)^(0+256),f
  4822     051E  3000               	movlw	0
  4823     051F  05C5               	andwf	(___flmul@prod+3)^(0+256),f
  4824     0520                     l5095:
  4825     0520  1C41               	btfss	___flmul@bexp^(0+256),0
  4826     0521  2D23               	goto	u6341
  4827     0522  2D24               	goto	u6340
  4828     0523                     u6341:
  4829     0523  2D25               	goto	l5099
  4830     0524                     u6340:
  4831     0524                     l5097:
  4832     0524  17C4               	bsf	(___flmul@prod^(0+256)+2),7
  4833     0525                     l5099:
  4834     0525  3641               	lsrf	___flmul@bexp^(0+256),w
  4835     0526  00C5               	movwf	(___flmul@prod^(0+256)+3)
  4836     0527                     l1139:
  4837     0527  083B               	movf	___flmul@sign^(0+256),w
  4838     0528  00B6               	movwf	??___flmul^(0+256)
  4839     0529  0836               	movf	??___flmul^(0+256),w
  4840     052A  04C5               	iorwf	(___flmul@prod^(0+256)+3),f
  4841     052B                     l5101:
  4842     052B  0845               	movf	(___flmul@prod+3)^(0+256),w
  4843     052C  00B1               	movwf	(?___flmul+3)^(0+256)
  4844     052D  0844               	movf	(___flmul@prod+2)^(0+256),w
  4845     052E  00B0               	movwf	(?___flmul+2)^(0+256)
  4846     052F  0843               	movf	(___flmul@prod+1)^(0+256),w
  4847     0530  00AF               	movwf	(?___flmul+1)^(0+256)
  4848     0531  0842               	movf	___flmul@prod^(0+256),w
  4849     0532  00AE               	movwf	?___flmul^(0+256)
  4850     0533                     l1127:
  4851     0533  0008               	return
  4852     0534                     __end_of___flmul:
  4853                           
  4854                           	psect	text10
  4855     1EBF                     __ptext10:	
  4856 ;; *************** function __Umul8_16 *****************
  4857 ;; Defined at:
  4858 ;;		line 4 in file "C:\Program Files\Microchip\xc8\v2.40\pic\sources\c99\common\Umul8_16.c"
  4859 ;; Parameters:    Size  Location     Type
  4860 ;;  multiplier      1    wreg     unsigned char 
  4861 ;;  multiplicand    1    0[BANK2 ] unsigned char 
  4862 ;; Auto vars:     Size  Location     Type
  4863 ;;  multiplier      1    8[BANK2 ] unsigned char 
  4864 ;;  word_mpld       2    6[BANK2 ] unsigned int 
  4865 ;;  product         2    4[BANK2 ] unsigned int 
  4866 ;; Return value:  Size  Location     Type
  4867 ;;                  2    0[BANK2 ] unsigned int 
  4868 ;; Registers used:
  4869 ;;		wreg, status,2, status,0
  4870 ;; Tracked objects:
  4871 ;;		On entry : 0/0
  4872 ;;		On exit  : 0/0
  4873 ;;		Unchanged: 0/0
  4874 ;; Data sizes:     COMMON   BANK0   BANK1   BANK2   BANK3   BANK4   BANK5   BANK6   BANK7   BANK8   BANK9  BANK10  BANK1
      +1  BANK12
  4875 ;;      Params:         0       0       0       2       0       0       0       0       0       0       0       0       
      +0       0
  4876 ;;      Locals:         0       0       0       5       0       0       0       0       0       0       0       0       
      +0       0
  4877 ;;      Temps:          0       0       0       2       0       0       0       0       0       0       0       0       
      +0       0
  4878 ;;      Totals:         0       0       0       9       0       0       0       0       0       0       0       0       
      +0       0
  4879 ;;Total ram usage:        9 bytes
  4880 ;; Hardware stack levels used: 1
  4881 ;; Hardware stack levels required when called: 5
  4882 ;; This function calls:
  4883 ;;		Nothing
  4884 ;; This function is called by:
  4885 ;;		___flmul
  4886 ;; This function uses a non-reentrant model
  4887 ;;
  4888                           
  4889     1EBF                     __Umul8_16:	
  4890                           ;psect for function __Umul8_16
  4891                           
  4892                           
  4893                           ;incstack = 0
  4894                           ; Regs used in __Umul8_16: [wreg+status,2+status,0]
  4895                           ;__Umul8_16@multiplier stored from wreg
  4896     1EBF  0022               	movlb	2	; select bank2
  4897     1EC0  00A8               	movwf	__Umul8_16@multiplier^(0+256)
  4898     1EC1                     l4933:
  4899     1EC1  01A4               	clrf	__Umul8_16@product^(0+256)
  4900     1EC2  01A5               	clrf	(__Umul8_16@product+1)^(0+256)
  4901     1EC3                     l4935:
  4902     1EC3  0820               	movf	__Umul8_16@multiplicand^(0+256),w
  4903     1EC4  00A2               	movwf	??__Umul8_16^(0+256)
  4904     1EC5  01A3               	clrf	(??__Umul8_16^(0+256)+1)
  4905     1EC6  0822               	movf	??__Umul8_16^(0+256),w
  4906     1EC7  00A6               	movwf	__Umul8_16@word_mpld^(0+256)
  4907     1EC8  0823               	movf	(??__Umul8_16+1)^(0+256),w
  4908     1EC9  00A7               	movwf	(__Umul8_16@word_mpld+1)^(0+256)
  4909     1ECA                     l4937:
  4910     1ECA  1C28               	btfss	__Umul8_16@multiplier^(0+256),0
  4911     1ECB  2ECD               	goto	u6061
  4912     1ECC  2ECE               	goto	u6060
  4913     1ECD                     u6061:
  4914     1ECD  2ED2               	goto	l1146
  4915     1ECE                     u6060:
  4916     1ECE                     l4939:
  4917     1ECE  0826               	movf	__Umul8_16@word_mpld^(0+256),w
  4918     1ECF  07A4               	addwf	__Umul8_16@product^(0+256),f
  4919     1ED0  0827               	movf	(__Umul8_16@word_mpld+1)^(0+256),w
  4920     1ED1  3DA5               	addwfc	(__Umul8_16@product+1)^(0+256),f
  4921     1ED2                     l1146:
  4922     1ED2  3001               	movlw	1
  4923     1ED3                     u6075:
  4924     1ED3  35A6               	lslf	__Umul8_16@word_mpld^(0+256),f
  4925     1ED4  0DA7               	rlf	(__Umul8_16@word_mpld+1)^(0+256),f
  4926     1ED5  0B89               	decfsz	9,f
  4927     1ED6  2ED3               	goto	u6075
  4928     1ED7  1003               	clrc
  4929     1ED8  0CA8               	rrf	__Umul8_16@multiplier^(0+256),f
  4930     1ED9                     l4941:
  4931     1ED9  0828               	movf	__Umul8_16@multiplier^(0+256),w
  4932     1EDA  1D03               	btfss	3,2
  4933     1EDB  2EDD               	goto	u6081
  4934     1EDC  2EDE               	goto	u6080
  4935     1EDD                     u6081:
  4936     1EDD  2ECA               	goto	l4937
  4937     1EDE                     u6080:
  4938     1EDE                     l4943:
  4939     1EDE  0825               	movf	(__Umul8_16@product+1)^(0+256),w
  4940     1EDF  00A1               	movwf	(?__Umul8_16+1)^(0+256)
  4941     1EE0  0824               	movf	__Umul8_16@product^(0+256),w
  4942     1EE1  00A0               	movwf	?__Umul8_16^(0+256)
  4943     1EE2                     l1148:
  4944     1EE2  0008               	return
  4945     1EE3                     __end_of__Umul8_16:
  4946                           
  4947                           	psect	text11
  4948     088B                     __ptext11:	
  4949 ;; *************** function ___fldiv *****************
  4950 ;; Defined at:
  4951 ;;		line 8 in file "C:\Program Files\Microchip\xc8\v2.40\pic\sources\c99\common\sprcdiv.c"
  4952 ;; Parameters:    Size  Location     Type
  4953 ;;  a               4   40[BANK2 ] unsigned int 
  4954 ;;  b               4   44[BANK2 ] unsigned int 
  4955 ;; Auto vars:     Size  Location     Type
  4956 ;;  grs             4   60[BANK2 ] unsigned long 
  4957 ;;  rem             4   53[BANK2 ] unsigned long 
  4958 ;;  new_exp         2   58[BANK2 ] int 
  4959 ;;  aexp            1   65[BANK2 ] unsigned char 
  4960 ;;  bexp            1   64[BANK2 ] unsigned char 
  4961 ;;  sign            1   57[BANK2 ] unsigned char 
  4962 ;; Return value:  Size  Location     Type
  4963 ;;                  4   40[BANK2 ] unsigned char 
  4964 ;; Registers used:
  4965 ;;		wreg, status,2, status,0
  4966 ;; Tracked objects:
  4967 ;;		On entry : 0/0
  4968 ;;		On exit  : 0/0
  4969 ;;		Unchanged: 0/0
  4970 ;; Data sizes:     COMMON   BANK0   BANK1   BANK2   BANK3   BANK4   BANK5   BANK6   BANK7   BANK8   BANK9  BANK10  BANK1
      +1  BANK12
  4971 ;;      Params:         0       0       0       8       0       0       0       0       0       0       0       0       
      +0       0
  4972 ;;      Locals:         0       0       0      13       0       0       0       0       0       0       0       0       
      +0       0
  4973 ;;      Temps:          0       0       0       5       0       0       0       0       0       0       0       0       
      +0       0
  4974 ;;      Totals:         0       0       0      26       0       0       0       0       0       0       0       0       
      +0       0
  4975 ;;Total ram usage:       26 bytes
  4976 ;; Hardware stack levels used: 1
  4977 ;; Hardware stack levels required when called: 5
  4978 ;; This function calls:
  4979 ;;		Nothing
  4980 ;; This function is called by:
  4981 ;;		_cc_cv_mode
  4982 ;;		_scaling
  4983 ;; This function uses a non-reentrant model
  4984 ;;
  4985                           
  4986     088B                     ___fldiv:	
  4987                           ;psect for function ___fldiv
  4988                           
  4989     088B                     l3903:	
  4990                           ;incstack = 0
  4991                           ; Regs used in ___fldiv: [wreg+status,2+status,0]
  4992                           
  4993     088B  0022               	movlb	2	; select bank2
  4994     088C  084F               	movf	(___fldiv@b^(0+256)+3),w
  4995     088D  3980               	andlw	128
  4996     088E  00D9               	movwf	___fldiv@sign^(0+256)
  4997     088F                     l3905:
  4998     088F  354F               	lslf	(___fldiv@b^(0+256)+3),w
  4999     0890  00E0               	movwf	___fldiv@bexp^(0+256)
  5000     0891                     l3907:
  5001     0891  1FCE               	btfss	(___fldiv@b^(0+256)+2),7
  5002     0892  2894               	goto	u4651
  5003     0893  2895               	goto	u4650
  5004     0894                     u4651:
  5005     0894  2896               	goto	l3911
  5006     0895                     u4650:
  5007     0895                     l3909:
  5008     0895  1460               	bsf	___fldiv@bexp^(0+256),0
  5009     0896                     l3911:
  5010     0896  0860               	movf	___fldiv@bexp^(0+256),w
  5011     0897  1903               	btfsc	3,2
  5012     0898  289A               	goto	u4661
  5013     0899  289B               	goto	u4660
  5014     089A                     u4661:
  5015     089A  28AB               	goto	l3921
  5016     089B                     u4660:
  5017     089B                     l3913:
  5018     089B  0A60               	incf	___fldiv@bexp^(0+256),w
  5019     089C  1D03               	btfss	3,2
  5020     089D  289F               	goto	u4671
  5021     089E  28A0               	goto	u4670
  5022     089F                     u4671:
  5023     089F  28A8               	goto	l3917
  5024     08A0                     u4670:
  5025     08A0                     l3915:
  5026     08A0  3000               	movlw	0
  5027     08A1  00CF               	movwf	(___fldiv@b+3)^(0+256)
  5028     08A2  3000               	movlw	0
  5029     08A3  00CE               	movwf	(___fldiv@b+2)^(0+256)
  5030     08A4  3000               	movlw	0
  5031     08A5  00CD               	movwf	(___fldiv@b+1)^(0+256)
  5032     08A6  3000               	movlw	0
  5033     08A7  00CC               	movwf	___fldiv@b^(0+256)
  5034     08A8                     l3917:
  5035     08A8  17CE               	bsf	(___fldiv@b^(0+256)+2),7
  5036     08A9                     l3919:
  5037     08A9  01CF               	clrf	(___fldiv@b^(0+256)+3)
  5038     08AA  28B3               	goto	l3923
  5039     08AB                     l3921:
  5040     08AB  3000               	movlw	0
  5041     08AC  00CF               	movwf	(___fldiv@b+3)^(0+256)
  5042     08AD  3000               	movlw	0
  5043     08AE  00CE               	movwf	(___fldiv@b+2)^(0+256)
  5044     08AF  3000               	movlw	0
  5045     08B0  00CD               	movwf	(___fldiv@b+1)^(0+256)
  5046     08B1  3000               	movlw	0
  5047     08B2  00CC               	movwf	___fldiv@b^(0+256)
  5048     08B3                     l3923:
  5049     08B3  084B               	movf	(___fldiv@a^(0+256)+3),w
  5050     08B4  3980               	andlw	128
  5051     08B5  00D0               	movwf	??___fldiv^(0+256)
  5052     08B6  0850               	movf	??___fldiv^(0+256),w
  5053     08B7  06D9               	xorwf	___fldiv@sign^(0+256),f
  5054     08B8                     l3925:
  5055     08B8  354B               	lslf	(___fldiv@a^(0+256)+3),w
  5056     08B9  00E1               	movwf	___fldiv@aexp^(0+256)
  5057     08BA                     l3927:
  5058     08BA  1FCA               	btfss	(___fldiv@a^(0+256)+2),7
  5059     08BB  28BD               	goto	u4681
  5060     08BC  28BE               	goto	u4680
  5061     08BD                     u4681:
  5062     08BD  28BF               	goto	l3931
  5063     08BE                     u4680:
  5064     08BE                     l3929:
  5065     08BE  1461               	bsf	___fldiv@aexp^(0+256),0
  5066     08BF                     l3931:
  5067     08BF  0861               	movf	___fldiv@aexp^(0+256),w
  5068     08C0  1903               	btfsc	3,2
  5069     08C1  28C3               	goto	u4691
  5070     08C2  28C4               	goto	u4690
  5071     08C3                     u4691:
  5072     08C3  28D4               	goto	l3941
  5073     08C4                     u4690:
  5074     08C4                     l3933:
  5075     08C4  0A61               	incf	___fldiv@aexp^(0+256),w
  5076     08C5  1D03               	btfss	3,2
  5077     08C6  28C8               	goto	u4701
  5078     08C7  28C9               	goto	u4700
  5079     08C8                     u4701:
  5080     08C8  28D1               	goto	l3937
  5081     08C9                     u4700:
  5082     08C9                     l3935:
  5083     08C9  3000               	movlw	0
  5084     08CA  00CB               	movwf	(___fldiv@a+3)^(0+256)
  5085     08CB  3000               	movlw	0
  5086     08CC  00CA               	movwf	(___fldiv@a+2)^(0+256)
  5087     08CD  3000               	movlw	0
  5088     08CE  00C9               	movwf	(___fldiv@a+1)^(0+256)
  5089     08CF  3000               	movlw	0
  5090     08D0  00C8               	movwf	___fldiv@a^(0+256)
  5091     08D1                     l3937:
  5092     08D1  17CA               	bsf	(___fldiv@a^(0+256)+2),7
  5093     08D2                     l3939:
  5094     08D2  01CB               	clrf	(___fldiv@a^(0+256)+3)
  5095     08D3  28DC               	goto	l1087
  5096     08D4                     l3941:
  5097     08D4  3000               	movlw	0
  5098     08D5  00CB               	movwf	(___fldiv@a+3)^(0+256)
  5099     08D6  3000               	movlw	0
  5100     08D7  00CA               	movwf	(___fldiv@a+2)^(0+256)
  5101     08D8  3000               	movlw	0
  5102     08D9  00C9               	movwf	(___fldiv@a+1)^(0+256)
  5103     08DA  3000               	movlw	0
  5104     08DB  00C8               	movwf	___fldiv@a^(0+256)
  5105     08DC                     l1087:
  5106     08DC  084B               	movf	(___fldiv@a+3)^(0+256),w
  5107     08DD  044A               	iorwf	(___fldiv@a+2)^(0+256),w
  5108     08DE  0449               	iorwf	(___fldiv@a+1)^(0+256),w
  5109     08DF  0448               	iorwf	___fldiv@a^(0+256),w
  5110     08E0  1D03               	skipz
  5111     08E1  28E3               	goto	u4711
  5112     08E2  28E4               	goto	u4710
  5113     08E3                     u4711:
  5114     08E3  28FD               	goto	l3951
  5115     08E4                     u4710:
  5116     08E4                     l3943:
  5117     08E4  3000               	movlw	0
  5118     08E5  00CF               	movwf	(___fldiv@b+3)^(0+256)
  5119     08E6  3000               	movlw	0
  5120     08E7  00CE               	movwf	(___fldiv@b+2)^(0+256)
  5121     08E8  3000               	movlw	0
  5122     08E9  00CD               	movwf	(___fldiv@b+1)^(0+256)
  5123     08EA  3000               	movlw	0
  5124     08EB  00CC               	movwf	___fldiv@b^(0+256)
  5125     08EC  3080               	movlw	128
  5126     08ED  04CE               	iorwf	(___fldiv@b^(0+256)+2),f
  5127     08EE  307F               	movlw	127
  5128     08EF  04CF               	iorwf	((___fldiv@b+1)^(0+256)+2),f
  5129     08F0                     l3945:
  5130     08F0  0859               	movf	___fldiv@sign^(0+256),w
  5131     08F1  00D0               	movwf	??___fldiv^(0+256)
  5132     08F2  0850               	movf	??___fldiv^(0+256),w
  5133     08F3  04CF               	iorwf	(___fldiv@b^(0+256)+3),f
  5134     08F4                     l3947:
  5135     08F4  084F               	movf	(___fldiv@b+3)^(0+256),w
  5136     08F5  00CB               	movwf	(?___fldiv+3)^(0+256)
  5137     08F6  084E               	movf	(___fldiv@b+2)^(0+256),w
  5138     08F7  00CA               	movwf	(?___fldiv+2)^(0+256)
  5139     08F8  084D               	movf	(___fldiv@b+1)^(0+256),w
  5140     08F9  00C9               	movwf	(?___fldiv+1)^(0+256)
  5141     08FA  084C               	movf	___fldiv@b^(0+256),w
  5142     08FB  00C8               	movwf	?___fldiv^(0+256)
  5143     08FC  2A34               	goto	l1089
  5144     08FD                     l3951:
  5145     08FD  0860               	movf	___fldiv@bexp^(0+256),w
  5146     08FE  1D03               	btfss	3,2
  5147     08FF  2901               	goto	u4721
  5148     0900  2902               	goto	u4720
  5149     0901                     u4721:
  5150     0901  290B               	goto	l3957
  5151     0902                     u4720:
  5152     0902                     l3953:
  5153     0902  3000               	movlw	0
  5154     0903  00CB               	movwf	(?___fldiv+3)^(0+256)
  5155     0904  3000               	movlw	0
  5156     0905  00CA               	movwf	(?___fldiv+2)^(0+256)
  5157     0906  3000               	movlw	0
  5158     0907  00C9               	movwf	(?___fldiv+1)^(0+256)
  5159     0908  3000               	movlw	0
  5160     0909  00C8               	movwf	?___fldiv^(0+256)
  5161     090A  2A34               	goto	l1089
  5162     090B                     l3957:
  5163     090B  0860               	movf	___fldiv@bexp^(0+256),w
  5164     090C  00D0               	movwf	??___fldiv^(0+256)
  5165     090D  01D1               	clrf	(??___fldiv^(0+256)+1)
  5166     090E  0851               	movf	(??___fldiv+1)^(0+256),w
  5167     090F  00D3               	movwf	((??___fldiv+2)^(0+256)+1)
  5168     0910  0861               	movf	___fldiv@aexp^(0+256),w
  5169     0911  0250               	subwf	??___fldiv^(0+256),w
  5170     0912  00D2               	movwf	(??___fldiv+2)^(0+256)
  5171     0913  1C03               	skipc
  5172     0914  03D3               	decf	((??___fldiv+2)^(0+256)+1),f
  5173     0915  0852               	movf	(??___fldiv+2)^(0+256),w
  5174     0916  3E7F               	addlw	127
  5175     0917  00DA               	movwf	___fldiv@new_exp^(0+256)
  5176     0918  3000               	movlw	0
  5177     0919  3D53               	addwfc	(??___fldiv+3)^(0+256),w
  5178     091A  00DB               	movwf	(___fldiv@new_exp+1)^(0+256)
  5179     091B                     l3959:
  5180     091B  084F               	movf	(___fldiv@b+3)^(0+256),w
  5181     091C  00D8               	movwf	(___fldiv@rem+3)^(0+256)
  5182     091D  084E               	movf	(___fldiv@b+2)^(0+256),w
  5183     091E  00D7               	movwf	(___fldiv@rem+2)^(0+256)
  5184     091F  084D               	movf	(___fldiv@b+1)^(0+256),w
  5185     0920  00D6               	movwf	(___fldiv@rem+1)^(0+256)
  5186     0921  084C               	movf	___fldiv@b^(0+256),w
  5187     0922  00D5               	movwf	___fldiv@rem^(0+256)
  5188     0923                     l3961:
  5189     0923  3000               	movlw	0
  5190     0924  00CF               	movwf	(___fldiv@b+3)^(0+256)
  5191     0925  3000               	movlw	0
  5192     0926  00CE               	movwf	(___fldiv@b+2)^(0+256)
  5193     0927  3000               	movlw	0
  5194     0928  00CD               	movwf	(___fldiv@b+1)^(0+256)
  5195     0929  3000               	movlw	0
  5196     092A  00CC               	movwf	___fldiv@b^(0+256)
  5197     092B                     l3963:
  5198     092B  3000               	movlw	0
  5199     092C  00DF               	movwf	(___fldiv@grs+3)^(0+256)
  5200     092D  3000               	movlw	0
  5201     092E  00DE               	movwf	(___fldiv@grs+2)^(0+256)
  5202     092F  3000               	movlw	0
  5203     0930  00DD               	movwf	(___fldiv@grs+1)^(0+256)
  5204     0931  3000               	movlw	0
  5205     0932  00DC               	movwf	___fldiv@grs^(0+256)
  5206     0933                     l3965:
  5207     0933  01E1               	clrf	___fldiv@aexp^(0+256)
  5208     0934  2973               	goto	l3985
  5209     0935                     l3967:
  5210     0935  0861               	movf	___fldiv@aexp^(0+256),w
  5211     0936  1903               	btfsc	3,2
  5212     0937  2939               	goto	u4731
  5213     0938  293A               	goto	u4730
  5214     0939                     u4731:
  5215     0939  2954               	goto	l3977
  5216     093A                     u4730:
  5217     093A                     l3969:
  5218     093A  3001               	movlw	1
  5219     093B                     u4745:
  5220     093B  35D5               	lslf	___fldiv@rem^(0+256),f
  5221     093C  0DD6               	rlf	(___fldiv@rem+1)^(0+256),f
  5222     093D  0DD7               	rlf	(___fldiv@rem+2)^(0+256),f
  5223     093E  0DD8               	rlf	(___fldiv@rem+3)^(0+256),f
  5224     093F  0B89               	decfsz	9,f
  5225     0940  293B               	goto	u4745
  5226     0941  3001               	movlw	1
  5227     0942                     u4755:
  5228     0942  35CC               	lslf	___fldiv@b^(0+256),f
  5229     0943  0DCD               	rlf	(___fldiv@b+1)^(0+256),f
  5230     0944  0DCE               	rlf	(___fldiv@b+2)^(0+256),f
  5231     0945  0DCF               	rlf	(___fldiv@b+3)^(0+256),f
  5232     0946  0B89               	decfsz	9,f
  5233     0947  2942               	goto	u4755
  5234     0948                     l3971:
  5235     0948  1FDF               	btfss	(___fldiv@grs+3)^(0+256),7
  5236     0949  294B               	goto	u4761
  5237     094A  294C               	goto	u4760
  5238     094B                     u4761:
  5239     094B  294D               	goto	l3975
  5240     094C                     u4760:
  5241     094C                     l3973:
  5242     094C  144C               	bsf	___fldiv@b^(0+256),0
  5243     094D                     l3975:
  5244     094D  3001               	movlw	1
  5245     094E                     u4775:
  5246     094E  35DC               	lslf	___fldiv@grs^(0+256),f
  5247     094F  0DDD               	rlf	(___fldiv@grs+1)^(0+256),f
  5248     0950  0DDE               	rlf	(___fldiv@grs+2)^(0+256),f
  5249     0951  0DDF               	rlf	(___fldiv@grs+3)^(0+256),f
  5250     0952  0B89               	decfsz	9,f
  5251     0953  294E               	goto	u4775
  5252     0954                     l3977:
  5253     0954  084B               	movf	(___fldiv@a+3)^(0+256),w
  5254     0955  0258               	subwf	(___fldiv@rem+3)^(0+256),w
  5255     0956  1D03               	skipz
  5256     0957  2962               	goto	u4785
  5257     0958  084A               	movf	(___fldiv@a+2)^(0+256),w
  5258     0959  0257               	subwf	(___fldiv@rem+2)^(0+256),w
  5259     095A  1D03               	skipz
  5260     095B  2962               	goto	u4785
  5261     095C  0849               	movf	(___fldiv@a+1)^(0+256),w
  5262     095D  0256               	subwf	(___fldiv@rem+1)^(0+256),w
  5263     095E  1D03               	skipz
  5264     095F  2962               	goto	u4785
  5265     0960  0848               	movf	___fldiv@a^(0+256),w
  5266     0961  0255               	subwf	___fldiv@rem^(0+256),w
  5267     0962                     u4785:
  5268     0962  1C03               	skipc
  5269     0963  2965               	goto	u4781
  5270     0964  2966               	goto	u4780
  5271     0965                     u4781:
  5272     0965  296F               	goto	l3983
  5273     0966                     u4780:
  5274     0966                     l3979:
  5275     0966  175F               	bsf	(___fldiv@grs^(0+256)+3),6
  5276     0967                     l3981:
  5277     0967  0848               	movf	___fldiv@a^(0+256),w
  5278     0968  02D5               	subwf	___fldiv@rem^(0+256),f
  5279     0969  0849               	movf	(___fldiv@a+1)^(0+256),w
  5280     096A  3BD6               	subwfb	(___fldiv@rem+1)^(0+256),f
  5281     096B  084A               	movf	(___fldiv@a+2)^(0+256),w
  5282     096C  3BD7               	subwfb	(___fldiv@rem+2)^(0+256),f
  5283     096D  084B               	movf	(___fldiv@a+3)^(0+256),w
  5284     096E  3BD8               	subwfb	(___fldiv@rem+3)^(0+256),f
  5285     096F                     l3983:
  5286     096F  3001               	movlw	1
  5287     0970  00D0               	movwf	??___fldiv^(0+256)
  5288     0971  0850               	movf	??___fldiv^(0+256),w
  5289     0972  07E1               	addwf	___fldiv@aexp^(0+256),f
  5290     0973                     l3985:
  5291     0973  301A               	movlw	26
  5292     0974  0261               	subwf	___fldiv@aexp^(0+256),w
  5293     0975  1C03               	skipc
  5294     0976  2978               	goto	u4791
  5295     0977  2979               	goto	u4790
  5296     0978                     u4791:
  5297     0978  2935               	goto	l3967
  5298     0979                     u4790:
  5299     0979                     l3987:
  5300     0979  0858               	movf	(___fldiv@rem+3)^(0+256),w
  5301     097A  0457               	iorwf	(___fldiv@rem+2)^(0+256),w
  5302     097B  0456               	iorwf	(___fldiv@rem+1)^(0+256),w
  5303     097C  0455               	iorwf	___fldiv@rem^(0+256),w
  5304     097D  1903               	skipnz
  5305     097E  2980               	goto	u4801
  5306     097F  2981               	goto	u4800
  5307     0980                     u4801:
  5308     0980  299A               	goto	l4001
  5309     0981                     u4800:
  5310     0981                     l3989:
  5311     0981  145C               	bsf	___fldiv@grs^(0+256),0
  5312     0982  299A               	goto	l4001
  5313     0983                     l3991:
  5314     0983  3001               	movlw	1
  5315     0984                     u4815:
  5316     0984  35CC               	lslf	___fldiv@b^(0+256),f
  5317     0985  0DCD               	rlf	(___fldiv@b+1)^(0+256),f
  5318     0986  0DCE               	rlf	(___fldiv@b+2)^(0+256),f
  5319     0987  0DCF               	rlf	(___fldiv@b+3)^(0+256),f
  5320     0988  0B89               	decfsz	9,f
  5321     0989  2984               	goto	u4815
  5322     098A                     l3993:
  5323     098A  1FDF               	btfss	(___fldiv@grs+3)^(0+256),7
  5324     098B  298D               	goto	u4821
  5325     098C  298E               	goto	u4820
  5326     098D                     u4821:
  5327     098D  298F               	goto	l3997
  5328     098E                     u4820:
  5329     098E                     l3995:
  5330     098E  144C               	bsf	___fldiv@b^(0+256),0
  5331     098F                     l3997:
  5332     098F  3001               	movlw	1
  5333     0990                     u4835:
  5334     0990  35DC               	lslf	___fldiv@grs^(0+256),f
  5335     0991  0DDD               	rlf	(___fldiv@grs+1)^(0+256),f
  5336     0992  0DDE               	rlf	(___fldiv@grs+2)^(0+256),f
  5337     0993  0DDF               	rlf	(___fldiv@grs+3)^(0+256),f
  5338     0994  0B89               	decfsz	9,f
  5339     0995  2990               	goto	u4835
  5340     0996                     l3999:
  5341     0996  30FF               	movlw	255
  5342     0997  07DA               	addwf	___fldiv@new_exp^(0+256),f
  5343     0998  30FF               	movlw	255
  5344     0999  3DDB               	addwfc	(___fldiv@new_exp+1)^(0+256),f
  5345     099A                     l4001:
  5346     099A  1FCE               	btfss	(___fldiv@b+2)^(0+256),7
  5347     099B  299D               	goto	u4841
  5348     099C  299E               	goto	u4840
  5349     099D                     u4841:
  5350     099D  2983               	goto	l3991
  5351     099E                     u4840:
  5352     099E                     l4003:
  5353     099E  01E1               	clrf	___fldiv@aexp^(0+256)
  5354     099F                     l4005:
  5355     099F  1FDF               	btfss	(___fldiv@grs+3)^(0+256),7
  5356     09A0  29A2               	goto	u4851
  5357     09A1  29A3               	goto	u4850
  5358     09A2                     u4851:
  5359     09A2  29BF               	goto	l4013
  5360     09A3                     u4850:
  5361     09A3                     l4007:
  5362     09A3  30FF               	movlw	255
  5363     09A4  055C               	andwf	___fldiv@grs^(0+256),w
  5364     09A5  00D0               	movwf	??___fldiv^(0+256)
  5365     09A6  30FF               	movlw	255
  5366     09A7  055D               	andwf	(___fldiv@grs+1)^(0+256),w
  5367     09A8  00D1               	movwf	(??___fldiv^(0+256)+1)
  5368     09A9  30FF               	movlw	255
  5369     09AA  055E               	andwf	(___fldiv@grs+2)^(0+256),w
  5370     09AB  00D2               	movwf	(??___fldiv^(0+256)+2)
  5371     09AC  307F               	movlw	127
  5372     09AD  055F               	andwf	(___fldiv@grs+3)^(0+256),w
  5373     09AE  00D3               	movwf	(??___fldiv^(0+256)+3)
  5374     09AF  0853               	movf	(??___fldiv+3)^(0+256),w
  5375     09B0  0452               	iorwf	(??___fldiv+2)^(0+256),w
  5376     09B1  0451               	iorwf	(??___fldiv+1)^(0+256),w
  5377     09B2  0450               	iorwf	??___fldiv^(0+256),w
  5378     09B3  1903               	skipnz
  5379     09B4  29B6               	goto	u4861
  5380     09B5  29B7               	goto	u4860
  5381     09B6                     u4861:
  5382     09B6  29BA               	goto	l1103
  5383     09B7                     u4860:
  5384     09B7                     l4009:
  5385     09B7  01E1               	clrf	___fldiv@aexp^(0+256)
  5386     09B8  0AE1               	incf	___fldiv@aexp^(0+256),f
  5387     09B9  29BF               	goto	l4013
  5388     09BA                     l1103:
  5389     09BA  1C4C               	btfss	___fldiv@b^(0+256),0
  5390     09BB  29BD               	goto	u4871
  5391     09BC  29BE               	goto	u4870
  5392     09BD                     u4871:
  5393     09BD  29BF               	goto	l4013
  5394     09BE                     u4870:
  5395     09BE  29B7               	goto	l4009
  5396     09BF                     l4013:
  5397     09BF  0861               	movf	___fldiv@aexp^(0+256),w
  5398     09C0  1903               	btfsc	3,2
  5399     09C1  29C3               	goto	u4881
  5400     09C2  29C4               	goto	u4880
  5401     09C3                     u4881:
  5402     09C3  29EC               	goto	l4023
  5403     09C4                     u4880:
  5404     09C4                     l4015:
  5405     09C4  3001               	movlw	1
  5406     09C5  07CC               	addwf	___fldiv@b^(0+256),f
  5407     09C6  3000               	movlw	0
  5408     09C7  3DCD               	addwfc	(___fldiv@b+1)^(0+256),f
  5409     09C8  3000               	movlw	0
  5410     09C9  3DCE               	addwfc	(___fldiv@b+2)^(0+256),f
  5411     09CA  3000               	movlw	0
  5412     09CB  3DCF               	addwfc	(___fldiv@b+3)^(0+256),f
  5413     09CC                     l4017:
  5414     09CC  1C4F               	btfss	(___fldiv@b+3)^(0+256),0
  5415     09CD  29CF               	goto	u4891
  5416     09CE  29D0               	goto	u4890
  5417     09CF                     u4891:
  5418     09CF  29EC               	goto	l4023
  5419     09D0                     u4890:
  5420     09D0                     l4019:
  5421     09D0  084C               	movf	___fldiv@b^(0+256),w
  5422     09D1  00D0               	movwf	??___fldiv^(0+256)
  5423     09D2  084D               	movf	(___fldiv@b+1)^(0+256),w
  5424     09D3  00D1               	movwf	(??___fldiv^(0+256)+1)
  5425     09D4  084E               	movf	(___fldiv@b+2)^(0+256),w
  5426     09D5  00D2               	movwf	(??___fldiv^(0+256)+2)
  5427     09D6  084F               	movf	(___fldiv@b+3)^(0+256),w
  5428     09D7  00D3               	movwf	(??___fldiv^(0+256)+3)
  5429     09D8  3001               	movlw	1
  5430     09D9  00D4               	movwf	(??___fldiv+4)^(0+256)
  5431     09DA                     u4905:
  5432     09DA  37D3               	asrf	(??___fldiv^(0+256)+3),f
  5433     09DB  0CD2               	rrf	(??___fldiv^(0+256)+2),f
  5434     09DC  0CD1               	rrf	(??___fldiv^(0+256)+1),f
  5435     09DD  0CD0               	rrf	??___fldiv^(0+256),f
  5436     09DE                     u4900:
  5437     09DE  0BD4               	decfsz	(??___fldiv+4)^(0+256),f
  5438     09DF  29DA               	goto	u4905
  5439     09E0  0853               	movf	(??___fldiv+3)^(0+256),w
  5440     09E1  00CF               	movwf	(___fldiv@b+3)^(0+256)
  5441     09E2  0852               	movf	(??___fldiv+2)^(0+256),w
  5442     09E3  00CE               	movwf	(___fldiv@b+2)^(0+256)
  5443     09E4  0851               	movf	(??___fldiv+1)^(0+256),w
  5444     09E5  00CD               	movwf	(___fldiv@b+1)^(0+256)
  5445     09E6  0850               	movf	??___fldiv^(0+256),w
  5446     09E7  00CC               	movwf	___fldiv@b^(0+256)
  5447     09E8                     l4021:
  5448     09E8  3001               	movlw	1
  5449     09E9  07DA               	addwf	___fldiv@new_exp^(0+256),f
  5450     09EA  3000               	movlw	0
  5451     09EB  3DDB               	addwfc	(___fldiv@new_exp+1)^(0+256),f
  5452     09EC                     l4023:
  5453     09EC  085B               	movf	(___fldiv@new_exp+1)^(0+256),w
  5454     09ED  3A80               	xorlw	128
  5455     09EE  00D0               	movwf	??___fldiv^(0+256)
  5456     09EF  3080               	movlw	128
  5457     09F0  0250               	subwf	??___fldiv^(0+256),w
  5458     09F1  1D03               	skipz
  5459     09F2  29F5               	goto	u4915
  5460     09F3  30FF               	movlw	255
  5461     09F4  025A               	subwf	___fldiv@new_exp^(0+256),w
  5462     09F5                     u4915:
  5463     09F5  1C03               	skipc
  5464     09F6  29F8               	goto	u4911
  5465     09F7  29F9               	goto	u4910
  5466     09F8                     u4911:
  5467     09F8  2A06               	goto	l1108
  5468     09F9                     u4910:
  5469     09F9                     l4025:
  5470     09F9  30FF               	movlw	255
  5471     09FA  0022               	movlb	2	; select bank2
  5472     09FB  00DA               	movwf	___fldiv@new_exp^(0+256)
  5473     09FC  3000               	movlw	0
  5474     09FD  00DB               	movwf	(___fldiv@new_exp^(0+256)+1)
  5475     09FE  3000               	movlw	0
  5476     09FF  00CF               	movwf	(___fldiv@b+3)^(0+256)
  5477     0A00  3000               	movlw	0
  5478     0A01  00CE               	movwf	(___fldiv@b+2)^(0+256)
  5479     0A02  3000               	movlw	0
  5480     0A03  00CD               	movwf	(___fldiv@b+1)^(0+256)
  5481     0A04  3000               	movlw	0
  5482     0A05  00CC               	movwf	___fldiv@b^(0+256)
  5483     0A06                     l1108:
  5484     0A06  0022               	movlb	2	; select bank2
  5485     0A07  085B               	movf	(___fldiv@new_exp+1)^(0+256),w
  5486     0A08  3A80               	xorlw	128
  5487     0A09  00D0               	movwf	??___fldiv^(0+256)
  5488     0A0A  3080               	movlw	128
  5489     0A0B  0250               	subwf	??___fldiv^(0+256),w
  5490     0A0C  1D03               	skipz
  5491     0A0D  2A10               	goto	u4925
  5492     0A0E  3001               	movlw	1
  5493     0A0F  025A               	subwf	___fldiv@new_exp^(0+256),w
  5494     0A10                     u4925:
  5495     0A10  1803               	skipnc
  5496     0A11  2A13               	goto	u4921
  5497     0A12  2A14               	goto	u4920
  5498     0A13                     u4921:
  5499     0A13  2A20               	goto	l1109
  5500     0A14                     u4920:
  5501     0A14                     l4027:
  5502     0A14  0022               	movlb	2	; select bank2
  5503     0A15  01DA               	clrf	___fldiv@new_exp^(0+256)
  5504     0A16  01DB               	clrf	(___fldiv@new_exp+1)^(0+256)
  5505     0A17                     l4029:
  5506     0A17  3000               	movlw	0
  5507     0A18  00CF               	movwf	(___fldiv@b+3)^(0+256)
  5508     0A19  3000               	movlw	0
  5509     0A1A  00CE               	movwf	(___fldiv@b+2)^(0+256)
  5510     0A1B  3000               	movlw	0
  5511     0A1C  00CD               	movwf	(___fldiv@b+1)^(0+256)
  5512     0A1D  3000               	movlw	0
  5513     0A1E  00CC               	movwf	___fldiv@b^(0+256)
  5514     0A1F                     l4031:
  5515     0A1F  01D9               	clrf	___fldiv@sign^(0+256)
  5516     0A20                     l1109:
  5517     0A20  0022               	movlb	2	; select bank2
  5518     0A21  085A               	movf	___fldiv@new_exp^(0+256),w
  5519     0A22  00E0               	movwf	___fldiv@bexp^(0+256)
  5520     0A23                     l4033:
  5521     0A23  1C60               	btfss	___fldiv@bexp^(0+256),0
  5522     0A24  2A26               	goto	u4931
  5523     0A25  2A27               	goto	u4930
  5524     0A26                     u4931:
  5525     0A26  2A29               	goto	l4037
  5526     0A27                     u4930:
  5527     0A27                     l4035:
  5528     0A27  17CE               	bsf	(___fldiv@b^(0+256)+2),7
  5529     0A28  2A2D               	goto	l1111
  5530     0A29                     l4037:
  5531     0A29  307F               	movlw	127
  5532     0A2A  00D0               	movwf	??___fldiv^(0+256)
  5533     0A2B  0850               	movf	??___fldiv^(0+256),w
  5534     0A2C  05CE               	andwf	(___fldiv@b^(0+256)+2),f
  5535     0A2D                     l1111:
  5536     0A2D  3660               	lsrf	___fldiv@bexp^(0+256),w
  5537     0A2E  00CF               	movwf	(___fldiv@b^(0+256)+3)
  5538     0A2F  0859               	movf	___fldiv@sign^(0+256),w
  5539     0A30  00D0               	movwf	??___fldiv^(0+256)
  5540     0A31  0850               	movf	??___fldiv^(0+256),w
  5541     0A32  04CF               	iorwf	(___fldiv@b^(0+256)+3),f
  5542     0A33  28F4               	goto	l3947
  5543     0A34                     l1089:
  5544     0A34  0008               	return
  5545     0A35                     __end_of___fldiv:
  5546                           
  5547                           	psect	text12
  5548     00BC                     __ptext12:	
  5549 ;; *************** function ___fladd *****************
  5550 ;; Defined at:
  5551 ;;		line 10 in file "C:\Program Files\Microchip\xc8\v2.40\pic\sources\c99\common\sprcadd.c"
  5552 ;; Parameters:    Size  Location     Type
  5553 ;;  b               4   66[BANK2 ] unsigned char 
  5554 ;;  a               4   70[BANK2 ] unsigned char 
  5555 ;; Auto vars:     Size  Location     Type
  5556 ;;  grs             1   77[BANK2 ] unsigned char 
  5557 ;;  bexp            1   76[BANK2 ] unsigned char 
  5558 ;;  aexp            1   75[BANK2 ] unsigned char 
  5559 ;;  signs           1   74[BANK2 ] unsigned char 
  5560 ;; Return value:  Size  Location     Type
  5561 ;;                  4   66[BANK2 ] unsigned char 
  5562 ;; Registers used:
  5563 ;;		wreg, status,2, status,0
  5564 ;; Tracked objects:
  5565 ;;		On entry : 0/0
  5566 ;;		On exit  : 0/0
  5567 ;;		Unchanged: 0/0
  5568 ;; Data sizes:     COMMON   BANK0   BANK1   BANK2   BANK3   BANK4   BANK5   BANK6   BANK7   BANK8   BANK9  BANK10  BANK1
      +1  BANK12
  5569 ;;      Params:         0       0       0       8       0       0       0       0       0       0       0       0       
      +0       0
  5570 ;;      Locals:         0       0       0       4       0       0       0       0       0       0       0       0       
      +0       0
  5571 ;;      Temps:          0       0       0       0       8       0       0       0       0       0       0       0       
      +0       0
  5572 ;;      Totals:         0       0       0      12       8       0       0       0       0       0       0       0       
      +0       0
  5573 ;;Total ram usage:       20 bytes
  5574 ;; Hardware stack levels used: 1
  5575 ;; Hardware stack levels required when called: 5
  5576 ;; This function calls:
  5577 ;;		Nothing
  5578 ;; This function is called by:
  5579 ;;		_cc_cv_mode
  5580 ;;		_scaling
  5581 ;; This function uses a non-reentrant model
  5582 ;;
  5583                           
  5584     00BC                     ___fladd:	
  5585                           ;psect for function ___fladd
  5586                           
  5587     00BC                     l3709:	
  5588                           ;incstack = 0
  5589                           ; Regs used in ___fladd: [wreg+status,2+status,0]
  5590                           
  5591     00BC  0022               	movlb	2	; select bank2
  5592     00BD  0865               	movf	(___fladd@b^(0+256)+3),w
  5593     00BE  3980               	andlw	128
  5594     00BF  00EA               	movwf	___fladd@signs^(0+256)
  5595     00C0                     l3711:
  5596     00C0  3565               	lslf	(___fladd@b^(0+256)+3),w
  5597     00C1  00EC               	movwf	___fladd@bexp^(0+256)
  5598     00C2                     l3713:
  5599     00C2  1FE4               	btfss	(___fladd@b^(0+256)+2),7
  5600     00C3  28C5               	goto	u4221
  5601     00C4  28C6               	goto	u4220
  5602     00C5                     u4221:
  5603     00C5  28C7               	goto	l3717
  5604     00C6                     u4220:
  5605     00C6                     l3715:
  5606     00C6  146C               	bsf	___fladd@bexp^(0+256),0
  5607     00C7                     l3717:
  5608     00C7  086C               	movf	___fladd@bexp^(0+256),w
  5609     00C8  1903               	btfsc	3,2
  5610     00C9  28CB               	goto	u4231
  5611     00CA  28CC               	goto	u4230
  5612     00CB                     u4231:
  5613     00CB  28DC               	goto	l3727
  5614     00CC                     u4230:
  5615     00CC                     l3719:
  5616     00CC  0A6C               	incf	___fladd@bexp^(0+256),w
  5617     00CD  1D03               	btfss	3,2
  5618     00CE  28D0               	goto	u4241
  5619     00CF  28D1               	goto	u4240
  5620     00D0                     u4241:
  5621     00D0  28D9               	goto	l3723
  5622     00D1                     u4240:
  5623     00D1                     l3721:
  5624     00D1  3000               	movlw	0
  5625     00D2  00E5               	movwf	(___fladd@b+3)^(0+256)
  5626     00D3  3000               	movlw	0
  5627     00D4  00E4               	movwf	(___fladd@b+2)^(0+256)
  5628     00D5  3000               	movlw	0
  5629     00D6  00E3               	movwf	(___fladd@b+1)^(0+256)
  5630     00D7  3000               	movlw	0
  5631     00D8  00E2               	movwf	___fladd@b^(0+256)
  5632     00D9                     l3723:
  5633     00D9  17E4               	bsf	(___fladd@b^(0+256)+2),7
  5634     00DA                     l3725:
  5635     00DA  01E5               	clrf	(___fladd@b^(0+256)+3)
  5636     00DB  28E4               	goto	l3729
  5637     00DC                     l3727:
  5638     00DC  3000               	movlw	0
  5639     00DD  00E5               	movwf	(___fladd@b+3)^(0+256)
  5640     00DE  3000               	movlw	0
  5641     00DF  00E4               	movwf	(___fladd@b+2)^(0+256)
  5642     00E0  3000               	movlw	0
  5643     00E1  00E3               	movwf	(___fladd@b+1)^(0+256)
  5644     00E2  3000               	movlw	0
  5645     00E3  00E2               	movwf	___fladd@b^(0+256)
  5646     00E4                     l3729:
  5647     00E4  0869               	movf	(___fladd@a^(0+256)+3),w
  5648     00E5  3980               	andlw	128
  5649     00E6  00EB               	movwf	___fladd@aexp^(0+256)
  5650     00E7                     l3731:
  5651     00E7  086B               	movf	___fladd@aexp^(0+256),w
  5652     00E8  066A               	xorwf	___fladd@signs^(0+256),w
  5653     00E9  1903               	skipnz
  5654     00EA  28EC               	goto	u4251
  5655     00EB  28ED               	goto	u4250
  5656     00EC                     u4251:
  5657     00EC  28EE               	goto	l3735
  5658     00ED                     u4250:
  5659     00ED                     l3733:
  5660     00ED  176A               	bsf	___fladd@signs^(0+256),6
  5661     00EE                     l3735:
  5662     00EE  3569               	lslf	(___fladd@a^(0+256)+3),w
  5663     00EF  00EB               	movwf	___fladd@aexp^(0+256)
  5664     00F0                     l3737:
  5665     00F0  1FE8               	btfss	(___fladd@a^(0+256)+2),7
  5666     00F1  28F3               	goto	u4261
  5667     00F2  28F4               	goto	u4260
  5668     00F3                     u4261:
  5669     00F3  28F5               	goto	l3741
  5670     00F4                     u4260:
  5671     00F4                     l3739:
  5672     00F4  146B               	bsf	___fladd@aexp^(0+256),0
  5673     00F5                     l3741:
  5674     00F5  086B               	movf	___fladd@aexp^(0+256),w
  5675     00F6  1903               	btfsc	3,2
  5676     00F7  28F9               	goto	u4271
  5677     00F8  28FA               	goto	u4270
  5678     00F9                     u4271:
  5679     00F9  290A               	goto	l3751
  5680     00FA                     u4270:
  5681     00FA                     l3743:
  5682     00FA  0A6B               	incf	___fladd@aexp^(0+256),w
  5683     00FB  1D03               	btfss	3,2
  5684     00FC  28FE               	goto	u4281
  5685     00FD  28FF               	goto	u4280
  5686     00FE                     u4281:
  5687     00FE  2907               	goto	l3747
  5688     00FF                     u4280:
  5689     00FF                     l3745:
  5690     00FF  3000               	movlw	0
  5691     0100  00E9               	movwf	(___fladd@a+3)^(0+256)
  5692     0101  3000               	movlw	0
  5693     0102  00E8               	movwf	(___fladd@a+2)^(0+256)
  5694     0103  3000               	movlw	0
  5695     0104  00E7               	movwf	(___fladd@a+1)^(0+256)
  5696     0105  3000               	movlw	0
  5697     0106  00E6               	movwf	___fladd@a^(0+256)
  5698     0107                     l3747:
  5699     0107  17E8               	bsf	(___fladd@a^(0+256)+2),7
  5700     0108                     l3749:
  5701     0108  01E9               	clrf	(___fladd@a^(0+256)+3)
  5702     0109  2912               	goto	l1031
  5703     010A                     l3751:
  5704     010A  3000               	movlw	0
  5705     010B  00E9               	movwf	(___fladd@a+3)^(0+256)
  5706     010C  3000               	movlw	0
  5707     010D  00E8               	movwf	(___fladd@a+2)^(0+256)
  5708     010E  3000               	movlw	0
  5709     010F  00E7               	movwf	(___fladd@a+1)^(0+256)
  5710     0110  3000               	movlw	0
  5711     0111  00E6               	movwf	___fladd@a^(0+256)
  5712     0112                     l1031:
  5713     0112  086C               	movf	___fladd@bexp^(0+256),w
  5714     0113  026B               	subwf	___fladd@aexp^(0+256),w
  5715     0114  1803               	skipnc
  5716     0115  2917               	goto	u4291
  5717     0116  2918               	goto	u4290
  5718     0117                     u4291:
  5719     0117  2940               	goto	l3787
  5720     0118                     u4290:
  5721     0118                     l3753:
  5722     0118  1F6A               	btfss	___fladd@signs^(0+256),6
  5723     0119  291B               	goto	u4301
  5724     011A  291C               	goto	u4300
  5725     011B                     u4301:
  5726     011B  2922               	goto	l3757
  5727     011C                     u4300:
  5728     011C                     l3755:
  5729     011C  3080               	movlw	128
  5730     011D  0023               	movlb	3	; select bank3
  5731     011E  00C1               	movwf	??___fladd^(0+384)
  5732     011F  0841               	movf	??___fladd^(0+384),w
  5733     0120  0022               	movlb	2	; select bank2
  5734     0121  06EA               	xorwf	___fladd@signs^(0+256),f
  5735     0122                     l3757:
  5736     0122  086C               	movf	___fladd@bexp^(0+256),w
  5737     0123  00ED               	movwf	___fladd@grs^(0+256)
  5738     0124                     l3759:
  5739     0124  086B               	movf	___fladd@aexp^(0+256),w
  5740     0125  00EC               	movwf	___fladd@bexp^(0+256)
  5741     0126                     l3761:
  5742     0126  086D               	movf	___fladd@grs^(0+256),w
  5743     0127  00EB               	movwf	___fladd@aexp^(0+256)
  5744     0128                     l3763:
  5745     0128  0862               	movf	___fladd@b^(0+256),w
  5746     0129  00ED               	movwf	___fladd@grs^(0+256)
  5747     012A                     l3765:
  5748     012A  0866               	movf	___fladd@a^(0+256),w
  5749     012B  00E2               	movwf	___fladd@b^(0+256)
  5750     012C                     l3767:
  5751     012C  086D               	movf	___fladd@grs^(0+256),w
  5752     012D  00E6               	movwf	___fladd@a^(0+256)
  5753     012E                     l3769:
  5754     012E  0863               	movf	(___fladd@b^(0+256)+1),w
  5755     012F  00ED               	movwf	___fladd@grs^(0+256)
  5756     0130                     l3771:
  5757     0130  0867               	movf	(___fladd@a^(0+256)+1),w
  5758     0131  00E3               	movwf	(___fladd@b^(0+256)+1)
  5759     0132                     l3773:
  5760     0132  086D               	movf	___fladd@grs^(0+256),w
  5761     0133  00E7               	movwf	(___fladd@a^(0+256)+1)
  5762     0134                     l3775:
  5763     0134  0864               	movf	(___fladd@b^(0+256)+2),w
  5764     0135  00ED               	movwf	___fladd@grs^(0+256)
  5765     0136                     l3777:
  5766     0136  0868               	movf	(___fladd@a^(0+256)+2),w
  5767     0137  00E4               	movwf	(___fladd@b^(0+256)+2)
  5768     0138                     l3779:
  5769     0138  086D               	movf	___fladd@grs^(0+256),w
  5770     0139  00E8               	movwf	(___fladd@a^(0+256)+2)
  5771     013A                     l3781:
  5772     013A  0865               	movf	(___fladd@b^(0+256)+3),w
  5773     013B  00ED               	movwf	___fladd@grs^(0+256)
  5774     013C                     l3783:
  5775     013C  0869               	movf	(___fladd@a^(0+256)+3),w
  5776     013D  00E5               	movwf	(___fladd@b^(0+256)+3)
  5777     013E                     l3785:
  5778     013E  086D               	movf	___fladd@grs^(0+256),w
  5779     013F  00E9               	movwf	(___fladd@a^(0+256)+3)
  5780     0140                     l3787:
  5781     0140  01ED               	clrf	___fladd@grs^(0+256)
  5782     0141                     l3789:
  5783     0141  086B               	movf	___fladd@aexp^(0+256),w
  5784     0142  0023               	movlb	3	; select bank3
  5785     0143  00C1               	movwf	??___fladd^(0+384)
  5786     0144  01C2               	clrf	(??___fladd^(0+384)+1)
  5787     0145  0842               	movf	(??___fladd+1)^(0+384),w
  5788     0146  00C4               	movwf	((??___fladd+2)^(0+384)+1)
  5789     0147  0022               	movlb	2	; select bank2
  5790     0148  086C               	movf	___fladd@bexp^(0+256),w
  5791     0149  0023               	movlb	3	; select bank3
  5792     014A  0241               	subwf	??___fladd^(0+384),w
  5793     014B  00C3               	movwf	(??___fladd+2)^(0+384)
  5794     014C  1C03               	skipc
  5795     014D  03C4               	decf	((??___fladd+2)^(0+384)+1),f
  5796     014E  0844               	movf	(??___fladd+3)^(0+384),w
  5797     014F  3A80               	xorlw	128
  5798     0150  00C5               	movwf	(??___fladd+4)^(0+384)
  5799     0151  3080               	movlw	128
  5800     0152  0245               	subwf	(??___fladd+4)^(0+384),w
  5801     0153  1D03               	skipz
  5802     0154  2957               	goto	u4315
  5803     0155  301A               	movlw	26
  5804     0156  0243               	subwf	(??___fladd+2)^(0+384),w
  5805     0157                     u4315:
  5806     0157  1C03               	skipc
  5807     0158  295A               	goto	u4311
  5808     0159  295B               	goto	u4310
  5809     015A                     u4311:
  5810     015A  2991               	goto	l3805
  5811     015B                     u4310:
  5812     015B                     l3791:
  5813     015B  0022               	movlb	2	; select bank2
  5814     015C  0865               	movf	(___fladd@b+3)^(0+256),w
  5815     015D  0464               	iorwf	(___fladd@b+2)^(0+256),w
  5816     015E  0463               	iorwf	(___fladd@b+1)^(0+256),w
  5817     015F  0462               	iorwf	___fladd@b^(0+256),w
  5818     0160  1D03               	skipz
  5819     0161  2963               	goto	u4321
  5820     0162  2965               	goto	u4320
  5821     0163                     u4321:
  5822     0163  3001               	movlw	1
  5823     0164  2966               	goto	u4330
  5824     0165                     u4320:
  5825     0165  3000               	movlw	0
  5826     0166                     u4330:
  5827     0166  00ED               	movwf	___fladd@grs^(0+256)
  5828     0167  3000               	movlw	0
  5829     0168  00E5               	movwf	(___fladd@b+3)^(0+256)
  5830     0169  3000               	movlw	0
  5831     016A  00E4               	movwf	(___fladd@b+2)^(0+256)
  5832     016B  3000               	movlw	0
  5833     016C  00E3               	movwf	(___fladd@b+1)^(0+256)
  5834     016D  3000               	movlw	0
  5835     016E  00E2               	movwf	___fladd@b^(0+256)
  5836     016F  086B               	movf	___fladd@aexp^(0+256),w
  5837     0170  00EC               	movwf	___fladd@bexp^(0+256)
  5838     0171  2998               	goto	l1035
  5839     0172                     l1037:
  5840     0172  1C6D               	btfss	___fladd@grs^(0+256),0
  5841     0173  2975               	goto	u4341
  5842     0174  2976               	goto	u4340
  5843     0175                     u4341:
  5844     0175  297A               	goto	l3795
  5845     0176                     u4340:
  5846     0176                     l3793:
  5847     0176  366D               	lsrf	___fladd@grs^(0+256),w
  5848     0177  3801               	iorlw	1
  5849     0178  00ED               	movwf	___fladd@grs^(0+256)
  5850     0179  297C               	goto	l3797
  5851     017A                     l3795:
  5852     017A  1003               	clrc
  5853     017B  0CED               	rrf	___fladd@grs^(0+256),f
  5854     017C                     l3797:
  5855     017C  1C62               	btfss	___fladd@b^(0+256),0
  5856     017D  297F               	goto	u4351
  5857     017E  2980               	goto	u4350
  5858     017F                     u4351:
  5859     017F  2981               	goto	l3801
  5860     0180                     u4350:
  5861     0180                     l3799:
  5862     0180  17ED               	bsf	___fladd@grs^(0+256),7
  5863     0181                     l3801:
  5864     0181  3001               	movlw	1
  5865     0182  0023               	movlb	3	; select bank3
  5866     0183  00C1               	movwf	??___fladd^(0+384)
  5867     0184                     u4365:
  5868     0184  0022               	movlb	2	; select bank2
  5869     0185  37E5               	asrf	(___fladd@b+3)^(0+256),f
  5870     0186  0CE4               	rrf	(___fladd@b+2)^(0+256),f
  5871     0187  0CE3               	rrf	(___fladd@b+1)^(0+256),f
  5872     0188  0CE2               	rrf	___fladd@b^(0+256),f
  5873     0189  0023               	movlb	3	; select bank3
  5874     018A  0BC1               	decfsz	(??___fladd^(0+384))& (0+127),f
  5875     018B  2984               	goto	u4365
  5876     018C                     l3803:
  5877     018C  3001               	movlw	1
  5878     018D  00C1               	movwf	??___fladd^(0+384)
  5879     018E  0841               	movf	??___fladd^(0+384),w
  5880     018F  0022               	movlb	2	; select bank2
  5881     0190  07EC               	addwf	___fladd@bexp^(0+256),f
  5882     0191                     l3805:
  5883     0191  0022               	movlb	2	; select bank2
  5884     0192  086B               	movf	___fladd@aexp^(0+256),w
  5885     0193  026C               	subwf	___fladd@bexp^(0+256),w
  5886     0194  1C03               	skipc
  5887     0195  2997               	goto	u4371
  5888     0196  2998               	goto	u4370
  5889     0197                     u4371:
  5890     0197  2972               	goto	l1037
  5891     0198                     u4370:
  5892     0198                     l1035:
  5893     0198  1B6A               	btfsc	___fladd@signs^(0+256),6
  5894     0199  299B               	goto	u4381
  5895     019A  299C               	goto	u4380
  5896     019B                     u4381:
  5897     019B  29D6               	goto	l3831
  5898     019C                     u4380:
  5899     019C                     l3807:
  5900     019C  086C               	movf	___fladd@bexp^(0+256),w
  5901     019D  1D03               	btfss	3,2
  5902     019E  29A0               	goto	u4391
  5903     019F  29A1               	goto	u4390
  5904     01A0                     u4391:
  5905     01A0  29AA               	goto	l3813
  5906     01A1                     u4390:
  5907     01A1                     l3809:
  5908     01A1  3000               	movlw	0
  5909     01A2  00E5               	movwf	(?___fladd+3)^(0+256)
  5910     01A3  3000               	movlw	0
  5911     01A4  00E4               	movwf	(?___fladd+2)^(0+256)
  5912     01A5  3000               	movlw	0
  5913     01A6  00E3               	movwf	(?___fladd+1)^(0+256)
  5914     01A7  3000               	movlw	0
  5915     01A8  00E2               	movwf	?___fladd^(0+256)
  5916     01A9  2AF8               	goto	l1044
  5917     01AA                     l3813:
  5918     01AA  0866               	movf	___fladd@a^(0+256),w
  5919     01AB  07E2               	addwf	___fladd@b^(0+256),f
  5920     01AC  0867               	movf	(___fladd@a+1)^(0+256),w
  5921     01AD  3DE3               	addwfc	(___fladd@b+1)^(0+256),f
  5922     01AE  0868               	movf	(___fladd@a+2)^(0+256),w
  5923     01AF  3DE4               	addwfc	(___fladd@b+2)^(0+256),f
  5924     01B0  0869               	movf	(___fladd@a+3)^(0+256),w
  5925     01B1  3DE5               	addwfc	(___fladd@b+3)^(0+256),f
  5926     01B2                     l3815:
  5927     01B2  1C65               	btfss	(___fladd@b+3)^(0+256),0
  5928     01B3  29B5               	goto	u4401
  5929     01B4  29B6               	goto	u4400
  5930     01B5                     u4401:
  5931     01B5  2A78               	goto	l3865
  5932     01B6                     u4400:
  5933     01B6                     l3817:
  5934     01B6  1C6D               	btfss	___fladd@grs^(0+256),0
  5935     01B7  29B9               	goto	u4411
  5936     01B8  29BA               	goto	u4410
  5937     01B9                     u4411:
  5938     01B9  29BE               	goto	l3821
  5939     01BA                     u4410:
  5940     01BA                     l3819:
  5941     01BA  366D               	lsrf	___fladd@grs^(0+256),w
  5942     01BB  3801               	iorlw	1
  5943     01BC  00ED               	movwf	___fladd@grs^(0+256)
  5944     01BD  29C0               	goto	l3823
  5945     01BE                     l3821:
  5946     01BE  1003               	clrc
  5947     01BF  0CED               	rrf	___fladd@grs^(0+256),f
  5948     01C0                     l3823:
  5949     01C0  1C62               	btfss	___fladd@b^(0+256),0
  5950     01C1  29C3               	goto	u4421
  5951     01C2  29C4               	goto	u4420
  5952     01C3                     u4421:
  5953     01C3  29C5               	goto	l3827
  5954     01C4                     u4420:
  5955     01C4                     l3825:
  5956     01C4  17ED               	bsf	___fladd@grs^(0+256),7
  5957     01C5                     l3827:
  5958     01C5  3001               	movlw	1
  5959     01C6  0023               	movlb	3	; select bank3
  5960     01C7  00C1               	movwf	??___fladd^(0+384)
  5961     01C8                     u4435:
  5962     01C8  0022               	movlb	2	; select bank2
  5963     01C9  37E5               	asrf	(___fladd@b+3)^(0+256),f
  5964     01CA  0CE4               	rrf	(___fladd@b+2)^(0+256),f
  5965     01CB  0CE3               	rrf	(___fladd@b+1)^(0+256),f
  5966     01CC  0CE2               	rrf	___fladd@b^(0+256),f
  5967     01CD  0023               	movlb	3	; select bank3
  5968     01CE  0BC1               	decfsz	(??___fladd^(0+384))& (0+127),f
  5969     01CF  29C8               	goto	u4435
  5970     01D0                     l3829:
  5971     01D0  3001               	movlw	1
  5972     01D1  00C1               	movwf	??___fladd^(0+384)
  5973     01D2  0841               	movf	??___fladd^(0+384),w
  5974     01D3  0022               	movlb	2	; select bank2
  5975     01D4  07EC               	addwf	___fladd@bexp^(0+256),f
  5976     01D5  2A78               	goto	l3865
  5977     01D6                     l3831:
  5978     01D6  0865               	movf	(___fladd@b+3)^(0+256),w
  5979     01D7  3A80               	xorlw	128
  5980     01D8  0023               	movlb	3	; select bank3
  5981     01D9  00C1               	movwf	??___fladd^(0+384)
  5982     01DA  0022               	movlb	2	; select bank2
  5983     01DB  0869               	movf	(___fladd@a+3)^(0+256),w
  5984     01DC  3A80               	xorlw	128
  5985     01DD  0023               	movlb	3	; select bank3
  5986     01DE  0241               	subwf	??___fladd^(0+384),w
  5987     01DF  0022               	movlb	2	; select bank2
  5988     01E0  1D03               	skipz
  5989     01E1  29EC               	goto	u4443
  5990     01E2  0868               	movf	(___fladd@a+2)^(0+256),w
  5991     01E3  0264               	subwf	(___fladd@b+2)^(0+256),w
  5992     01E4  1D03               	skipz
  5993     01E5  29EC               	goto	u4443
  5994     01E6  0867               	movf	(___fladd@a+1)^(0+256),w
  5995     01E7  0263               	subwf	(___fladd@b+1)^(0+256),w
  5996     01E8  1D03               	skipz
  5997     01E9  29EC               	goto	u4443
  5998     01EA  0866               	movf	___fladd@a^(0+256),w
  5999     01EB  0262               	subwf	___fladd@b^(0+256),w
  6000     01EC                     u4443:
  6001     01EC  1803               	skipnc
  6002     01ED  29EF               	goto	u4441
  6003     01EE  29F0               	goto	u4440
  6004     01EF                     u4441:
  6005     01EF  2A3A               	goto	l3841
  6006     01F0                     u4440:
  6007     01F0                     l3833:
  6008     01F0  30FF               	movlw	255
  6009     01F1  0023               	movlb	3	; select bank3
  6010     01F2  00C1               	movwf	??___fladd^(0+384)
  6011     01F3  30FF               	movlw	255
  6012     01F4  00C2               	movwf	(??___fladd^(0+384)+1)
  6013     01F5  30FF               	movlw	255
  6014     01F6  00C3               	movwf	(??___fladd^(0+384)+2)
  6015     01F7  30FF               	movlw	255
  6016     01F8  00C4               	movwf	(??___fladd^(0+384)+3)
  6017     01F9  0022               	movlb	2	; select bank2
  6018     01FA  0862               	movf	___fladd@b^(0+256),w
  6019     01FB  0266               	subwf	___fladd@a^(0+256),w
  6020     01FC  0023               	movlb	3	; select bank3
  6021     01FD  00C5               	movwf	(??___fladd+4)^(0+384)
  6022     01FE  0022               	movlb	2	; select bank2
  6023     01FF  0863               	movf	(___fladd@b+1)^(0+256),w
  6024     0200  3B67               	subwfb	(___fladd@a+1)^(0+256),w
  6025     0201  0023               	movlb	3	; select bank3
  6026     0202  00C6               	movwf	((??___fladd+4)^(0+384)+1)
  6027     0203  0022               	movlb	2	; select bank2
  6028     0204  0864               	movf	(___fladd@b+2)^(0+256),w
  6029     0205  3B68               	subwfb	(___fladd@a+2)^(0+256),w
  6030     0206  0023               	movlb	3	; select bank3
  6031     0207  00C7               	movwf	((??___fladd+4)^(0+384)+2)
  6032     0208  0022               	movlb	2	; select bank2
  6033     0209  0865               	movf	(___fladd@b+3)^(0+256),w
  6034     020A  3B69               	subwfb	(___fladd@a+3)^(0+256),w
  6035     020B  0023               	movlb	3	; select bank3
  6036     020C  00C8               	movwf	((??___fladd+4)^(0+384)+3)
  6037     020D  0845               	movf	(??___fladd+4)^(0+384),w
  6038     020E  07C1               	addwf	??___fladd^(0+384),f
  6039     020F  0846               	movf	(??___fladd+5)^(0+384),w
  6040     0210  3DC2               	addwfc	(??___fladd^(0+384)+1),f
  6041     0211  0847               	movf	(??___fladd+6)^(0+384),w
  6042     0212  3DC3               	addwfc	(??___fladd^(0+384)+2),f
  6043     0213  0848               	movf	(??___fladd+7)^(0+384),w
  6044     0214  3DC4               	addwfc	(??___fladd^(0+384)+3),f
  6045     0215  0844               	movf	(??___fladd+3)^(0+384),w
  6046     0216  0022               	movlb	2	; select bank2
  6047     0217  00E5               	movwf	(___fladd@b+3)^(0+256)
  6048     0218  0023               	movlb	3	; select bank3
  6049     0219  0843               	movf	(??___fladd+2)^(0+384),w
  6050     021A  0022               	movlb	2	; select bank2
  6051     021B  00E4               	movwf	(___fladd@b+2)^(0+256)
  6052     021C  0023               	movlb	3	; select bank3
  6053     021D  0842               	movf	(??___fladd+1)^(0+384),w
  6054     021E  0022               	movlb	2	; select bank2
  6055     021F  00E3               	movwf	(___fladd@b+1)^(0+256)
  6056     0220  0023               	movlb	3	; select bank3
  6057     0221  0841               	movf	??___fladd^(0+384),w
  6058     0222  0022               	movlb	2	; select bank2
  6059     0223  00E2               	movwf	___fladd@b^(0+256)
  6060     0224                     l3835:
  6061     0224  3080               	movlw	128
  6062     0225  0023               	movlb	3	; select bank3
  6063     0226  00C1               	movwf	??___fladd^(0+384)
  6064     0227  0841               	movf	??___fladd^(0+384),w
  6065     0228  0022               	movlb	2	; select bank2
  6066     0229  06EA               	xorwf	___fladd@signs^(0+256),f
  6067     022A  09ED               	comf	___fladd@grs^(0+256),f
  6068     022B  0AED               	incf	___fladd@grs^(0+256),f
  6069     022C                     l3837:
  6070     022C  086D               	movf	___fladd@grs^(0+256),w
  6071     022D  1D03               	btfss	3,2
  6072     022E  2A30               	goto	u4451
  6073     022F  2A31               	goto	u4450
  6074     0230                     u4451:
  6075     0230  2A42               	goto	l1052
  6076     0231                     u4450:
  6077     0231                     l3839:
  6078     0231  3001               	movlw	1
  6079     0232  07E2               	addwf	___fladd@b^(0+256),f
  6080     0233  3000               	movlw	0
  6081     0234  3DE3               	addwfc	(___fladd@b+1)^(0+256),f
  6082     0235  3000               	movlw	0
  6083     0236  3DE4               	addwfc	(___fladd@b+2)^(0+256),f
  6084     0237  3000               	movlw	0
  6085     0238  3DE5               	addwfc	(___fladd@b+3)^(0+256),f
  6086     0239  2A42               	goto	l1052
  6087     023A                     l3841:
  6088     023A  0866               	movf	___fladd@a^(0+256),w
  6089     023B  02E2               	subwf	___fladd@b^(0+256),f
  6090     023C  0867               	movf	(___fladd@a+1)^(0+256),w
  6091     023D  3BE3               	subwfb	(___fladd@b+1)^(0+256),f
  6092     023E  0868               	movf	(___fladd@a+2)^(0+256),w
  6093     023F  3BE4               	subwfb	(___fladd@b+2)^(0+256),f
  6094     0240  0869               	movf	(___fladd@a+3)^(0+256),w
  6095     0241  3BE5               	subwfb	(___fladd@b+3)^(0+256),f
  6096     0242                     l1052:
  6097     0242  0865               	movf	(___fladd@b+3)^(0+256),w
  6098     0243  0464               	iorwf	(___fladd@b+2)^(0+256),w
  6099     0244  0463               	iorwf	(___fladd@b+1)^(0+256),w
  6100     0245  0462               	iorwf	___fladd@b^(0+256),w
  6101     0246  1D03               	skipz
  6102     0247  2A49               	goto	u4461
  6103     0248  2A4A               	goto	u4460
  6104     0249                     u4461:
  6105     0249  2A74               	goto	l3863
  6106     024A                     u4460:
  6107     024A                     l3843:
  6108     024A  086D               	movf	___fladd@grs^(0+256),w
  6109     024B  1D03               	btfss	3,2
  6110     024C  2A4E               	goto	u4471
  6111     024D  2A4F               	goto	u4470
  6112     024E                     u4471:
  6113     024E  2A74               	goto	l3863
  6114     024F                     u4470:
  6115     024F                     l3845:
  6116     024F  3000               	movlw	0
  6117     0250  00E5               	movwf	(?___fladd+3)^(0+256)
  6118     0251  3000               	movlw	0
  6119     0252  00E4               	movwf	(?___fladd+2)^(0+256)
  6120     0253  3000               	movlw	0
  6121     0254  00E3               	movwf	(?___fladd+1)^(0+256)
  6122     0255  3000               	movlw	0
  6123     0256  00E2               	movwf	?___fladd^(0+256)
  6124     0257  2AF8               	goto	l1044
  6125     0258                     l3849:
  6126     0258  3001               	movlw	1
  6127     0259                     u4485:
  6128     0259  35E2               	lslf	___fladd@b^(0+256),f
  6129     025A  0DE3               	rlf	(___fladd@b+1)^(0+256),f
  6130     025B  0DE4               	rlf	(___fladd@b+2)^(0+256),f
  6131     025C  0DE5               	rlf	(___fladd@b+3)^(0+256),f
  6132     025D  0B89               	decfsz	9,f
  6133     025E  2A59               	goto	u4485
  6134     025F                     l3851:
  6135     025F  1FED               	btfss	___fladd@grs^(0+256),7
  6136     0260  2A62               	goto	u4491
  6137     0261  2A63               	goto	u4490
  6138     0262                     u4491:
  6139     0262  2A64               	goto	l1056
  6140     0263                     u4490:
  6141     0263                     l3853:
  6142     0263  1462               	bsf	___fladd@b^(0+256),0
  6143     0264                     l1056:
  6144     0264  1C6D               	btfss	___fladd@grs^(0+256),0
  6145     0265  2A67               	goto	u4501
  6146     0266  2A68               	goto	u4500
  6147     0267                     u4501:
  6148     0267  2A6B               	goto	l3857
  6149     0268                     u4500:
  6150     0268                     l3855:
  6151     0268  1403               	setc
  6152     0269  0DED               	rlf	___fladd@grs^(0+256),f
  6153     026A  2A6D               	goto	l3859
  6154     026B                     l3857:
  6155     026B  1003               	clrc
  6156     026C  0DED               	rlf	___fladd@grs^(0+256),f
  6157     026D                     l3859:
  6158     026D  086C               	movf	___fladd@bexp^(0+256),w
  6159     026E  1903               	btfsc	3,2
  6160     026F  2A71               	goto	u4511
  6161     0270  2A72               	goto	u4510
  6162     0271                     u4511:
  6163     0271  2A74               	goto	l3863
  6164     0272                     u4510:
  6165     0272                     l3861:
  6166     0272  3001               	movlw	1
  6167     0273  02EC               	subwf	___fladd@bexp^(0+256),f
  6168     0274                     l3863:
  6169     0274  1FE4               	btfss	(___fladd@b+2)^(0+256),7
  6170     0275  2A77               	goto	u4521
  6171     0276  2A78               	goto	u4520
  6172     0277                     u4521:
  6173     0277  2A58               	goto	l3849
  6174     0278                     u4520:
  6175     0278                     l3865:
  6176     0278  01EB               	clrf	___fladd@aexp^(0+256)
  6177     0279                     l3867:
  6178     0279  1FED               	btfss	___fladd@grs^(0+256),7
  6179     027A  2A7C               	goto	u4531
  6180     027B  2A7D               	goto	u4530
  6181     027C                     u4531:
  6182     027C  2A8B               	goto	l3875
  6183     027D                     u4530:
  6184     027D                     l3869:
  6185     027D  086D               	movf	___fladd@grs^(0+256),w
  6186     027E  397F               	andlw	127
  6187     027F  1903               	btfsc	3,2
  6188     0280  2A82               	goto	u4541
  6189     0281  2A83               	goto	u4540
  6190     0282                     u4541:
  6191     0282  2A86               	goto	l1062
  6192     0283                     u4540:
  6193     0283                     l3871:
  6194     0283  01EB               	clrf	___fladd@aexp^(0+256)
  6195     0284  0AEB               	incf	___fladd@aexp^(0+256),f
  6196     0285  2A8B               	goto	l3875
  6197     0286                     l1062:
  6198     0286  1C62               	btfss	___fladd@b^(0+256),0
  6199     0287  2A89               	goto	u4551
  6200     0288  2A8A               	goto	u4550
  6201     0289                     u4551:
  6202     0289  2A8B               	goto	l3875
  6203     028A                     u4550:
  6204     028A  2A83               	goto	l3871
  6205     028B                     l3875:
  6206     028B  086B               	movf	___fladd@aexp^(0+256),w
  6207     028C  1903               	btfsc	3,2
  6208     028D  2A8F               	goto	u4561
  6209     028E  2A90               	goto	u4560
  6210     028F                     u4561:
  6211     028F  2ACD               	goto	l1065
  6212     0290                     u4560:
  6213     0290                     l3877:
  6214     0290  3001               	movlw	1
  6215     0291  07E2               	addwf	___fladd@b^(0+256),f
  6216     0292  3000               	movlw	0
  6217     0293  3DE3               	addwfc	(___fladd@b+1)^(0+256),f
  6218     0294  3000               	movlw	0
  6219     0295  3DE4               	addwfc	(___fladd@b+2)^(0+256),f
  6220     0296  3000               	movlw	0
  6221     0297  3DE5               	addwfc	(___fladd@b+3)^(0+256),f
  6222     0298                     l3879:
  6223     0298  1C65               	btfss	(___fladd@b+3)^(0+256),0
  6224     0299  2A9B               	goto	u4571
  6225     029A  2A9C               	goto	u4570
  6226     029B                     u4571:
  6227     029B  2ACD               	goto	l1065
  6228     029C                     u4570:
  6229     029C                     l3881:
  6230     029C  0862               	movf	___fladd@b^(0+256),w
  6231     029D  0023               	movlb	3	; select bank3
  6232     029E  00C1               	movwf	??___fladd^(0+384)
  6233     029F  0022               	movlb	2	; select bank2
  6234     02A0  0863               	movf	(___fladd@b+1)^(0+256),w
  6235     02A1  0023               	movlb	3	; select bank3
  6236     02A2  00C2               	movwf	(??___fladd^(0+384)+1)
  6237     02A3  0022               	movlb	2	; select bank2
  6238     02A4  0864               	movf	(___fladd@b+2)^(0+256),w
  6239     02A5  0023               	movlb	3	; select bank3
  6240     02A6  00C3               	movwf	(??___fladd^(0+384)+2)
  6241     02A7  0022               	movlb	2	; select bank2
  6242     02A8  0865               	movf	(___fladd@b+3)^(0+256),w
  6243     02A9  0023               	movlb	3	; select bank3
  6244     02AA  00C4               	movwf	(??___fladd^(0+384)+3)
  6245     02AB  3001               	movlw	1
  6246     02AC  00C5               	movwf	(??___fladd+4)^(0+384)
  6247     02AD                     u4585:
  6248     02AD  37C4               	asrf	(??___fladd^(0+384)+3),f
  6249     02AE  0CC3               	rrf	(??___fladd^(0+384)+2),f
  6250     02AF  0CC2               	rrf	(??___fladd^(0+384)+1),f
  6251     02B0  0CC1               	rrf	??___fladd^(0+384),f
  6252     02B1                     u4580:
  6253     02B1  0BC5               	decfsz	(??___fladd+4)^(0+384),f
  6254     02B2  2AAD               	goto	u4585
  6255     02B3  0844               	movf	(??___fladd+3)^(0+384),w
  6256     02B4  0022               	movlb	2	; select bank2
  6257     02B5  00E5               	movwf	(___fladd@b+3)^(0+256)
  6258     02B6  0023               	movlb	3	; select bank3
  6259     02B7  0843               	movf	(??___fladd+2)^(0+384),w
  6260     02B8  0022               	movlb	2	; select bank2
  6261     02B9  00E4               	movwf	(___fladd@b+2)^(0+256)
  6262     02BA  0023               	movlb	3	; select bank3
  6263     02BB  0842               	movf	(??___fladd+1)^(0+384),w
  6264     02BC  0022               	movlb	2	; select bank2
  6265     02BD  00E3               	movwf	(___fladd@b+1)^(0+256)
  6266     02BE  0023               	movlb	3	; select bank3
  6267     02BF  0841               	movf	??___fladd^(0+384),w
  6268     02C0  0022               	movlb	2	; select bank2
  6269     02C1  00E2               	movwf	___fladd@b^(0+256)
  6270     02C2  0A6C               	incf	___fladd@bexp^(0+256),w
  6271     02C3  1903               	btfsc	3,2
  6272     02C4  2AC6               	goto	u4591
  6273     02C5  2AC7               	goto	u4590
  6274     02C6                     u4591:
  6275     02C6  2ACD               	goto	l1065
  6276     02C7                     u4590:
  6277     02C7                     l3883:
  6278     02C7  3001               	movlw	1
  6279     02C8  0023               	movlb	3	; select bank3
  6280     02C9  00C1               	movwf	??___fladd^(0+384)
  6281     02CA  0841               	movf	??___fladd^(0+384),w
  6282     02CB  0022               	movlb	2	; select bank2
  6283     02CC  07EC               	addwf	___fladd@bexp^(0+256),f
  6284     02CD                     l1065:
  6285     02CD  0A6C               	incf	___fladd@bexp^(0+256),w
  6286     02CE  1903               	btfsc	3,2
  6287     02CF  2AD1               	goto	u4601
  6288     02D0  2AD2               	goto	u4600
  6289     02D1                     u4601:
  6290     02D1  2AD7               	goto	l3887
  6291     02D2                     u4600:
  6292     02D2                     l3885:
  6293     02D2  086C               	movf	___fladd@bexp^(0+256),w
  6294     02D3  1D03               	btfss	3,2
  6295     02D4  2AD6               	goto	u4611
  6296     02D5  2AD7               	goto	u4610
  6297     02D6                     u4611:
  6298     02D6  2AE5               	goto	l3893
  6299     02D7                     u4610:
  6300     02D7                     l3887:
  6301     02D7  3000               	movlw	0
  6302     02D8  00E5               	movwf	(___fladd@b+3)^(0+256)
  6303     02D9  3000               	movlw	0
  6304     02DA  00E4               	movwf	(___fladd@b+2)^(0+256)
  6305     02DB  3000               	movlw	0
  6306     02DC  00E3               	movwf	(___fladd@b+1)^(0+256)
  6307     02DD  3000               	movlw	0
  6308     02DE  00E2               	movwf	___fladd@b^(0+256)
  6309     02DF                     l3889:
  6310     02DF  086C               	movf	___fladd@bexp^(0+256),w
  6311     02E0  1D03               	btfss	3,2
  6312     02E1  2AE3               	goto	u4621
  6313     02E2  2AE4               	goto	u4620
  6314     02E3                     u4621:
  6315     02E3  2AE5               	goto	l3893
  6316     02E4                     u4620:
  6317     02E4                     l3891:
  6318     02E4  01EA               	clrf	___fladd@signs^(0+256)
  6319     02E5                     l3893:
  6320     02E5  1C6C               	btfss	___fladd@bexp^(0+256),0
  6321     02E6  2AE8               	goto	u4631
  6322     02E7  2AE9               	goto	u4630
  6323     02E8                     u4631:
  6324     02E8  2AEB               	goto	l3897
  6325     02E9                     u4630:
  6326     02E9                     l3895:
  6327     02E9  17E4               	bsf	(___fladd@b^(0+256)+2),7
  6328     02EA  2AF1               	goto	l1073
  6329     02EB                     l3897:
  6330     02EB  307F               	movlw	127
  6331     02EC  0023               	movlb	3	; select bank3
  6332     02ED  00C1               	movwf	??___fladd^(0+384)
  6333     02EE  0841               	movf	??___fladd^(0+384),w
  6334     02EF  0022               	movlb	2	; select bank2
  6335     02F0  05E4               	andwf	(___fladd@b^(0+256)+2),f
  6336     02F1                     l1073:
  6337     02F1  366C               	lsrf	___fladd@bexp^(0+256),w
  6338     02F2  00E5               	movwf	(___fladd@b^(0+256)+3)
  6339     02F3                     l3899:
  6340     02F3  1FEA               	btfss	___fladd@signs^(0+256),7
  6341     02F4  2AF6               	goto	u4641
  6342     02F5  2AF7               	goto	u4640
  6343     02F6                     u4641:
  6344     02F6  2AF8               	goto	l1074
  6345     02F7                     u4640:
  6346     02F7                     l3901:
  6347     02F7  17E5               	bsf	(___fladd@b^(0+256)+3),7
  6348     02F8                     l1074:
  6349     02F8                     l1044:
  6350     02F8  0008               	return
  6351     02F9                     __end_of___fladd:
  6352                           
  6353                           	psect	intentry
  6354     0004                     __pintentry:	
  6355 ;; *************** function _ISR *****************
  6356 ;; Defined at:
  6357 ;;		line 46 in file "main.c"
  6358 ;; Parameters:    Size  Location     Type
  6359 ;;		None
  6360 ;; Auto vars:     Size  Location     Type
  6361 ;;		None
  6362 ;; Return value:  Size  Location     Type
  6363 ;;                  1    wreg      void 
  6364 ;; Registers used:
  6365 ;;		wreg, fsr0l, fsr0h, fsr1l, fsr1h, status,2, status,0, pclath, cstack
  6366 ;; Tracked objects:
  6367 ;;		On entry : 0/0
  6368 ;;		On exit  : 0/0
  6369 ;;		Unchanged: 0/0
  6370 ;; Data sizes:     COMMON   BANK0   BANK1   BANK2   BANK3   BANK4   BANK5   BANK6   BANK7   BANK8   BANK9  BANK10  BANK1
      +1  BANK12
  6371 ;;      Params:         0       0       0       0       0       0       0       0       0       0       0       0       
      +0       0
  6372 ;;      Locals:         0       0       0       0       0       0       0       0       0       0       0       0       
      +0       0
  6373 ;;      Temps:          0       0       2       0       0       0       0       0       0       0       0       0       
      +0       0
  6374 ;;      Totals:         0       0       2       0       0       0       0       0       0       0       0       0       
      +0       0
  6375 ;;Total ram usage:        2 bytes
  6376 ;; Hardware stack levels used: 1
  6377 ;; Hardware stack levels required when called: 4
  6378 ;; This function calls:
  6379 ;;		_UART_send_byte
  6380 ;;		_UART_send_string
  6381 ;;		_abs
  6382 ;;		_calculate_avg
  6383 ;;		_command_interpreter
  6384 ;;		_control_loop
  6385 ;;		_read_ADC
  6386 ;;		_timing
  6387 ;; This function is called by:
  6388 ;;		Interrupt level 1
  6389 ;; This function uses a non-reentrant model
  6390 ;;
  6391                           
  6392     0004                     _ISR:
  6393                           
  6394                           ;incstack = 0
  6395     0004  147E               	bsf	int$flags,0	;set compiler interrupt flag (level 1)
  6396                           
  6397                           ; Regs used in _ISR: [wreg-fsr1h+status,2+status,0+pclath+cstack]
  6398     0005  3180               	pagesel	$
  6399     0006                     i1l4827:
  6400                           
  6401                           ;main.c: 48:     if(RCIF)
  6402     0006  0020               	movlb	0	; select bank0
  6403     0007  1E91               	btfss	17,5	;volatile
  6404     0008  280A               	goto	u601_21
  6405     0009  280B               	goto	u601_20
  6406     000A                     u601_21:
  6407     000A  2821               	goto	i1l4837
  6408     000B                     u601_20:
  6409     000B                     i1l4829:
  6410                           
  6411                           ;main.c: 49:     {;main.c: 50:         RCIF = 0;
  6412     000B  1291               	bcf	17,5	;volatile
  6413                           
  6414                           ;main.c: 51:         if(RC1STAbits.OERR)
  6415     000C  0023               	movlb	3	; select bank3
  6416     000D  1C9D               	btfss	29,1	;volatile
  6417     000E  2810               	goto	u602_21
  6418     000F  2811               	goto	u602_20
  6419     0010                     u602_21:
  6420     0010  281B               	goto	i1l4835
  6421     0011                     u602_20:
  6422     0011                     i1l4831:
  6423                           
  6424                           ;main.c: 52:         {;main.c: 53:             RC1STAbits.CREN = 0;
  6425     0011  121D               	bcf	29,4	;volatile
  6426                           
  6427                           ;main.c: 54:             RC1STAbits.CREN = 1;
  6428     0012  161D               	bsf	29,4	;volatile
  6429     0013                     i1l4833:
  6430                           
  6431                           ;main.c: 55:             UART_send_string((char*)"OERR_ERROR");
  6432     0013  300D               	movlw	low (STR_1| (0+32768))
  6433     0014  00F1               	movwf	UART_send_string@st_pt
  6434     0015  3098               	movlw	high (STR_1| (0+32768))
  6435     0016  00F2               	movwf	UART_send_string@st_pt+1
  6436     0017  319D  25DB  3180   	fcall	_UART_send_string
  6437                           
  6438                           ;main.c: 56:         }
  6439     001A  2821               	goto	i1l4837
  6440     001B                     i1l4835:
  6441                           
  6442                           ;main.c: 58:         {;main.c: 59:             UART_send_byte(command_interpreter());
  6443     001B  3195  2518  3180   	fcall	_command_interpreter
  6444     001E  319D  2590  3180   	fcall	_UART_send_byte
  6445     0021                     i1l4837:
  6446                           
  6447                           ;main.c: 63:     if(TMR1IF)
  6448     0021  0020               	movlb	0	; select bank0
  6449     0022  1C11               	btfss	17,0	;volatile
  6450     0023  2825               	goto	u603_21
  6451     0024  2826               	goto	u603_20
  6452     0025                     u603_21:
  6453     0025  2878               	goto	i1l580
  6454     0026                     u603_20:
  6455     0026                     i1l4839:
  6456                           
  6457                           ;main.c: 64:     {;main.c: 65:         TMR1H = 0xE1;
  6458     0026  30E1               	movlw	225
  6459     0027  0097               	movwf	23	;volatile
  6460                           
  6461                           ;main.c: 66:         TMR1L = 0x83;
  6462     0028  3083               	movlw	131
  6463     0029  0096               	movwf	22	;volatile
  6464     002A                     i1l4841:
  6465                           
  6466                           ;main.c: 67:         TMR1IF = 0;
  6467     002A  1011               	bcf	17,0	;volatile
  6468     002B                     i1l4843:
  6469                           
  6470                           ;main.c: 69:         v = read_ADC(0b01010);
  6471     002B  300A               	movlw	10
  6472     002C  00F0               	movwf	read_ADC@channel
  6473     002D  3000               	movlw	0
  6474     002E  00F1               	movwf	read_ADC@channel+1
  6475     002F  319F  2798  3180   	fcall	_read_ADC
  6476     0032  0871               	movf	?_read_ADC+1,w
  6477     0033  0021               	movlb	1	; select bank1
  6478     0034  00E0               	movwf	(_v+1)^(0+128)
  6479     0035  0870               	movf	?_read_ADC,w
  6480     0036  00DF               	movwf	_v^(0+128)
  6481     0037                     i1l4845:
  6482                           
  6483                           ;main.c: 70:         i = read_ADC(0b01100);
  6484     0037  300C               	movlw	12
  6485     0038  00F0               	movwf	read_ADC@channel
  6486     0039  3000               	movlw	0
  6487     003A  00F1               	movwf	read_ADC@channel+1
  6488     003B  319F  2798  3180   	fcall	_read_ADC
  6489     003E  0871               	movf	?_read_ADC+1,w
  6490     003F  0021               	movlb	1	; select bank1
  6491     0040  00DE               	movwf	(_i+1)^(0+128)
  6492     0041  0870               	movf	?_read_ADC,w
  6493     0042  00DD               	movwf	_i^(0+128)
  6494     0043                     i1l4847:
  6495                           
  6496                           ;main.c: 71:         i = (uint16_t) (abs ( 2048 - (int)i ) );
  6497     0043  3000               	movlw	0
  6498     0044  00C5               	movwf	??_ISR^(0+128)
  6499     0045  3008               	movlw	8
  6500     0046  00C6               	movwf	(??_ISR^(0+128)+1)
  6501     0047  085D               	movf	_i^(0+128),w
  6502     0048  0245               	subwf	??_ISR^(0+128),w
  6503     0049  00F0               	movwf	abs@a
  6504     004A  085E               	movf	(_i+1)^(0+128),w
  6505     004B  3B46               	subwfb	(??_ISR+1)^(0+128),w
  6506     004C  00F1               	movwf	abs@a+1
  6507     004D  319E  260B  3180   	fcall	_abs
  6508     0050  0871               	movf	?_abs+1,w
  6509     0051  0021               	movlb	1	; select bank1
  6510     0052  00DE               	movwf	(_i+1)^(0+128)
  6511     0053  0870               	movf	?_abs,w
  6512     0054  00DD               	movwf	_i^(0+128)
  6513     0055                     i1l4849:
  6514                           
  6515                           ;main.c: 73:         if (conv) control_loop();
  6516     0055  0867               	movf	_conv^(0+128),w
  6517     0056  1903               	btfsc	3,2
  6518     0057  2859               	goto	u604_21
  6519     0058  285A               	goto	u604_20
  6520     0059                     u604_21:
  6521     0059  285E               	goto	i1l4853
  6522     005A                     u604_20:
  6523     005A                     i1l4851:
  6524     005A  3190  2048  3180   	fcall	_control_loop
  6525     005D  2866               	goto	i1l4855
  6526     005E                     i1l4853:
  6527     005E  3000               	movlw	0
  6528     005F  00CE               	movwf	(_pidi+3)^(0+128)
  6529     0060  3000               	movlw	0
  6530     0061  00CD               	movwf	(_pidi+2)^(0+128)
  6531     0062  3000               	movlw	0
  6532     0063  00CC               	movwf	(_pidi+1)^(0+128)
  6533     0064  3000               	movlw	0
  6534     0065  00CB               	movwf	_pidi^(0+128)
  6535     0066                     i1l4855:
  6536                           
  6537                           ;main.c: 76:         calculate_avg();
  6538     0066  3191  2190  3180   	fcall	_calculate_avg
  6539     0069                     i1l4857:
  6540                           
  6541                           ;main.c: 77:         timing();
  6542     0069  319E  2625  3180   	fcall	_timing
  6543     006C                     i1l4859:
  6544                           
  6545                           ;main.c: 79:         if (TMR1IF) UART_send_string((char*)"TIMING_ERROR");
  6546     006C  0020               	movlb	0	; select bank0
  6547     006D  1C11               	btfss	17,0	;volatile
  6548     006E  2870               	goto	u605_21
  6549     006F  2871               	goto	u605_20
  6550     0070                     u605_21:
  6551     0070  2878               	goto	i1l580
  6552     0071                     u605_20:
  6553     0071                     i1l4861:
  6554     0071  3000               	movlw	low (STR_2| (0+32768))
  6555     0072  00F1               	movwf	UART_send_string@st_pt
  6556     0073  3098               	movlw	high (STR_2| (0+32768))
  6557     0074  00F2               	movwf	UART_send_string@st_pt+1
  6558     0075  319D  25DB  3180   	fcall	_UART_send_string
  6559     0078                     i1l580:
  6560     0078  107E               	bcf	int$flags,0	;clear compiler interrupt flag (level 1)
  6561     0079  0009               	retfie
  6562     007A                     __end_of_ISR:
  6563                           
  6564                           	psect	text14
  6565     1E25                     __ptext14:	
  6566 ;; *************** function _timing *****************
  6567 ;; Defined at:
  6568 ;;		line 276 in file "charger_discharger.c"
  6569 ;; Parameters:    Size  Location     Type
  6570 ;;		None
  6571 ;; Auto vars:     Size  Location     Type
  6572 ;;		None
  6573 ;; Return value:  Size  Location     Type
  6574 ;;                  1    wreg      void 
  6575 ;; Registers used:
  6576 ;;		wreg, status,2, status,0
  6577 ;; Tracked objects:
  6578 ;;		On entry : 0/0
  6579 ;;		On exit  : 0/0
  6580 ;;		Unchanged: 0/0
  6581 ;; Data sizes:     COMMON   BANK0   BANK1   BANK2   BANK3   BANK4   BANK5   BANK6   BANK7   BANK8   BANK9  BANK10  BANK1
      +1  BANK12
  6582 ;;      Params:         0       0       0       0       0       0       0       0       0       0       0       0       
      +0       0
  6583 ;;      Locals:         0       0       0       0       0       0       0       0       0       0       0       0       
      +0       0
  6584 ;;      Temps:          0       0       0       0       0       0       0       0       0       0       0       0       
      +0       0
  6585 ;;      Totals:         0       0       0       0       0       0       0       0       0       0       0       0       
      +0       0
  6586 ;;Total ram usage:        0 bytes
  6587 ;; Hardware stack levels used: 1
  6588 ;; This function calls:
  6589 ;;		Nothing
  6590 ;; This function is called by:
  6591 ;;		_ISR
  6592 ;; This function uses a non-reentrant model
  6593 ;;
  6594                           
  6595     1E25                     _timing:	
  6596                           ;psect for function _timing
  6597                           
  6598     1E25                     i1l4741:	
  6599                           ;incstack = 0
  6600                           ; Regs used in _timing: [wreg+status,2+status,0]
  6601                           
  6602                           
  6603                           ;charger_discharger.c: 278:     if(!count)
  6604     1E25  0021               	movlb	1	; select bank1
  6605     1E26  086A               	movf	_count^(0+128),w
  6606     1E27  046B               	iorwf	(_count+1)^(0+128),w
  6607     1E28  1D03               	btfss	3,2
  6608     1E29  2E2B               	goto	u588_21
  6609     1E2A  2E2C               	goto	u588_20
  6610     1E2B                     u588_21:
  6611     1E2B  2E3A               	goto	i1l4747
  6612     1E2C                     u588_20:
  6613     1E2C                     i1l4743:
  6614                           
  6615                           ;charger_discharger.c: 279:     {;charger_discharger.c: 280:         SECF = 1;
  6616     1E2C  0023               	movlb	3	; select bank3
  6617     1E2D  01EE               	clrf	_SECF^(0+384)
  6618     1E2E  0AEE               	incf	_SECF^(0+384),f
  6619     1E2F                     i1l4745:
  6620                           
  6621                           ;charger_discharger.c: 281:         count = 1024;
  6622     1E2F  3000               	movlw	0
  6623     1E30  0021               	movlb	1	; select bank1
  6624     1E31  00EA               	movwf	_count^(0+128)
  6625     1E32  3004               	movlw	4
  6626     1E33  00EB               	movwf	(_count^(0+128)+1)
  6627                           
  6628                           ;charger_discharger.c: 282:         second++;
  6629     1E34  3001               	movlw	1
  6630     1E35  0023               	movlb	3	; select bank3
  6631     1E36  07BA               	addwf	_second^(0+384),f
  6632     1E37  3000               	movlw	0
  6633     1E38  3DBB               	addwfc	(_second+1)^(0+384),f
  6634                           
  6635                           ;charger_discharger.c: 283:     }else
  6636     1E39  2E3E               	goto	i1l354
  6637     1E3A                     i1l4747:
  6638                           
  6639                           ;charger_discharger.c: 284:     {;charger_discharger.c: 285:         count--;
  6640     1E3A  3001               	movlw	1
  6641     1E3B  02EA               	subwf	_count^(0+128),f
  6642     1E3C  3000               	movlw	0
  6643     1E3D  3BEB               	subwfb	(_count+1)^(0+128),f
  6644     1E3E                     i1l354:
  6645     1E3E  0008               	return
  6646     1E3F                     __end_of_timing:
  6647                           
  6648                           	psect	text15
  6649     1F98                     __ptext15:	
  6650 ;; *************** function _read_ADC *****************
  6651 ;; Defined at:
  6652 ;;		line 262 in file "charger_discharger.c"
  6653 ;; Parameters:    Size  Location     Type
  6654 ;;  channel         2    0[COMMON] unsigned short 
  6655 ;; Auto vars:     Size  Location     Type
  6656 ;;  ad_res          2    9[COMMON] unsigned short 
  6657 ;; Return value:  Size  Location     Type
  6658 ;;                  2    0[COMMON] unsigned short 
  6659 ;; Registers used:
  6660 ;;		wreg, status,2, status,0
  6661 ;; Tracked objects:
  6662 ;;		On entry : 0/0
  6663 ;;		On exit  : 0/0
  6664 ;;		Unchanged: 0/0
  6665 ;; Data sizes:     COMMON   BANK0   BANK1   BANK2   BANK3   BANK4   BANK5   BANK6   BANK7   BANK8   BANK9  BANK10  BANK1
      +1  BANK12
  6666 ;;      Params:         2       0       0       0       0       0       0       0       0       0       0       0       
      +0       0
  6667 ;;      Locals:         2       0       0       0       0       0       0       0       0       0       0       0       
      +0       0
  6668 ;;      Temps:          7       0       0       0       0       0       0       0       0       0       0       0       
      +0       0
  6669 ;;      Totals:        11       0       0       0       0       0       0       0       0       0       0       0       
      +0       0
  6670 ;;Total ram usage:       11 bytes
  6671 ;; Hardware stack levels used: 1
  6672 ;; This function calls:
  6673 ;;		Nothing
  6674 ;; This function is called by:
  6675 ;;		_ISR
  6676 ;; This function uses a non-reentrant model
  6677 ;;
  6678                           
  6679     1F98                     _read_ADC:	
  6680                           ;psect for function _read_ADC
  6681                           
  6682     1F98                     i1l4727:	
  6683                           ;incstack = 0
  6684                           ; Regs used in _read_ADC: [wreg+status,2+status,0]
  6685                           
  6686     1F98                     i1l4729:
  6687                           
  6688                           ;charger_discharger.c: 265:     _delay((unsigned long)((10)*(32000000/4000000.0)));
  6689     1F98  301A               	movlw	26
  6690     1F99                     u650_27:
  6691     1F99  0B89               	decfsz	9,f
  6692     1F9A  2F99               	goto	u650_27
  6693     1F9B  3200               	nop2
  6694     1F9C                     i1l4731:
  6695                           
  6696                           ;charger_discharger.c: 266:     ADCON0bits.CHS = channel;
  6697     1F9C  0870               	movf	read_ADC@channel,w
  6698     1F9D  00F2               	movwf	??_read_ADC
  6699     1F9E  0DF2               	rlf	??_read_ADC,f
  6700     1F9F  0DF2               	rlf	??_read_ADC,f
  6701     1FA0  0021               	movlb	1	; select bank1
  6702     1FA1  081D               	movf	29,w	;volatile
  6703     1FA2  0672               	xorwf	??_read_ADC,w
  6704     1FA3  3983               	andlw	-125
  6705     1FA4  0672               	xorwf	??_read_ADC,w
  6706     1FA5  009D               	movwf	29	;volatile
  6707     1FA6                     i1l4733:
  6708                           
  6709                           ;charger_discharger.c: 267:     _delay((unsigned long)((10)*(32000000/4000000.0)));
  6710     1FA6  301A               	movlw	26
  6711     1FA7                     u651_27:
  6712     1FA7  0B89               	decfsz	9,f
  6713     1FA8  2FA7               	goto	u651_27
  6714     1FA9  3200               	nop2
  6715     1FAA                     i1l4735:
  6716                           
  6717                           ;charger_discharger.c: 268:     GO_nDONE = 1;
  6718     1FAA  0021               	movlb	1	; select bank1
  6719     1FAB  149D               	bsf	29,1	;volatile
  6720     1FAC                     i1l346:	
  6721                           ;charger_discharger.c: 269:     while(GO_nDONE);
  6722                           
  6723     1FAC  189D               	btfsc	29,1	;volatile
  6724     1FAD  2FAF               	goto	u587_21
  6725     1FAE  2FB0               	goto	u587_20
  6726     1FAF                     u587_21:
  6727     1FAF  2FAC               	goto	i1l346
  6728     1FB0                     u587_20:
  6729     1FB0                     i1l4737:
  6730                           
  6731                           ;charger_discharger.c: 270:     ad_res = (uint16_t)((ADRESL & 0xFF)|((ADRESH << 8) & 0xF
      +                          00));
  6732     1FB0  081C               	movf	28,w	;volatile
  6733     1FB1  00F2               	movwf	??_read_ADC
  6734     1FB2  01F3               	clrf	??_read_ADC+1
  6735     1FB3  0872               	movf	??_read_ADC,w
  6736     1FB4  00F3               	movwf	??_read_ADC+1
  6737     1FB5  01F2               	clrf	??_read_ADC
  6738     1FB6  3000               	movlw	0
  6739     1FB7  0572               	andwf	??_read_ADC,w
  6740     1FB8  00F5               	movwf	??_read_ADC+3
  6741     1FB9  300F               	movlw	15
  6742     1FBA  0573               	andwf	??_read_ADC+1,w
  6743     1FBB  00F6               	movwf	??_read_ADC+4
  6744     1FBC  0875               	movf	??_read_ADC+3,w
  6745     1FBD  041B               	iorwf	27,w	;volatile
  6746     1FBE  00F7               	movwf	??_read_ADC+5
  6747     1FBF  0876               	movf	??_read_ADC+4,w
  6748     1FC0  00F8               	movwf	??_read_ADC+6
  6749     1FC1  0877               	movf	??_read_ADC+5,w
  6750     1FC2  00F9               	movwf	read_ADC@ad_res
  6751     1FC3  0878               	movf	??_read_ADC+6,w
  6752     1FC4  00FA               	movwf	read_ADC@ad_res+1
  6753                           
  6754                           ;charger_discharger.c: 271:     return ad_res;
  6755     1FC5  087A               	movf	read_ADC@ad_res+1,w
  6756     1FC6  00F1               	movwf	?_read_ADC+1
  6757     1FC7  0879               	movf	read_ADC@ad_res,w
  6758     1FC8  00F0               	movwf	?_read_ADC
  6759     1FC9                     i1l349:
  6760     1FC9  0008               	return
  6761     1FCA                     __end_of_read_ADC:
  6762                           
  6763                           	psect	text16
  6764     1048                     __ptext16:	
  6765 ;; *************** function _control_loop *****************
  6766 ;; Defined at:
  6767 ;;		line 195 in file "charger_discharger.c"
  6768 ;; Parameters:    Size  Location     Type
  6769 ;;		None
  6770 ;; Auto vars:     Size  Location     Type
  6771 ;;		None
  6772 ;; Return value:  Size  Location     Type
  6773 ;;                  1    wreg      void 
  6774 ;; Registers used:
  6775 ;;		wreg, status,2, status,0, pclath, cstack
  6776 ;; Tracked objects:
  6777 ;;		On entry : 0/0
  6778 ;;		On exit  : 0/0
  6779 ;;		Unchanged: 0/0
  6780 ;; Data sizes:     COMMON   BANK0   BANK1   BANK2   BANK3   BANK4   BANK5   BANK6   BANK7   BANK8   BANK9  BANK10  BANK1
      +1  BANK12
  6781 ;;      Params:         0       0       0       0       0       0       0       0       0       0       0       0       
      +0       0
  6782 ;;      Locals:         0       0       0       0       0       0       0       0       0       0       0       0       
      +0       0
  6783 ;;      Temps:          0       0       0       0       0       0       0       0       0       0       0       0       
      +0       0
  6784 ;;      Totals:         0       0       0       0       0       0       0       0       0       0       0       0       
      +0       0
  6785 ;;Total ram usage:        0 bytes
  6786 ;; Hardware stack levels used: 1
  6787 ;; Hardware stack levels required when called: 3
  6788 ;; This function calls:
  6789 ;;		_pid
  6790 ;;		i1___xxtofl
  6791 ;;		i1_set_DC
  6792 ;; This function is called by:
  6793 ;;		_ISR
  6794 ;; This function uses a non-reentrant model
  6795 ;;
  6796                           
  6797     1048                     _control_loop:	
  6798                           ;psect for function _control_loop
  6799                           
  6800     1048                     i1l4705:	
  6801                           ;incstack = 0
  6802                           ; Regs used in _control_loop: [wreg+status,2+status,0+pclath+cstack]
  6803                           
  6804                           
  6805                           ;charger_discharger.c: 197:     if(!cmode)
  6806     1048  0021               	movlb	1	; select bank1
  6807     1049  086C               	movf	_cmode^(0+128),w
  6808     104A  1D03               	btfss	3,2
  6809     104B  284D               	goto	u584_21
  6810     104C  284E               	goto	u584_20
  6811     104D                     u584_21:
  6812     104D  2875               	goto	i1l4709
  6813     104E                     u584_20:
  6814     104E                     i1l4707:
  6815                           
  6816                           ;charger_discharger.c: 198:     {;charger_discharger.c: 199:         pid(v, v_ref);
  6817     104E  085F               	movf	_v^(0+128),w
  6818     104F  00F0               	movwf	i1___xxtofl@val
  6819     1050  0860               	movf	(_v+1)^(0+128),w
  6820     1051  00F1               	movwf	i1___xxtofl@val+1
  6821     1052  01F2               	clrf	i1___xxtofl@val+2
  6822     1053  01F3               	clrf	i1___xxtofl@val+3
  6823     1054  3000               	movlw	0
  6824     1055  3192  22B4  3190   	fcall	i1___xxtofl
  6825     1058  0873               	movf	?i1___xxtofl+3,w
  6826     1059  0020               	movlb	0	; select bank0
  6827     105A  00D9               	movwf	pid@feedback+3
  6828     105B  0872               	movf	?i1___xxtofl+2,w
  6829     105C  00D8               	movwf	pid@feedback+2
  6830     105D  0871               	movf	?i1___xxtofl+1,w
  6831     105E  00D7               	movwf	pid@feedback+1
  6832     105F  0870               	movf	?i1___xxtofl,w
  6833     1060  00D6               	movwf	pid@feedback
  6834     1061  0023               	movlb	3	; select bank3
  6835     1062  0827               	movf	(_v_ref+3)^(0+384),w
  6836     1063  0020               	movlb	0	; select bank0
  6837     1064  00DD               	movwf	pid@setpoint+3
  6838     1065  0023               	movlb	3	; select bank3
  6839     1066  0826               	movf	(_v_ref+2)^(0+384),w
  6840     1067  0020               	movlb	0	; select bank0
  6841     1068  00DC               	movwf	pid@setpoint+2
  6842     1069  0023               	movlb	3	; select bank3
  6843     106A  0825               	movf	(_v_ref+1)^(0+384),w
  6844     106B  0020               	movlb	0	; select bank0
  6845     106C  00DB               	movwf	pid@setpoint+1
  6846     106D  0023               	movlb	3	; select bank3
  6847     106E  0824               	movf	_v_ref^(0+384),w
  6848     106F  0020               	movlb	0	; select bank0
  6849     1070  00DA               	movwf	pid@setpoint
  6850     1071  318C  2407  3190   	fcall	_pid
  6851                           
  6852                           ;charger_discharger.c: 200:     }else
  6853     1074  289F               	goto	i1l324
  6854     1075                     i1l4709:
  6855                           
  6856                           ;charger_discharger.c: 201:     {;charger_discharger.c: 202:         pid(i, i_ref);
  6857     1075  085D               	movf	_i^(0+128),w
  6858     1076  00F0               	movwf	i1___xxtofl@val
  6859     1077  085E               	movf	(_i+1)^(0+128),w
  6860     1078  00F1               	movwf	i1___xxtofl@val+1
  6861     1079  01F2               	clrf	i1___xxtofl@val+2
  6862     107A  01F3               	clrf	i1___xxtofl@val+3
  6863     107B  3000               	movlw	0
  6864     107C  3192  22B4  3190   	fcall	i1___xxtofl
  6865     107F  0873               	movf	?i1___xxtofl+3,w
  6866     1080  0020               	movlb	0	; select bank0
  6867     1081  00D9               	movwf	pid@feedback+3
  6868     1082  0872               	movf	?i1___xxtofl+2,w
  6869     1083  00D8               	movwf	pid@feedback+2
  6870     1084  0871               	movf	?i1___xxtofl+1,w
  6871     1085  00D7               	movwf	pid@feedback+1
  6872     1086  0870               	movf	?i1___xxtofl,w
  6873     1087  00D6               	movwf	pid@feedback
  6874     1088  0021               	movlb	1	; select bank1
  6875     1089  0855               	movf	_i_ref^(0+128),w
  6876     108A  00F0               	movwf	i1___xxtofl@val
  6877     108B  0856               	movf	(_i_ref+1)^(0+128),w
  6878     108C  00F1               	movwf	i1___xxtofl@val+1
  6879     108D  01F2               	clrf	i1___xxtofl@val+2
  6880     108E  01F3               	clrf	i1___xxtofl@val+3
  6881     108F  3000               	movlw	0
  6882     1090  3192  22B4  3190   	fcall	i1___xxtofl
  6883     1093  0873               	movf	?i1___xxtofl+3,w
  6884     1094  0020               	movlb	0	; select bank0
  6885     1095  00DD               	movwf	pid@setpoint+3
  6886     1096  0872               	movf	?i1___xxtofl+2,w
  6887     1097  00DC               	movwf	pid@setpoint+2
  6888     1098  0871               	movf	?i1___xxtofl+1,w
  6889     1099  00DB               	movwf	pid@setpoint+1
  6890     109A  0870               	movf	?i1___xxtofl,w
  6891     109B  00DA               	movwf	pid@setpoint
  6892     109C  318C  2407  3190   	fcall	_pid
  6893     109F                     i1l324:	
  6894                           ;charger_discharger.c: 203:     }
  6895                           
  6896                           
  6897                           ;charger_discharger.c: 204:     set_DC();
  6898     109F  319E  267A  3190   	fcall	i1_set_DC
  6899     10A2                     i1l325:
  6900     10A2  0008               	return
  6901     10A3                     __end_of_control_loop:
  6902                           
  6903                           	psect	text17
  6904     0C07                     __ptext17:	
  6905 ;; *************** function _pid *****************
  6906 ;; Defined at:
  6907 ;;		line 211 in file "charger_discharger.c"
  6908 ;; Parameters:    Size  Location     Type
  6909 ;;  feedback        4   54[BANK0 ] float 
  6910 ;;  setpoint        4   58[BANK0 ] float 
  6911 ;; Auto vars:     Size  Location     Type
  6912 ;;		None
  6913 ;; Return value:  Size  Location     Type
  6914 ;;                  1    wreg      void 
  6915 ;; Registers used:
  6916 ;;		wreg, status,2, status,0, pclath, cstack
  6917 ;; Tracked objects:
  6918 ;;		On entry : 0/0
  6919 ;;		On exit  : 0/0
  6920 ;;		Unchanged: 0/0
  6921 ;; Data sizes:     COMMON   BANK0   BANK1   BANK2   BANK3   BANK4   BANK5   BANK6   BANK7   BANK8   BANK9  BANK10  BANK1
      +1  BANK12
  6922 ;;      Params:         0       8       0       0       0       0       0       0       0       0       0       0       
      +0       0
  6923 ;;      Locals:         0      12       0       0       0       0       0       0       0       0       0       0       
      +0       0
  6924 ;;      Temps:          0       0       0       0       0       0       0       0       0       0       0       0       
      +0       0
  6925 ;;      Totals:         0      20       0       0       0       0       0       0       0       0       0       0       
      +0       0
  6926 ;;Total ram usage:       20 bytes
  6927 ;; Hardware stack levels used: 1
  6928 ;; Hardware stack levels required when called: 2
  6929 ;; This function calls:
  6930 ;;		___flge
  6931 ;;		___flsub
  6932 ;;		i1___fladd
  6933 ;;		i1___flmul
  6934 ;; This function is called by:
  6935 ;;		_control_loop
  6936 ;; This function uses a non-reentrant model
  6937 ;;
  6938                           
  6939     0C07                     _pid:	
  6940                           ;psect for function _pid
  6941                           
  6942     0C07                     i1l3683:	
  6943                           ;incstack = 0
  6944                           ; Regs used in _pid: [wreg+status,2+status,0+pclath+cstack]
  6945                           
  6946                           
  6947                           ;charger_discharger.c: 211: void pid(float feedback, float setpoint);charger_discharger.
      +                          c: 212: {;charger_discharger.c: 213:     pidt += kd * (setpoint - feedback - er);
  6948     0C07  0020               	movlb	0	; select bank0
  6949     0C08  085D               	movf	pid@setpoint+3,w
  6950     0C09  00BB               	movwf	___flsub@b+3
  6951     0C0A  085C               	movf	pid@setpoint+2,w
  6952     0C0B  00BA               	movwf	___flsub@b+2
  6953     0C0C  085B               	movf	pid@setpoint+1,w
  6954     0C0D  00B9               	movwf	___flsub@b+1
  6955     0C0E  085A               	movf	pid@setpoint,w
  6956     0C0F  00B8               	movwf	___flsub@b
  6957     0C10  0859               	movf	pid@feedback+3,w
  6958     0C11  00B7               	movwf	___flsub@a+3
  6959     0C12  0858               	movf	pid@feedback+2,w
  6960     0C13  00B6               	movwf	___flsub@a+2
  6961     0C14  0857               	movf	pid@feedback+1,w
  6962     0C15  00B5               	movwf	___flsub@a+1
  6963     0C16  0856               	movf	pid@feedback,w
  6964     0C17  00B4               	movwf	___flsub@a
  6965     0C18  319E  265A  318C   	fcall	___flsub
  6966     0C1B  0020               	movlb	0	; select bank0
  6967     0C1C  0837               	movf	?___flsub+3,w
  6968     0C1D  00E1               	movwf	_pid$1265+3
  6969     0C1E  0836               	movf	?___flsub+2,w
  6970     0C1F  00E0               	movwf	_pid$1265+2
  6971     0C20  0835               	movf	?___flsub+1,w
  6972     0C21  00DF               	movwf	_pid$1265+1
  6973     0C22  0834               	movf	?___flsub,w
  6974     0C23  00DE               	movwf	_pid$1265
  6975                           
  6976                           ;charger_discharger.c: 211: void pid(float feedback, float setpoint);charger_discharger.
      +                          c: 212: {;charger_discharger.c: 213:     pidt += kd * (setpoint - feedback - er);
  6977     0C24  0861               	movf	_pid$1265+3,w
  6978     0C25  00BB               	movwf	___flsub@b+3
  6979     0C26  0860               	movf	_pid$1265+2,w
  6980     0C27  00BA               	movwf	___flsub@b+2
  6981     0C28  085F               	movf	_pid$1265+1,w
  6982     0C29  00B9               	movwf	___flsub@b+1
  6983     0C2A  085E               	movf	_pid$1265,w
  6984     0C2B  00B8               	movwf	___flsub@b
  6985     0C2C  0021               	movlb	1	; select bank1
  6986     0C2D  084A               	movf	(_er+3)^(0+128),w
  6987     0C2E  0020               	movlb	0	; select bank0
  6988     0C2F  00B7               	movwf	___flsub@a+3
  6989     0C30  0021               	movlb	1	; select bank1
  6990     0C31  0849               	movf	(_er+2)^(0+128),w
  6991     0C32  0020               	movlb	0	; select bank0
  6992     0C33  00B6               	movwf	___flsub@a+2
  6993     0C34  0021               	movlb	1	; select bank1
  6994     0C35  0848               	movf	(_er+1)^(0+128),w
  6995     0C36  0020               	movlb	0	; select bank0
  6996     0C37  00B5               	movwf	___flsub@a+1
  6997     0C38  0021               	movlb	1	; select bank1
  6998     0C39  0847               	movf	_er^(0+128),w
  6999     0C3A  0020               	movlb	0	; select bank0
  7000     0C3B  00B4               	movwf	___flsub@a
  7001     0C3C  319E  265A  318C   	fcall	___flsub
  7002     0C3F  0020               	movlb	0	; select bank0
  7003     0C40  0837               	movf	?___flsub+3,w
  7004     0C41  00C3               	movwf	i1___flmul@a+3
  7005     0C42  0836               	movf	?___flsub+2,w
  7006     0C43  00C2               	movwf	i1___flmul@a+2
  7007     0C44  0835               	movf	?___flsub+1,w
  7008     0C45  00C1               	movwf	i1___flmul@a+1
  7009     0C46  0834               	movf	?___flsub,w
  7010     0C47  00C0               	movwf	i1___flmul@a
  7011     0C48  0023               	movlb	3	; select bank3
  7012     0C49  082B               	movf	(_kd+3)^(0+384),w
  7013     0C4A  0020               	movlb	0	; select bank0
  7014     0C4B  00BF               	movwf	i1___flmul@b+3
  7015     0C4C  0023               	movlb	3	; select bank3
  7016     0C4D  082A               	movf	(_kd+2)^(0+384),w
  7017     0C4E  0020               	movlb	0	; select bank0
  7018     0C4F  00BE               	movwf	i1___flmul@b+2
  7019     0C50  0023               	movlb	3	; select bank3
  7020     0C51  0829               	movf	(_kd+1)^(0+384),w
  7021     0C52  0020               	movlb	0	; select bank0
  7022     0C53  00BD               	movwf	i1___flmul@b+1
  7023     0C54  0023               	movlb	3	; select bank3
  7024     0C55  0828               	movf	_kd^(0+384),w
  7025     0C56  0020               	movlb	0	; select bank0
  7026     0C57  00BC               	movwf	i1___flmul@b
  7027     0C58  3185  2534  318C   	fcall	i1___flmul
  7028     0C5B  0020               	movlb	0	; select bank0
  7029     0C5C  083F               	movf	?i1___flmul+3,w
  7030     0C5D  00E5               	movwf	_pid$1378+3
  7031     0C5E  083E               	movf	?i1___flmul+2,w
  7032     0C5F  00E4               	movwf	_pid$1378+2
  7033     0C60  083D               	movf	?i1___flmul+1,w
  7034     0C61  00E3               	movwf	_pid$1378+1
  7035     0C62  083C               	movf	?i1___flmul,w
  7036     0C63  00E2               	movwf	_pid$1378
  7037                           
  7038                           ;charger_discharger.c: 211: void pid(float feedback, float setpoint);charger_discharger.
      +                          c: 212: {;charger_discharger.c: 213:     pidt += kd * (setpoint - feedback - er);
  7039     0C64  0865               	movf	_pid$1378+3,w
  7040     0C65  00A3               	movwf	i1___fladd@b+3
  7041     0C66  0864               	movf	_pid$1378+2,w
  7042     0C67  00A2               	movwf	i1___fladd@b+2
  7043     0C68  0863               	movf	_pid$1378+1,w
  7044     0C69  00A1               	movwf	i1___fladd@b+1
  7045     0C6A  0862               	movf	_pid$1378,w
  7046     0C6B  00A0               	movwf	i1___fladd@b
  7047     0C6C  0023               	movlb	3	; select bank3
  7048     0C6D  0823               	movf	(_pidt+3)^(0+384),w
  7049     0C6E  0020               	movlb	0	; select bank0
  7050     0C6F  00A7               	movwf	i1___fladd@a+3
  7051     0C70  0023               	movlb	3	; select bank3
  7052     0C71  0822               	movf	(_pidt+2)^(0+384),w
  7053     0C72  0020               	movlb	0	; select bank0
  7054     0C73  00A6               	movwf	i1___fladd@a+2
  7055     0C74  0023               	movlb	3	; select bank3
  7056     0C75  0821               	movf	(_pidt+1)^(0+384),w
  7057     0C76  0020               	movlb	0	; select bank0
  7058     0C77  00A5               	movwf	i1___fladd@a+1
  7059     0C78  0023               	movlb	3	; select bank3
  7060     0C79  0820               	movf	_pidt^(0+384),w
  7061     0C7A  0020               	movlb	0	; select bank0
  7062     0C7B  00A4               	movwf	i1___fladd@a
  7063     0C7C  318D  25F8  318C   	fcall	i1___fladd
  7064     0C7F  0020               	movlb	0	; select bank0
  7065     0C80  0823               	movf	?i1___fladd+3,w
  7066     0C81  0023               	movlb	3	; select bank3
  7067     0C82  00A3               	movwf	(_pidt+3)^(0+384)
  7068     0C83  0020               	movlb	0	; select bank0
  7069     0C84  0822               	movf	?i1___fladd+2,w
  7070     0C85  0023               	movlb	3	; select bank3
  7071     0C86  00A2               	movwf	(_pidt+2)^(0+384)
  7072     0C87  0020               	movlb	0	; select bank0
  7073     0C88  0821               	movf	?i1___fladd+1,w
  7074     0C89  0023               	movlb	3	; select bank3
  7075     0C8A  00A1               	movwf	(_pidt+1)^(0+384)
  7076     0C8B  0020               	movlb	0	; select bank0
  7077     0C8C  0820               	movf	?i1___fladd,w
  7078     0C8D  0023               	movlb	3	; select bank3
  7079     0C8E  00A0               	movwf	_pidt^(0+384)
  7080                           
  7081                           ;charger_discharger.c: 215:     er = setpoint - feedback;
  7082     0C8F  0020               	movlb	0	; select bank0
  7083     0C90  0859               	movf	pid@feedback+3,w
  7084     0C91  00B7               	movwf	___flsub@a+3
  7085     0C92  0858               	movf	pid@feedback+2,w
  7086     0C93  00B6               	movwf	___flsub@a+2
  7087     0C94  0857               	movf	pid@feedback+1,w
  7088     0C95  00B5               	movwf	___flsub@a+1
  7089     0C96  0856               	movf	pid@feedback,w
  7090     0C97  00B4               	movwf	___flsub@a
  7091     0C98  085D               	movf	pid@setpoint+3,w
  7092     0C99  00BB               	movwf	___flsub@b+3
  7093     0C9A  085C               	movf	pid@setpoint+2,w
  7094     0C9B  00BA               	movwf	___flsub@b+2
  7095     0C9C  085B               	movf	pid@setpoint+1,w
  7096     0C9D  00B9               	movwf	___flsub@b+1
  7097     0C9E  085A               	movf	pid@setpoint,w
  7098     0C9F  00B8               	movwf	___flsub@b
  7099     0CA0  319E  265A  318C   	fcall	___flsub
  7100     0CA3  0020               	movlb	0	; select bank0
  7101     0CA4  0837               	movf	?___flsub+3,w
  7102     0CA5  0021               	movlb	1	; select bank1
  7103     0CA6  00CA               	movwf	(_er+3)^(0+128)
  7104     0CA7  0020               	movlb	0	; select bank0
  7105     0CA8  0836               	movf	?___flsub+2,w
  7106     0CA9  0021               	movlb	1	; select bank1
  7107     0CAA  00C9               	movwf	(_er+2)^(0+128)
  7108     0CAB  0020               	movlb	0	; select bank0
  7109     0CAC  0835               	movf	?___flsub+1,w
  7110     0CAD  0021               	movlb	1	; select bank1
  7111     0CAE  00C8               	movwf	(_er+1)^(0+128)
  7112     0CAF  0020               	movlb	0	; select bank0
  7113     0CB0  0834               	movf	?___flsub,w
  7114     0CB1  0021               	movlb	1	; select bank1
  7115     0CB2  00C7               	movwf	_er^(0+128)
  7116                           
  7117                           ;charger_discharger.c: 216:     if(er > 1000) er = 1000;
  7118     0CB3  3044               	movlw	68
  7119     0CB4  00F3               	movwf	___flge@ff1+3
  7120     0CB5  307A               	movlw	122
  7121     0CB6  00F2               	movwf	___flge@ff1+2
  7122     0CB7  3000               	movlw	0
  7123     0CB8  00F1               	movwf	___flge@ff1+1
  7124     0CB9  3000               	movlw	0
  7125     0CBA  00F0               	movwf	___flge@ff1
  7126     0CBB  084A               	movf	(_er+3)^(0+128),w
  7127     0CBC  00F7               	movwf	___flge@ff2+3
  7128     0CBD  0849               	movf	(_er+2)^(0+128),w
  7129     0CBE  00F6               	movwf	___flge@ff2+2
  7130     0CBF  0848               	movf	(_er+1)^(0+128),w
  7131     0CC0  00F5               	movwf	___flge@ff2+1
  7132     0CC1  0847               	movf	_er^(0+128),w
  7133     0CC2  00F4               	movwf	___flge@ff2
  7134     0CC3  3188  2001  318C   	fcall	___flge
  7135     0CC6  1803               	btfsc	3,0
  7136     0CC7  2CC9               	goto	u417_21
  7137     0CC8  2CCA               	goto	u417_20
  7138     0CC9                     u417_21:
  7139     0CC9  2CD3               	goto	i1l3687
  7140     0CCA                     u417_20:
  7141     0CCA                     i1l3685:
  7142     0CCA  3044               	movlw	68
  7143     0CCB  0021               	movlb	1	; select bank1
  7144     0CCC  00CA               	movwf	(_er+3)^(0+128)
  7145     0CCD  307A               	movlw	122
  7146     0CCE  00C9               	movwf	(_er+2)^(0+128)
  7147     0CCF  3000               	movlw	0
  7148     0CD0  00C8               	movwf	(_er+1)^(0+128)
  7149     0CD1  3000               	movlw	0
  7150     0CD2  00C7               	movwf	_er^(0+128)
  7151     0CD3                     i1l3687:
  7152                           
  7153                           ;charger_discharger.c: 217:     if(er < -1000) er = -1000;
  7154     0CD3  0021               	movlb	1	; select bank1
  7155     0CD4  084A               	movf	(_er+3)^(0+128),w
  7156     0CD5  00F3               	movwf	___flge@ff1+3
  7157     0CD6  0849               	movf	(_er+2)^(0+128),w
  7158     0CD7  00F2               	movwf	___flge@ff1+2
  7159     0CD8  0848               	movf	(_er+1)^(0+128),w
  7160     0CD9  00F1               	movwf	___flge@ff1+1
  7161     0CDA  0847               	movf	_er^(0+128),w
  7162     0CDB  00F0               	movwf	___flge@ff1
  7163     0CDC  30C4               	movlw	196
  7164     0CDD  00F7               	movwf	___flge@ff2+3
  7165     0CDE  307A               	movlw	122
  7166     0CDF  00F6               	movwf	___flge@ff2+2
  7167     0CE0  3000               	movlw	0
  7168     0CE1  00F5               	movwf	___flge@ff2+1
  7169     0CE2  3000               	movlw	0
  7170     0CE3  00F4               	movwf	___flge@ff2
  7171     0CE4  3188  2001  318C   	fcall	___flge
  7172     0CE7  1803               	btfsc	3,0
  7173     0CE8  2CEA               	goto	u418_21
  7174     0CE9  2CEB               	goto	u418_20
  7175     0CEA                     u418_21:
  7176     0CEA  2CF4               	goto	i1l3691
  7177     0CEB                     u418_20:
  7178     0CEB                     i1l3689:
  7179     0CEB  30C4               	movlw	196
  7180     0CEC  0021               	movlb	1	; select bank1
  7181     0CED  00CA               	movwf	(_er+3)^(0+128)
  7182     0CEE  307A               	movlw	122
  7183     0CEF  00C9               	movwf	(_er+2)^(0+128)
  7184     0CF0  3000               	movlw	0
  7185     0CF1  00C8               	movwf	(_er+1)^(0+128)
  7186     0CF2  3000               	movlw	0
  7187     0CF3  00C7               	movwf	_er^(0+128)
  7188     0CF4                     i1l3691:
  7189                           
  7190                           ;charger_discharger.c: 219:  pidi += (ki * er);
  7191     0CF4  0023               	movlb	3	; select bank3
  7192     0CF5  082F               	movf	(_ki+3)^(0+384),w
  7193     0CF6  0020               	movlb	0	; select bank0
  7194     0CF7  00C3               	movwf	i1___flmul@a+3
  7195     0CF8  0023               	movlb	3	; select bank3
  7196     0CF9  082E               	movf	(_ki+2)^(0+384),w
  7197     0CFA  0020               	movlb	0	; select bank0
  7198     0CFB  00C2               	movwf	i1___flmul@a+2
  7199     0CFC  0023               	movlb	3	; select bank3
  7200     0CFD  082D               	movf	(_ki+1)^(0+384),w
  7201     0CFE  0020               	movlb	0	; select bank0
  7202     0CFF  00C1               	movwf	i1___flmul@a+1
  7203     0D00  0023               	movlb	3	; select bank3
  7204     0D01  082C               	movf	_ki^(0+384),w
  7205     0D02  0020               	movlb	0	; select bank0
  7206     0D03  00C0               	movwf	i1___flmul@a
  7207     0D04  0021               	movlb	1	; select bank1
  7208     0D05  084A               	movf	(_er+3)^(0+128),w
  7209     0D06  0020               	movlb	0	; select bank0
  7210     0D07  00BF               	movwf	i1___flmul@b+3
  7211     0D08  0021               	movlb	1	; select bank1
  7212     0D09  0849               	movf	(_er+2)^(0+128),w
  7213     0D0A  0020               	movlb	0	; select bank0
  7214     0D0B  00BE               	movwf	i1___flmul@b+2
  7215     0D0C  0021               	movlb	1	; select bank1
  7216     0D0D  0848               	movf	(_er+1)^(0+128),w
  7217     0D0E  0020               	movlb	0	; select bank0
  7218     0D0F  00BD               	movwf	i1___flmul@b+1
  7219     0D10  0021               	movlb	1	; select bank1
  7220     0D11  0847               	movf	_er^(0+128),w
  7221     0D12  0020               	movlb	0	; select bank0
  7222     0D13  00BC               	movwf	i1___flmul@b
  7223     0D14  3185  2534  318C   	fcall	i1___flmul
  7224     0D17  0020               	movlb	0	; select bank0
  7225     0D18  083F               	movf	?i1___flmul+3,w
  7226     0D19  00A3               	movwf	i1___fladd@b+3
  7227     0D1A  083E               	movf	?i1___flmul+2,w
  7228     0D1B  00A2               	movwf	i1___fladd@b+2
  7229     0D1C  083D               	movf	?i1___flmul+1,w
  7230     0D1D  00A1               	movwf	i1___fladd@b+1
  7231     0D1E  083C               	movf	?i1___flmul,w
  7232     0D1F  00A0               	movwf	i1___fladd@b
  7233     0D20  0021               	movlb	1	; select bank1
  7234     0D21  084E               	movf	(_pidi+3)^(0+128),w
  7235     0D22  0020               	movlb	0	; select bank0
  7236     0D23  00A7               	movwf	i1___fladd@a+3
  7237     0D24  0021               	movlb	1	; select bank1
  7238     0D25  084D               	movf	(_pidi+2)^(0+128),w
  7239     0D26  0020               	movlb	0	; select bank0
  7240     0D27  00A6               	movwf	i1___fladd@a+2
  7241     0D28  0021               	movlb	1	; select bank1
  7242     0D29  084C               	movf	(_pidi+1)^(0+128),w
  7243     0D2A  0020               	movlb	0	; select bank0
  7244     0D2B  00A5               	movwf	i1___fladd@a+1
  7245     0D2C  0021               	movlb	1	; select bank1
  7246     0D2D  084B               	movf	_pidi^(0+128),w
  7247     0D2E  0020               	movlb	0	; select bank0
  7248     0D2F  00A4               	movwf	i1___fladd@a
  7249     0D30  318D  25F8  318C   	fcall	i1___fladd
  7250     0D33  0020               	movlb	0	; select bank0
  7251     0D34  0823               	movf	?i1___fladd+3,w
  7252     0D35  0021               	movlb	1	; select bank1
  7253     0D36  00CE               	movwf	(_pidi+3)^(0+128)
  7254     0D37  0020               	movlb	0	; select bank0
  7255     0D38  0822               	movf	?i1___fladd+2,w
  7256     0D39  0021               	movlb	1	; select bank1
  7257     0D3A  00CD               	movwf	(_pidi+2)^(0+128)
  7258     0D3B  0020               	movlb	0	; select bank0
  7259     0D3C  0821               	movf	?i1___fladd+1,w
  7260     0D3D  0021               	movlb	1	; select bank1
  7261     0D3E  00CC               	movwf	(_pidi+1)^(0+128)
  7262     0D3F  0020               	movlb	0	; select bank0
  7263     0D40  0820               	movf	?i1___fladd,w
  7264     0D41  0021               	movlb	1	; select bank1
  7265     0D42  00CB               	movwf	_pidi^(0+128)
  7266     0D43                     i1l3693:
  7267                           
  7268                           ;charger_discharger.c: 220:     pidt += (er * kp + pidi);
  7269     0D43  084A               	movf	(_er+3)^(0+128),w
  7270     0D44  0020               	movlb	0	; select bank0
  7271     0D45  00C3               	movwf	i1___flmul@a+3
  7272     0D46  0021               	movlb	1	; select bank1
  7273     0D47  0849               	movf	(_er+2)^(0+128),w
  7274     0D48  0020               	movlb	0	; select bank0
  7275     0D49  00C2               	movwf	i1___flmul@a+2
  7276     0D4A  0021               	movlb	1	; select bank1
  7277     0D4B  0848               	movf	(_er+1)^(0+128),w
  7278     0D4C  0020               	movlb	0	; select bank0
  7279     0D4D  00C1               	movwf	i1___flmul@a+1
  7280     0D4E  0021               	movlb	1	; select bank1
  7281     0D4F  0847               	movf	_er^(0+128),w
  7282     0D50  0020               	movlb	0	; select bank0
  7283     0D51  00C0               	movwf	i1___flmul@a
  7284     0D52  0023               	movlb	3	; select bank3
  7285     0D53  0833               	movf	(_kp+3)^(0+384),w
  7286     0D54  0020               	movlb	0	; select bank0
  7287     0D55  00BF               	movwf	i1___flmul@b+3
  7288     0D56  0023               	movlb	3	; select bank3
  7289     0D57  0832               	movf	(_kp+2)^(0+384),w
  7290     0D58  0020               	movlb	0	; select bank0
  7291     0D59  00BE               	movwf	i1___flmul@b+2
  7292     0D5A  0023               	movlb	3	; select bank3
  7293     0D5B  0831               	movf	(_kp+1)^(0+384),w
  7294     0D5C  0020               	movlb	0	; select bank0
  7295     0D5D  00BD               	movwf	i1___flmul@b+1
  7296     0D5E  0023               	movlb	3	; select bank3
  7297     0D5F  0830               	movf	_kp^(0+384),w
  7298     0D60  0020               	movlb	0	; select bank0
  7299     0D61  00BC               	movwf	i1___flmul@b
  7300     0D62  3185  2534  318C   	fcall	i1___flmul
  7301     0D65  0020               	movlb	0	; select bank0
  7302     0D66  083F               	movf	?i1___flmul+3,w
  7303     0D67  00A7               	movwf	i1___fladd@a+3
  7304     0D68  083E               	movf	?i1___flmul+2,w
  7305     0D69  00A6               	movwf	i1___fladd@a+2
  7306     0D6A  083D               	movf	?i1___flmul+1,w
  7307     0D6B  00A5               	movwf	i1___fladd@a+1
  7308     0D6C  083C               	movf	?i1___flmul,w
  7309     0D6D  00A4               	movwf	i1___fladd@a
  7310     0D6E  0021               	movlb	1	; select bank1
  7311     0D6F  084E               	movf	(_pidi+3)^(0+128),w
  7312     0D70  0020               	movlb	0	; select bank0
  7313     0D71  00A3               	movwf	i1___fladd@b+3
  7314     0D72  0021               	movlb	1	; select bank1
  7315     0D73  084D               	movf	(_pidi+2)^(0+128),w
  7316     0D74  0020               	movlb	0	; select bank0
  7317     0D75  00A2               	movwf	i1___fladd@b+2
  7318     0D76  0021               	movlb	1	; select bank1
  7319     0D77  084C               	movf	(_pidi+1)^(0+128),w
  7320     0D78  0020               	movlb	0	; select bank0
  7321     0D79  00A1               	movwf	i1___fladd@b+1
  7322     0D7A  0021               	movlb	1	; select bank1
  7323     0D7B  084B               	movf	_pidi^(0+128),w
  7324     0D7C  0020               	movlb	0	; select bank0
  7325     0D7D  00A0               	movwf	i1___fladd@b
  7326     0D7E  318D  25F8  318C   	fcall	i1___fladd
  7327     0D81  0020               	movlb	0	; select bank0
  7328     0D82  0823               	movf	?i1___fladd+3,w
  7329     0D83  00E9               	movwf	_pid$1379+3
  7330     0D84  0822               	movf	?i1___fladd+2,w
  7331     0D85  00E8               	movwf	_pid$1379+2
  7332     0D86  0821               	movf	?i1___fladd+1,w
  7333     0D87  00E7               	movwf	_pid$1379+1
  7334     0D88  0820               	movf	?i1___fladd,w
  7335     0D89  00E6               	movwf	_pid$1379
  7336     0D8A                     i1l3695:
  7337                           
  7338                           ;charger_discharger.c: 220:     pidt += (er * kp + pidi);
  7339     0D8A  0869               	movf	_pid$1379+3,w
  7340     0D8B  00A3               	movwf	i1___fladd@b+3
  7341     0D8C  0868               	movf	_pid$1379+2,w
  7342     0D8D  00A2               	movwf	i1___fladd@b+2
  7343     0D8E  0867               	movf	_pid$1379+1,w
  7344     0D8F  00A1               	movwf	i1___fladd@b+1
  7345     0D90  0866               	movf	_pid$1379,w
  7346     0D91  00A0               	movwf	i1___fladd@b
  7347     0D92  0023               	movlb	3	; select bank3
  7348     0D93  0823               	movf	(_pidt+3)^(0+384),w
  7349     0D94  0020               	movlb	0	; select bank0
  7350     0D95  00A7               	movwf	i1___fladd@a+3
  7351     0D96  0023               	movlb	3	; select bank3
  7352     0D97  0822               	movf	(_pidt+2)^(0+384),w
  7353     0D98  0020               	movlb	0	; select bank0
  7354     0D99  00A6               	movwf	i1___fladd@a+2
  7355     0D9A  0023               	movlb	3	; select bank3
  7356     0D9B  0821               	movf	(_pidt+1)^(0+384),w
  7357     0D9C  0020               	movlb	0	; select bank0
  7358     0D9D  00A5               	movwf	i1___fladd@a+1
  7359     0D9E  0023               	movlb	3	; select bank3
  7360     0D9F  0820               	movf	_pidt^(0+384),w
  7361     0DA0  0020               	movlb	0	; select bank0
  7362     0DA1  00A4               	movwf	i1___fladd@a
  7363     0DA2  318D  25F8  318C   	fcall	i1___fladd
  7364     0DA5  0020               	movlb	0	; select bank0
  7365     0DA6  0823               	movf	?i1___fladd+3,w
  7366     0DA7  0023               	movlb	3	; select bank3
  7367     0DA8  00A3               	movwf	(_pidt+3)^(0+384)
  7368     0DA9  0020               	movlb	0	; select bank0
  7369     0DAA  0822               	movf	?i1___fladd+2,w
  7370     0DAB  0023               	movlb	3	; select bank3
  7371     0DAC  00A2               	movwf	(_pidt+2)^(0+384)
  7372     0DAD  0020               	movlb	0	; select bank0
  7373     0DAE  0821               	movf	?i1___fladd+1,w
  7374     0DAF  0023               	movlb	3	; select bank3
  7375     0DB0  00A1               	movwf	(_pidt+1)^(0+384)
  7376     0DB1  0020               	movlb	0	; select bank0
  7377     0DB2  0820               	movf	?i1___fladd,w
  7378     0DB3  0023               	movlb	3	; select bank3
  7379     0DB4  00A0               	movwf	_pidt^(0+384)
  7380     0DB5                     i1l3697:
  7381                           
  7382                           ;charger_discharger.c: 222:     if (pidt >= 300.0) pidt = 300.0;
  7383     0DB5  0823               	movf	(_pidt+3)^(0+384),w
  7384     0DB6  00F3               	movwf	___flge@ff1+3
  7385     0DB7  0822               	movf	(_pidt+2)^(0+384),w
  7386     0DB8  00F2               	movwf	___flge@ff1+2
  7387     0DB9  0821               	movf	(_pidt+1)^(0+384),w
  7388     0DBA  00F1               	movwf	___flge@ff1+1
  7389     0DBB  0820               	movf	_pidt^(0+384),w
  7390     0DBC  00F0               	movwf	___flge@ff1
  7391     0DBD  3043               	movlw	67
  7392     0DBE  00F7               	movwf	___flge@ff2+3
  7393     0DBF  3096               	movlw	150
  7394     0DC0  00F6               	movwf	___flge@ff2+2
  7395     0DC1  3000               	movlw	0
  7396     0DC2  00F5               	movwf	___flge@ff2+1
  7397     0DC3  3000               	movlw	0
  7398     0DC4  00F4               	movwf	___flge@ff2
  7399     0DC5  3188  2001  318C   	fcall	___flge
  7400     0DC8  1C03               	btfss	3,0
  7401     0DC9  2DCB               	goto	u419_21
  7402     0DCA  2DCC               	goto	u419_20
  7403     0DCB                     u419_21:
  7404     0DCB  2DD6               	goto	i1l3701
  7405     0DCC                     u419_20:
  7406     0DCC                     i1l3699:
  7407     0DCC  3043               	movlw	67
  7408     0DCD  0023               	movlb	3	; select bank3
  7409     0DCE  00A3               	movwf	(_pidt+3)^(0+384)
  7410     0DCF  3096               	movlw	150
  7411     0DD0  00A2               	movwf	(_pidt+2)^(0+384)
  7412     0DD1  3000               	movlw	0
  7413     0DD2  00A1               	movwf	(_pidt+1)^(0+384)
  7414     0DD3  3000               	movlw	0
  7415     0DD4  00A0               	movwf	_pidt^(0+384)
  7416     0DD5  2DF7               	goto	i1l333
  7417     0DD6                     i1l3701:
  7418     0DD6  3042               	movlw	66
  7419     0DD7  00F3               	movwf	___flge@ff1+3
  7420     0DD8  3048               	movlw	72
  7421     0DD9  00F2               	movwf	___flge@ff1+2
  7422     0DDA  3000               	movlw	0
  7423     0DDB  00F1               	movwf	___flge@ff1+1
  7424     0DDC  3000               	movlw	0
  7425     0DDD  00F0               	movwf	___flge@ff1
  7426     0DDE  0023               	movlb	3	; select bank3
  7427     0DDF  0823               	movf	(_pidt+3)^(0+384),w
  7428     0DE0  00F7               	movwf	___flge@ff2+3
  7429     0DE1  0822               	movf	(_pidt+2)^(0+384),w
  7430     0DE2  00F6               	movwf	___flge@ff2+2
  7431     0DE3  0821               	movf	(_pidt+1)^(0+384),w
  7432     0DE4  00F5               	movwf	___flge@ff2+1
  7433     0DE5  0820               	movf	_pidt^(0+384),w
  7434     0DE6  00F4               	movwf	___flge@ff2
  7435     0DE7  3188  2001  318C   	fcall	___flge
  7436     0DEA  1C03               	btfss	3,0
  7437     0DEB  2DED               	goto	u420_21
  7438     0DEC  2DEE               	goto	u420_20
  7439     0DED                     u420_21:
  7440     0DED  2DF7               	goto	i1l333
  7441     0DEE                     u420_20:
  7442     0DEE                     i1l3703:
  7443     0DEE  3042               	movlw	66
  7444     0DEF  0023               	movlb	3	; select bank3
  7445     0DF0  00A3               	movwf	(_pidt+3)^(0+384)
  7446     0DF1  3048               	movlw	72
  7447     0DF2  00A2               	movwf	(_pidt+2)^(0+384)
  7448     0DF3  3000               	movlw	0
  7449     0DF4  00A1               	movwf	(_pidt+1)^(0+384)
  7450     0DF5  3000               	movlw	0
  7451     0DF6  00A0               	movwf	_pidt^(0+384)
  7452     0DF7                     i1l333:
  7453     0DF7  0008               	return
  7454     0DF8                     __end_of_pid:
  7455                           
  7456                           	psect	text18
  7457     1E5A                     __ptext18:	
  7458 ;; *************** function ___flsub *****************
  7459 ;; Defined at:
  7460 ;;		line 242 in file "C:\Program Files\Microchip\xc8\v2.40\pic\sources\c99\common\sprcadd.c"
  7461 ;; Parameters:    Size  Location     Type
  7462 ;;  a               4   20[BANK0 ] void 
  7463 ;;  b               4   24[BANK0 ] void 
  7464 ;; Auto vars:     Size  Location     Type
  7465 ;;		None
  7466 ;; Return value:  Size  Location     Type
  7467 ;;                  4   20[BANK0 ] void 
  7468 ;; Registers used:
  7469 ;;		wreg, status,2, status,0, pclath, cstack
  7470 ;; Tracked objects:
  7471 ;;		On entry : 0/0
  7472 ;;		On exit  : 0/0
  7473 ;;		Unchanged: 0/0
  7474 ;; Data sizes:     COMMON   BANK0   BANK1   BANK2   BANK3   BANK4   BANK5   BANK6   BANK7   BANK8   BANK9  BANK10  BANK1
      +1  BANK12
  7475 ;;      Params:         0       8       0       0       0       0       0       0       0       0       0       0       
      +0       0
  7476 ;;      Locals:         0       0       0       0       0       0       0       0       0       0       0       0       
      +0       0
  7477 ;;      Temps:          0       0       0       0       0       0       0       0       0       0       0       0       
      +0       0
  7478 ;;      Totals:         0       8       0       0       0       0       0       0       0       0       0       0       
      +0       0
  7479 ;;Total ram usage:        8 bytes
  7480 ;; Hardware stack levels used: 1
  7481 ;; Hardware stack levels required when called: 1
  7482 ;; This function calls:
  7483 ;;		i1___fladd
  7484 ;; This function is called by:
  7485 ;;		_pid
  7486 ;; This function uses a non-reentrant model
  7487 ;;
  7488                           
  7489     1E5A                     ___flsub:	
  7490                           ;psect for function ___flsub
  7491                           
  7492     1E5A                     i1l3433:	
  7493                           ;incstack = 0
  7494                           ; Regs used in ___flsub: [wreg+status,2+status,0+pclath+cstack]
  7495                           
  7496     1E5A  3080               	movlw	128
  7497     1E5B  0020               	movlb	0	; select bank0
  7498     1E5C  06B7               	xorwf	___flsub@a+3,f
  7499     1E5D                     i1l3435:
  7500     1E5D  083B               	movf	___flsub@b+3,w
  7501     1E5E  00A3               	movwf	i1___fladd@b+3
  7502     1E5F  083A               	movf	___flsub@b+2,w
  7503     1E60  00A2               	movwf	i1___fladd@b+2
  7504     1E61  0839               	movf	___flsub@b+1,w
  7505     1E62  00A1               	movwf	i1___fladd@b+1
  7506     1E63  0838               	movf	___flsub@b,w
  7507     1E64  00A0               	movwf	i1___fladd@b
  7508     1E65  0837               	movf	___flsub@a+3,w
  7509     1E66  00A7               	movwf	i1___fladd@a+3
  7510     1E67  0836               	movf	___flsub@a+2,w
  7511     1E68  00A6               	movwf	i1___fladd@a+2
  7512     1E69  0835               	movf	___flsub@a+1,w
  7513     1E6A  00A5               	movwf	i1___fladd@a+1
  7514     1E6B  0834               	movf	___flsub@a,w
  7515     1E6C  00A4               	movwf	i1___fladd@a
  7516     1E6D  318D  25F8  319E   	fcall	i1___fladd
  7517     1E70  0020               	movlb	0	; select bank0
  7518     1E71  0823               	movf	?i1___fladd+3,w
  7519     1E72  00B7               	movwf	?___flsub+3
  7520     1E73  0822               	movf	?i1___fladd+2,w
  7521     1E74  00B6               	movwf	?___flsub+2
  7522     1E75  0821               	movf	?i1___fladd+1,w
  7523     1E76  00B5               	movwf	?___flsub+1
  7524     1E77  0820               	movf	?i1___fladd,w
  7525     1E78  00B4               	movwf	?___flsub
  7526     1E79                     i1l1077:
  7527     1E79  0008               	return
  7528     1E7A                     __end_of___flsub:
  7529                           
  7530                           	psect	text19
  7531     0801                     __ptext19:	
  7532 ;; *************** function ___flge *****************
  7533 ;; Defined at:
  7534 ;;		line 4 in file "C:\Program Files\Microchip\xc8\v2.40\pic\sources\c99\common\flge.c"
  7535 ;; Parameters:    Size  Location     Type
  7536 ;;  ff1             4    0[COMMON] void 
  7537 ;;  ff2             4    4[COMMON] void 
  7538 ;; Auto vars:     Size  Location     Type
  7539 ;;		None
  7540 ;; Return value:  Size  Location     Type
  7541 ;;		None               void
  7542 ;; Registers used:
  7543 ;;		wreg, status,2, status,0
  7544 ;; Tracked objects:
  7545 ;;		On entry : 0/0
  7546 ;;		On exit  : 0/0
  7547 ;;		Unchanged: 0/0
  7548 ;; Data sizes:     COMMON   BANK0   BANK1   BANK2   BANK3   BANK4   BANK5   BANK6   BANK7   BANK8   BANK9  BANK10  BANK1
      +1  BANK12
  7549 ;;      Params:         8       0       0       0       0       0       0       0       0       0       0       0       
      +0       0
  7550 ;;      Locals:         0       0       0       0       0       0       0       0       0       0       0       0       
      +0       0
  7551 ;;      Temps:          4       0       0       0       0       0       0       0       0       0       0       0       
      +0       0
  7552 ;;      Totals:        12       0       0       0       0       0       0       0       0       0       0       0       
      +0       0
  7553 ;;Total ram usage:       12 bytes
  7554 ;; Hardware stack levels used: 1
  7555 ;; This function calls:
  7556 ;;		Nothing
  7557 ;; This function is called by:
  7558 ;;		_pid
  7559 ;; This function uses a non-reentrant model
  7560 ;;
  7561                           
  7562     0801                     ___flge:	
  7563                           ;psect for function ___flge
  7564                           
  7565     0801                     i1l3377:	
  7566                           ;incstack = 0
  7567                           ; Regs used in ___flge: [wreg+status,2+status,0]
  7568                           
  7569     0801  3000               	movlw	0
  7570     0802  0570               	andwf	___flge@ff1,w
  7571     0803  00F8               	movwf	??___flge
  7572     0804  3000               	movlw	0
  7573     0805  0571               	andwf	___flge@ff1+1,w
  7574     0806  00F9               	movwf	??___flge+1
  7575     0807  3080               	movlw	128
  7576     0808  0572               	andwf	___flge@ff1+2,w
  7577     0809  00FA               	movwf	??___flge+2
  7578     080A  307F               	movlw	127
  7579     080B  0573               	andwf	___flge@ff1+3,w
  7580     080C  00FB               	movwf	??___flge+3
  7581     080D  087B               	movf	??___flge+3,w
  7582     080E  047A               	iorwf	??___flge+2,w
  7583     080F  0479               	iorwf	??___flge+1,w
  7584     0810  0478               	iorwf	??___flge,w
  7585     0811  1D03               	skipz
  7586     0812  2814               	goto	u367_21
  7587     0813  2815               	goto	u367_20
  7588     0814                     u367_21:
  7589     0814  281D               	goto	i1l908
  7590     0815                     u367_20:
  7591     0815                     i1l3379:
  7592     0815  3000               	movlw	0
  7593     0816  00F3               	movwf	___flge@ff1+3
  7594     0817  3000               	movlw	0
  7595     0818  00F2               	movwf	___flge@ff1+2
  7596     0819  3000               	movlw	0
  7597     081A  00F1               	movwf	___flge@ff1+1
  7598     081B  3000               	movlw	0
  7599     081C  00F0               	movwf	___flge@ff1
  7600     081D                     i1l908:
  7601     081D  3000               	movlw	0
  7602     081E  0574               	andwf	___flge@ff2,w
  7603     081F  00F8               	movwf	??___flge
  7604     0820  3000               	movlw	0
  7605     0821  0575               	andwf	___flge@ff2+1,w
  7606     0822  00F9               	movwf	??___flge+1
  7607     0823  3080               	movlw	128
  7608     0824  0576               	andwf	___flge@ff2+2,w
  7609     0825  00FA               	movwf	??___flge+2
  7610     0826  307F               	movlw	127
  7611     0827  0577               	andwf	___flge@ff2+3,w
  7612     0828  00FB               	movwf	??___flge+3
  7613     0829  087B               	movf	??___flge+3,w
  7614     082A  047A               	iorwf	??___flge+2,w
  7615     082B  0479               	iorwf	??___flge+1,w
  7616     082C  0478               	iorwf	??___flge,w
  7617     082D  1D03               	skipz
  7618     082E  2830               	goto	u368_21
  7619     082F  2831               	goto	u368_20
  7620     0830                     u368_21:
  7621     0830  2839               	goto	i1l3383
  7622     0831                     u368_20:
  7623     0831                     i1l3381:
  7624     0831  3000               	movlw	0
  7625     0832  00F7               	movwf	___flge@ff2+3
  7626     0833  3000               	movlw	0
  7627     0834  00F6               	movwf	___flge@ff2+2
  7628     0835  3000               	movlw	0
  7629     0836  00F5               	movwf	___flge@ff2+1
  7630     0837  3000               	movlw	0
  7631     0838  00F4               	movwf	___flge@ff2
  7632     0839                     i1l3383:
  7633     0839  1FF3               	btfss	___flge@ff1+3,7
  7634     083A  283C               	goto	u369_21
  7635     083B  283D               	goto	u369_20
  7636     083C                     u369_21:
  7637     083C  2855               	goto	i1l3387
  7638     083D                     u369_20:
  7639     083D                     i1l3385:
  7640     083D  3000               	movlw	0
  7641     083E  00F8               	movwf	??___flge
  7642     083F  3000               	movlw	0
  7643     0840  00F9               	movwf	??___flge+1
  7644     0841  3000               	movlw	0
  7645     0842  00FA               	movwf	??___flge+2
  7646     0843  3080               	movlw	128
  7647     0844  00FB               	movwf	??___flge+3
  7648     0845  0870               	movf	___flge@ff1,w
  7649     0846  02F8               	subwf	??___flge,f
  7650     0847  0871               	movf	___flge@ff1+1,w
  7651     0848  3BF9               	subwfb	??___flge+1,f
  7652     0849  0872               	movf	___flge@ff1+2,w
  7653     084A  3BFA               	subwfb	??___flge+2,f
  7654     084B  0873               	movf	___flge@ff1+3,w
  7655     084C  3BFB               	subwfb	??___flge+3,f
  7656     084D  087B               	movf	??___flge+3,w
  7657     084E  00F3               	movwf	___flge@ff1+3
  7658     084F  087A               	movf	??___flge+2,w
  7659     0850  00F2               	movwf	___flge@ff1+2
  7660     0851  0879               	movf	??___flge+1,w
  7661     0852  00F1               	movwf	___flge@ff1+1
  7662     0853  0878               	movf	??___flge,w
  7663     0854  00F0               	movwf	___flge@ff1
  7664     0855                     i1l3387:
  7665     0855  1FF7               	btfss	___flge@ff2+3,7
  7666     0856  2858               	goto	u370_21
  7667     0857  2859               	goto	u370_20
  7668     0858                     u370_21:
  7669     0858  2871               	goto	i1l911
  7670     0859                     u370_20:
  7671     0859                     i1l3389:
  7672     0859  3000               	movlw	0
  7673     085A  00F8               	movwf	??___flge
  7674     085B  3000               	movlw	0
  7675     085C  00F9               	movwf	??___flge+1
  7676     085D  3000               	movlw	0
  7677     085E  00FA               	movwf	??___flge+2
  7678     085F  3080               	movlw	128
  7679     0860  00FB               	movwf	??___flge+3
  7680     0861  0874               	movf	___flge@ff2,w
  7681     0862  02F8               	subwf	??___flge,f
  7682     0863  0875               	movf	___flge@ff2+1,w
  7683     0864  3BF9               	subwfb	??___flge+1,f
  7684     0865  0876               	movf	___flge@ff2+2,w
  7685     0866  3BFA               	subwfb	??___flge+2,f
  7686     0867  0877               	movf	___flge@ff2+3,w
  7687     0868  3BFB               	subwfb	??___flge+3,f
  7688     0869  087B               	movf	??___flge+3,w
  7689     086A  00F7               	movwf	___flge@ff2+3
  7690     086B  087A               	movf	??___flge+2,w
  7691     086C  00F6               	movwf	___flge@ff2+2
  7692     086D  0879               	movf	??___flge+1,w
  7693     086E  00F5               	movwf	___flge@ff2+1
  7694     086F  0878               	movf	??___flge,w
  7695     0870  00F4               	movwf	___flge@ff2
  7696     0871                     i1l911:
  7697     0871  3080               	movlw	128
  7698     0872  06F3               	xorwf	___flge@ff1+3,f
  7699     0873  3080               	movlw	128
  7700     0874  06F7               	xorwf	___flge@ff2+3,f
  7701     0875  0877               	movf	___flge@ff2+3,w
  7702     0876  0273               	subwf	___flge@ff1+3,w
  7703     0877  1D03               	skipz
  7704     0878  2883               	goto	u371_25
  7705     0879  0876               	movf	___flge@ff2+2,w
  7706     087A  0272               	subwf	___flge@ff1+2,w
  7707     087B  1D03               	skipz
  7708     087C  2883               	goto	u371_25
  7709     087D  0875               	movf	___flge@ff2+1,w
  7710     087E  0271               	subwf	___flge@ff1+1,w
  7711     087F  1D03               	skipz
  7712     0880  2883               	goto	u371_25
  7713     0881  0874               	movf	___flge@ff2,w
  7714     0882  0270               	subwf	___flge@ff1,w
  7715     0883                     u371_25:
  7716     0883  1803               	skipnc
  7717     0884  2886               	goto	u371_21
  7718     0885  2887               	goto	u371_20
  7719     0886                     u371_21:
  7720     0886  2889               	goto	i1l3393
  7721     0887                     u371_20:
  7722     0887                     i1l3391:
  7723     0887  1003               	clrc
  7724     0888  288A               	goto	i1l916
  7725     0889                     i1l3393:
  7726     0889  1403               	setc
  7727     088A                     i1l916:
  7728     088A  0008               	return
  7729     088B                     __end_of___flge:
  7730                           
  7731                           	psect	text20
  7732     1518                     __ptext20:	
  7733 ;; *************** function _command_interpreter *****************
  7734 ;; Defined at:
  7735 ;;		line 126 in file "charger_discharger.c"
  7736 ;; Parameters:    Size  Location     Type
  7737 ;;		None
  7738 ;; Auto vars:     Size  Location     Type
  7739 ;;  data           20   15[BANK1 ] unsigned char [20]
  7740 ;;  subcommand      1   36[BANK1 ] unsigned char 
  7741 ;;  test            1   35[BANK1 ] _Bool 
  7742 ;; Return value:  Size  Location     Type
  7743 ;;                  1    wreg      _Bool 
  7744 ;; Registers used:
  7745 ;;		wreg, fsr0l, fsr0h, fsr1l, fsr1h, status,2, status,0, pclath, cstack
  7746 ;; Tracked objects:
  7747 ;;		On entry : 0/0
  7748 ;;		On exit  : 0/0
  7749 ;;		Unchanged: 0/0
  7750 ;; Data sizes:     COMMON   BANK0   BANK1   BANK2   BANK3   BANK4   BANK5   BANK6   BANK7   BANK8   BANK9  BANK10  BANK1
      +1  BANK12
  7751 ;;      Params:         0       0       0       0       0       0       0       0       0       0       0       0       
      +0       0
  7752 ;;      Locals:         0       0      22       0       0       0       0       0       0       0       0       0       
      +0       0
  7753 ;;      Temps:          0       0       2       0       0       0       0       0       0       0       0       0       
      +0       0
  7754 ;;      Totals:         0       0      24       0       0       0       0       0       0       0       0       0       
      +0       0
  7755 ;;Total ram usage:       24 bytes
  7756 ;; Hardware stack levels used: 1
  7757 ;; Hardware stack levels required when called: 3
  7758 ;; This function calls:
  7759 ;;		_UART_read_until
  7760 ;;		_UART_send_some_char
  7761 ;;		_converter_settings
  7762 ;;		_strcmp
  7763 ;;		_strlen
  7764 ;;		i1_Cell_OFF
  7765 ;;		i1___fladd
  7766 ;;		i1___fldiv
  7767 ;;		i1___flmul
  7768 ;;		i1___fltol
  7769 ;;		i1___xxtofl
  7770 ;;		i1_set_DC
  7771 ;; This function is called by:
  7772 ;;		_ISR
  7773 ;; This function uses a non-reentrant model
  7774 ;;
  7775                           
  7776     1518                     _command_interpreter:	
  7777                           ;psect for function _command_interpreter
  7778                           
  7779     1518                     i1l4629:	
  7780                           ;incstack = 0
  7781                           ; Regs used in _command_interpreter: [wreg-fsr1h+status,2+status,0+pclath+cstack]
  7782                           
  7783     1518                     i1l4631:
  7784     1518                     i1l4633:
  7785                           
  7786                           ;charger_discharger.c: 130:     char data[20];;charger_discharger.c: 131:     UART_read_
      +                          until(data, '\n');
  7787     1518  300A               	movlw	10
  7788     1519  00F0               	movwf	UART_read_until@terminator
  7789     151A  30AF               	movlw	(low (command_interpreter@data| 0))& (0+255)
  7790     151B  319F  2768  3195   	fcall	_UART_read_until
  7791     151E                     i1l4635:
  7792                           
  7793                           ;charger_discharger.c: 133:     if (0 == strcmp(data, '*IDN?'))
  7794     151E  303F               	movlw	63
  7795     151F  00F0               	movwf	strcmp@r
  7796     1520  30CE               	movlw	206
  7797     1521  00F1               	movwf	strcmp@r+1
  7798     1522  30AF               	movlw	(low (command_interpreter@data| 0))& (0+255)
  7799     1523  319F  2739  3195   	fcall	_strcmp
  7800     1526  0870               	movf	?_strcmp,w
  7801     1527  0471               	iorwf	?_strcmp+1,w
  7802     1528  1D03               	btfss	3,2
  7803     1529  2D2B               	goto	u577_21
  7804     152A  2D2C               	goto	u577_20
  7805     152B                     u577_21:
  7806     152B  2D3B               	goto	i1l4639
  7807     152C                     u577_20:
  7808     152C                     i1l4637:
  7809                           
  7810                           ;charger_discharger.c: 134:     {;charger_discharger.c: 135:         UART_send_some_char
      +                          ((uint8_t) strlen('AlexSQ,FQPS,0001,1.0'), (char*) 'AlexSQ,FQPS,0001,1.0');
  7811     152C  3030               	movlw	48
  7812     152D  00F5               	movwf	UART_send_some_char@data
  7813     152E  302E               	movlw	46
  7814     152F  00F6               	movwf	UART_send_some_char@data+1
  7815     1530  3030               	movlw	48
  7816     1531  00F0               	movwf	strlen@s
  7817     1532  30AE               	movlw	174
  7818     1533  00F1               	movwf	strlen@s+1
  7819     1534  319D  25F2  3195   	fcall	_strlen
  7820     1537  0870               	movf	?_strlen,w
  7821     1538  319D  25AF  3195   	fcall	_UART_send_some_char
  7822     153B                     i1l4639:
  7823                           
  7824                           ;charger_discharger.c: 138:     subcommand = data[0];
  7825     153B  0021               	movlb	1	; select bank1
  7826     153C  082F               	movf	command_interpreter@data^(0+128),w
  7827     153D  00C4               	movwf	command_interpreter@subcommand^(0+128)
  7828                           
  7829                           ;charger_discharger.c: 140:     switch (subcommand)
  7830     153E  2E3F               	goto	i1l4693
  7831     153F                     i1l4641:
  7832     153F                     i1l4647:
  7833                           
  7834                           ;charger_discharger.c: 153:             if (data[7] == 0x41)
  7835     153F  3041               	movlw	65
  7836     1540  0636               	xorwf	(command_interpreter@data^(0+128)+7),w
  7837     1541  1D03               	btfss	3,2
  7838     1542  2D44               	goto	u578_21
  7839     1543  2D45               	goto	u578_20
  7840     1544                     u578_21:
  7841     1544  2D4B               	goto	i1l4653
  7842     1545                     u578_20:
  7843     1545                     i1l4649:
  7844                           
  7845                           ;charger_discharger.c: 154:             {;charger_discharger.c: 155:                 cel
      +                          l_count = 0x01;
  7846     1545  01ED               	clrf	_cell_count^(0+128)
  7847     1546  0AED               	incf	_cell_count^(0+128),f
  7848     1547                     i1l4651:
  7849                           
  7850                           ;charger_discharger.c: 156:                 converter_settings();
  7851     1547  319F  27CA  3195   	fcall	_converter_settings
  7852                           
  7853                           ;charger_discharger.c: 157:             }
  7854     154A  2D67               	goto	i1l4667
  7855     154B                     i1l4653:
  7856     154B  304F               	movlw	79
  7857     154C  0636               	xorwf	(command_interpreter@data^(0+128)+7),w
  7858     154D  1D03               	btfss	3,2
  7859     154E  2D50               	goto	u579_21
  7860     154F  2D51               	goto	u579_20
  7861     1550                     u579_21:
  7862     1550  2D67               	goto	i1l4667
  7863     1551                     u579_20:
  7864     1551                     i1l4655:
  7865                           
  7866                           ;charger_discharger.c: 159:             {;charger_discharger.c: 160:                 { R
      +                          C3 = 0; RC4 = 0; conv = 0; RC5 = 0; pidt = 50.0; set_DC(); Cell_OFF();};
  7867     1551  0020               	movlb	0	; select bank0
  7868     1552  118E               	bcf	14,3	;volatile
  7869     1553  120E               	bcf	14,4	;volatile
  7870     1554                     i1l4657:
  7871     1554  0021               	movlb	1	; select bank1
  7872     1555  01E7               	clrf	_conv^(0+128)
  7873     1556                     i1l4659:
  7874     1556  0020               	movlb	0	; select bank0
  7875     1557  128E               	bcf	14,5	;volatile
  7876     1558                     i1l4661:
  7877     1558  3042               	movlw	66
  7878     1559  0023               	movlb	3	; select bank3
  7879     155A  00A3               	movwf	(_pidt+3)^(0+384)
  7880     155B  3048               	movlw	72
  7881     155C  00A2               	movwf	(_pidt+2)^(0+384)
  7882     155D  3000               	movlw	0
  7883     155E  00A1               	movwf	(_pidt+1)^(0+384)
  7884     155F  3000               	movlw	0
  7885     1560  00A0               	movwf	_pidt^(0+384)
  7886     1561                     i1l4663:
  7887     1561  319E  267A  3195   	fcall	i1_set_DC
  7888     1564                     i1l4665:
  7889     1564  319E  26E3  3195   	fcall	i1_Cell_OFF
  7890     1567                     i1l4667:
  7891                           
  7892                           ;charger_discharger.c: 164:             if (data[4] == 0x3A)
  7893     1567  303A               	movlw	58
  7894     1568  0021               	movlb	1	; select bank1
  7895     1569  0633               	xorwf	(command_interpreter@data^(0+128)+4),w
  7896     156A  1D03               	btfss	3,2
  7897     156B  2D6D               	goto	u580_21
  7898     156C  2D6E               	goto	u580_20
  7899     156D                     u580_21:
  7900     156D  2D6F               	goto	i1l4671
  7901     156E                     u580_20:
  7902     156E  2DD5               	goto	i1l4677
  7903     156F                     i1l4671:
  7904     156F  3020               	movlw	32
  7905     1570  0633               	xorwf	(command_interpreter@data^(0+128)+4),w
  7906     1571  1D03               	btfss	3,2
  7907     1572  2D74               	goto	u581_21
  7908     1573  2D75               	goto	u581_20
  7909     1574                     u581_21:
  7910     1574  2DD5               	goto	i1l4677
  7911     1575                     u581_20:
  7912     1575                     i1l4673:
  7913                           
  7914                           ;charger_discharger.c: 169:             {;charger_discharger.c: 171:                 cmo
      +                          de = 1;
  7915     1575  01EC               	clrf	_cmode^(0+128)
  7916     1576  0AEC               	incf	_cmode^(0+128),f
  7917     1577                     i1l4675:
  7918                           
  7919                           ;charger_discharger.c: 172:                 i_ref = (uint16_t) ( ( ( (float) const_cur *
      +                           4096.0 ) / (5000.0 * 2.5 ) ) + 0.5 );
  7920     1577  0859               	movf	_const_cur^(0+128),w
  7921     1578  00F0               	movwf	i1___xxtofl@val
  7922     1579  085A               	movf	(_const_cur+1)^(0+128),w
  7923     157A  00F1               	movwf	i1___xxtofl@val+1
  7924     157B  01F2               	clrf	i1___xxtofl@val+2
  7925     157C  01F3               	clrf	i1___xxtofl@val+3
  7926     157D  3000               	movlw	0
  7927     157E  3192  22B4  3195   	fcall	i1___xxtofl
  7928     1581  0873               	movf	?i1___xxtofl+3,w
  7929     1582  0020               	movlb	0	; select bank0
  7930     1583  00C3               	movwf	i1___flmul@a+3
  7931     1584  0872               	movf	?i1___xxtofl+2,w
  7932     1585  00C2               	movwf	i1___flmul@a+2
  7933     1586  0871               	movf	?i1___xxtofl+1,w
  7934     1587  00C1               	movwf	i1___flmul@a+1
  7935     1588  0870               	movf	?i1___xxtofl,w
  7936     1589  00C0               	movwf	i1___flmul@a
  7937     158A  3045               	movlw	69
  7938     158B  00BF               	movwf	i1___flmul@b+3
  7939     158C  3080               	movlw	128
  7940     158D  00BE               	movwf	i1___flmul@b+2
  7941     158E  3000               	movlw	0
  7942     158F  00BD               	movwf	i1___flmul@b+1
  7943     1590  3000               	movlw	0
  7944     1591  00BC               	movwf	i1___flmul@b
  7945     1592  3185  2534  3195   	fcall	i1___flmul
  7946     1595  0020               	movlb	0	; select bank0
  7947     1596  083F               	movf	?i1___flmul+3,w
  7948     1597  00DD               	movwf	i1___fldiv@b+3
  7949     1598  083E               	movf	?i1___flmul+2,w
  7950     1599  00DC               	movwf	i1___fldiv@b+2
  7951     159A  083D               	movf	?i1___flmul+1,w
  7952     159B  00DB               	movwf	i1___fldiv@b+1
  7953     159C  083C               	movf	?i1___flmul,w
  7954     159D  00DA               	movwf	i1___fldiv@b
  7955     159E  3046               	movlw	70
  7956     159F  00D9               	movwf	i1___fldiv@a+3
  7957     15A0  3043               	movlw	67
  7958     15A1  00D8               	movwf	i1___fldiv@a+2
  7959     15A2  3050               	movlw	80
  7960     15A3  00D7               	movwf	i1___fldiv@a+1
  7961     15A4  3000               	movlw	0
  7962     15A5  00D6               	movwf	i1___fldiv@a
  7963     15A6  3196  2656  3195   	fcall	i1___fldiv
  7964     15A9  0020               	movlb	0	; select bank0
  7965     15AA  0859               	movf	?i1___fldiv+3,w
  7966     15AB  00A7               	movwf	i1___fladd@a+3
  7967     15AC  0858               	movf	?i1___fldiv+2,w
  7968     15AD  00A6               	movwf	i1___fladd@a+2
  7969     15AE  0857               	movf	?i1___fldiv+1,w
  7970     15AF  00A5               	movwf	i1___fladd@a+1
  7971     15B0  0856               	movf	?i1___fldiv,w
  7972     15B1  00A4               	movwf	i1___fladd@a
  7973     15B2  303F               	movlw	63
  7974     15B3  00A3               	movwf	i1___fladd@b+3
  7975     15B4  3000               	movlw	0
  7976     15B5  00A2               	movwf	i1___fladd@b+2
  7977     15B6  3000               	movlw	0
  7978     15B7  00A1               	movwf	i1___fladd@b+1
  7979     15B8  3000               	movlw	0
  7980     15B9  00A0               	movwf	i1___fladd@b
  7981     15BA  318D  25F8  3195   	fcall	i1___fladd
  7982     15BD  0020               	movlb	0	; select bank0
  7983     15BE  0823               	movf	?i1___fladd+3,w
  7984     15BF  0021               	movlb	1	; select bank1
  7985     15C0  00A3               	movwf	(i1___fltol@f1+3)^(0+128)
  7986     15C1  0020               	movlb	0	; select bank0
  7987     15C2  0822               	movf	?i1___fladd+2,w
  7988     15C3  0021               	movlb	1	; select bank1
  7989     15C4  00A2               	movwf	(i1___fltol@f1+2)^(0+128)
  7990     15C5  0020               	movlb	0	; select bank0
  7991     15C6  0821               	movf	?i1___fladd+1,w
  7992     15C7  0021               	movlb	1	; select bank1
  7993     15C8  00A1               	movwf	(i1___fltol@f1+1)^(0+128)
  7994     15C9  0020               	movlb	0	; select bank0
  7995     15CA  0820               	movf	?i1___fladd,w
  7996     15CB  0021               	movlb	1	; select bank1
  7997     15CC  00A0               	movwf	i1___fltol@f1^(0+128)
  7998     15CD  3190  20A3  3195   	fcall	i1___fltol
  7999     15D0  0021               	movlb	1	; select bank1
  8000     15D1  0821               	movf	(?i1___fltol+1)^(0+128),w
  8001     15D2  00D6               	movwf	(_i_ref+1)^(0+128)
  8002     15D3  0820               	movf	?i1___fltol^(0+128),w
  8003     15D4  00D5               	movwf	_i_ref^(0+128)
  8004     15D5                     i1l4677:
  8005                           
  8006                           ;charger_discharger.c: 176:             if (data[4] == 0x3A)
  8007     15D5  303A               	movlw	58
  8008     15D6  0633               	xorwf	(command_interpreter@data^(0+128)+4),w
  8009     15D7  1D03               	btfss	3,2
  8010     15D8  2DDA               	goto	u582_21
  8011     15D9  2DDB               	goto	u582_20
  8012     15DA                     u582_21:
  8013     15DA  2DDC               	goto	i1l4681
  8014     15DB                     u582_20:
  8015     15DB  2E3B               	goto	i1l4687
  8016     15DC                     i1l4681:
  8017     15DC  3020               	movlw	32
  8018     15DD  0633               	xorwf	(command_interpreter@data^(0+128)+4),w
  8019     15DE  1D03               	btfss	3,2
  8020     15DF  2DE1               	goto	u583_21
  8021     15E0  2DE2               	goto	u583_20
  8022     15E1                     u583_21:
  8023     15E1  2E3B               	goto	i1l4687
  8024     15E2                     u583_20:
  8025     15E2                     i1l4683:
  8026                           
  8027                           ;charger_discharger.c: 181:             {;charger_discharger.c: 183:                 cmo
      +                          de = 0;
  8028     15E2  01EC               	clrf	_cmode^(0+128)
  8029     15E3                     i1l4685:
  8030                           
  8031                           ;charger_discharger.c: 184:                 v_ref = ( ( (float) const_vol * 4096.0 ) / 5
      +                          000.0 ) + 0.5 ;
  8032     15E3  303F               	movlw	63
  8033     15E4  0020               	movlb	0	; select bank0
  8034     15E5  00A3               	movwf	i1___fladd@b+3
  8035     15E6  3000               	movlw	0
  8036     15E7  00A2               	movwf	i1___fladd@b+2
  8037     15E8  3000               	movlw	0
  8038     15E9  00A1               	movwf	i1___fladd@b+1
  8039     15EA  3000               	movlw	0
  8040     15EB  00A0               	movwf	i1___fladd@b
  8041     15EC  3045               	movlw	69
  8042     15ED  00D9               	movwf	i1___fldiv@a+3
  8043     15EE  309C               	movlw	156
  8044     15EF  00D8               	movwf	i1___fldiv@a+2
  8045     15F0  3040               	movlw	64
  8046     15F1  00D7               	movwf	i1___fldiv@a+1
  8047     15F2  3000               	movlw	0
  8048     15F3  00D6               	movwf	i1___fldiv@a
  8049     15F4  3045               	movlw	69
  8050     15F5  00BF               	movwf	i1___flmul@b+3
  8051     15F6  3080               	movlw	128
  8052     15F7  00BE               	movwf	i1___flmul@b+2
  8053     15F8  3000               	movlw	0
  8054     15F9  00BD               	movwf	i1___flmul@b+1
  8055     15FA  3000               	movlw	0
  8056     15FB  00BC               	movwf	i1___flmul@b
  8057     15FC  0021               	movlb	1	; select bank1
  8058     15FD  085B               	movf	_const_vol^(0+128),w
  8059     15FE  00F0               	movwf	i1___xxtofl@val
  8060     15FF  085C               	movf	(_const_vol+1)^(0+128),w
  8061     1600  00F1               	movwf	i1___xxtofl@val+1
  8062     1601  01F2               	clrf	i1___xxtofl@val+2
  8063     1602  01F3               	clrf	i1___xxtofl@val+3
  8064     1603  3000               	movlw	0
  8065     1604  3192  22B4  3195   	fcall	i1___xxtofl
  8066     1607  0873               	movf	?i1___xxtofl+3,w
  8067     1608  0020               	movlb	0	; select bank0
  8068     1609  00C3               	movwf	i1___flmul@a+3
  8069     160A  0872               	movf	?i1___xxtofl+2,w
  8070     160B  00C2               	movwf	i1___flmul@a+2
  8071     160C  0871               	movf	?i1___xxtofl+1,w
  8072     160D  00C1               	movwf	i1___flmul@a+1
  8073     160E  0870               	movf	?i1___xxtofl,w
  8074     160F  00C0               	movwf	i1___flmul@a
  8075     1610  3185  2534  3195   	fcall	i1___flmul
  8076     1613  0020               	movlb	0	; select bank0
  8077     1614  083F               	movf	?i1___flmul+3,w
  8078     1615  00DD               	movwf	i1___fldiv@b+3
  8079     1616  083E               	movf	?i1___flmul+2,w
  8080     1617  00DC               	movwf	i1___fldiv@b+2
  8081     1618  083D               	movf	?i1___flmul+1,w
  8082     1619  00DB               	movwf	i1___fldiv@b+1
  8083     161A  083C               	movf	?i1___flmul,w
  8084     161B  00DA               	movwf	i1___fldiv@b
  8085     161C  3196  2656  3195   	fcall	i1___fldiv
  8086     161F  0020               	movlb	0	; select bank0
  8087     1620  0859               	movf	?i1___fldiv+3,w
  8088     1621  00A7               	movwf	i1___fladd@a+3
  8089     1622  0858               	movf	?i1___fldiv+2,w
  8090     1623  00A6               	movwf	i1___fladd@a+2
  8091     1624  0857               	movf	?i1___fldiv+1,w
  8092     1625  00A5               	movwf	i1___fladd@a+1
  8093     1626  0856               	movf	?i1___fldiv,w
  8094     1627  00A4               	movwf	i1___fladd@a
  8095     1628  318D  25F8  3195   	fcall	i1___fladd
  8096     162B  0020               	movlb	0	; select bank0
  8097     162C  0823               	movf	?i1___fladd+3,w
  8098     162D  0023               	movlb	3	; select bank3
  8099     162E  00A7               	movwf	(_v_ref+3)^(0+384)
  8100     162F  0020               	movlb	0	; select bank0
  8101     1630  0822               	movf	?i1___fladd+2,w
  8102     1631  0023               	movlb	3	; select bank3
  8103     1632  00A6               	movwf	(_v_ref+2)^(0+384)
  8104     1633  0020               	movlb	0	; select bank0
  8105     1634  0821               	movf	?i1___fladd+1,w
  8106     1635  0023               	movlb	3	; select bank3
  8107     1636  00A5               	movwf	(_v_ref+1)^(0+384)
  8108     1637  0020               	movlb	0	; select bank0
  8109     1638  0820               	movf	?i1___fladd,w
  8110     1639  0023               	movlb	3	; select bank3
  8111     163A  00A4               	movwf	_v_ref^(0+384)
  8112     163B                     i1l4687:
  8113                           
  8114                           ;charger_discharger.c: 188:             return test = 0;
  8115     163B  0021               	movlb	1	; select bank1
  8116     163C  01C3               	clrf	command_interpreter@test^(0+128)
  8117     163D  3000               	movlw	0
  8118     163E  2E55               	goto	i1l319
  8119     163F                     i1l4693:
  8120     163F  0844               	movf	command_interpreter@subcommand^(0+128),w
  8121     1640  00AD               	movwf	??_command_interpreter^(0+128)
  8122     1641  01AE               	clrf	(??_command_interpreter^(0+128)+1)
  8123                           
  8124                           ; Switch on 2 bytes has been partitioned into a top level switch of size 1, and 1 sub-sw
      +                          itches
  8125                           ; Switch size 1, requested type "simple"
  8126                           ; Number of cases is 1, Range of values is 0 to 0
  8127                           ; switch strategies available:
  8128                           ; Name         Instructions Cycles
  8129                           ; simple_byte            4     3 (average)
  8130                           ; direct_byte            8     6 (fixed)
  8131                           ; jumptable            260     6 (fixed)
  8132                           ;	Chosen strategy is simple_byte
  8133     1642  082E               	movf	(??_command_interpreter+1)^(0+128),w
  8134     1643  3A00               	xorlw	0	; case 0
  8135     1644  1903               	skipnz
  8136     1645  2E47               	goto	i1l5427
  8137     1646  2E3B               	goto	i1l4687
  8138     1647                     i1l5427:
  8139                           
  8140                           ; Switch size 1, requested type "simple"
  8141                           ; Number of cases is 4, Range of values is 67 to 86
  8142                           ; switch strategies available:
  8143                           ; Name         Instructions Cycles
  8144                           ; simple_byte           13     7 (average)
  8145                           ; direct_byte           49     9 (fixed)
  8146                           ; jumptable            263     9 (fixed)
  8147                           ;	Chosen strategy is simple_byte
  8148     1647  082D               	movf	??_command_interpreter^(0+128),w
  8149     1648  3A43               	xorlw	67	; case 67
  8150     1649  1903               	skipnz
  8151     164A  2D67               	goto	i1l4667
  8152     164B  3A0E               	xorlw	14	; case 77
  8153     164C  1903               	skipnz
  8154     164D  2D3F               	goto	i1l4641
  8155     164E  3A02               	xorlw	2	; case 79
  8156     164F  1903               	skipnz
  8157     1650  2D3F               	goto	i1l4647
  8158     1651  3A19               	xorlw	25	; case 86
  8159     1652  1903               	skipnz
  8160     1653  2DD5               	goto	i1l4677
  8161     1654  2E3B               	goto	i1l4687
  8162     1655                     i1l319:
  8163     1655  0008               	return
  8164     1656                     __end_of_command_interpreter:
  8165                           
  8166                           	psect	text21
  8167     12B4                     __ptext21:	
  8168 ;; *************** function i1___xxtofl *****************
  8169 ;; Defined at:
  8170 ;;		line 10 in file "C:\Program Files\Microchip\xc8\v2.40\pic\sources\c99\common\xxtofl.c"
  8171 ;; Parameters:    Size  Location     Type
  8172 ;;  sign            1    wreg     unsigned char 
  8173 ;;  val             4    0[COMMON] long 
  8174 ;; Auto vars:     Size  Location     Type
  8175 ;;  sign            1    8[COMMON] unsigned char 
  8176 ;;  arg             4   10[COMMON] unsigned long 
  8177 ;;  exp             1    9[COMMON] unsigned char 
  8178 ;; Return value:  Size  Location     Type
  8179 ;;                  4    0[COMMON] unsigned char 
  8180 ;; Registers used:
  8181 ;;		wreg, status,2, status,0
  8182 ;; Tracked objects:
  8183 ;;		On entry : 0/0
  8184 ;;		On exit  : 0/0
  8185 ;;		Unchanged: 0/0
  8186 ;; Data sizes:     COMMON   BANK0   BANK1   BANK2   BANK3   BANK4   BANK5   BANK6   BANK7   BANK8   BANK9  BANK10  BANK1
      +1  BANK12
  8187 ;;      Params:         4       0       0       0       0       0       0       0       0       0       0       0       
      +0       0
  8188 ;;      Locals:         6       0       0       0       0       0       0       0       0       0       0       0       
      +0       0
  8189 ;;      Temps:          4       0       0       0       0       0       0       0       0       0       0       0       
      +0       0
  8190 ;;      Totals:        14       0       0       0       0       0       0       0       0       0       0       0       
      +0       0
  8191 ;;Total ram usage:       14 bytes
  8192 ;; Hardware stack levels used: 1
  8193 ;; This function calls:
  8194 ;;		Nothing
  8195 ;; This function is called by:
  8196 ;;		_command_interpreter
  8197 ;;		_control_loop
  8198 ;; This function uses a non-reentrant model
  8199 ;;
  8200                           
  8201     12B4                     i1___xxtofl:	
  8202                           ;psect for function i1___xxtofl
  8203                           
  8204                           
  8205                           ;incstack = 0
  8206                           ; Regs used in i1___xxtofl: [wreg+status,2+status,0]
  8207                           ;i1___xxtofl@sign stored from wreg
  8208     12B4  00F8               	movwf	i1___xxtofl@sign
  8209     12B5                     i1l4377:
  8210     12B5  0878               	movf	i1___xxtofl@sign,w
  8211     12B6  1903               	btfsc	3,2
  8212     12B7  2AB9               	goto	u563_21
  8213     12B8  2ABA               	goto	u563_20
  8214     12B9                     u563_21:
  8215     12B9  2ACE               	goto	i1l4383
  8216     12BA                     u563_20:
  8217     12BA                     i1l4379:
  8218     12BA  1FF3               	btfss	i1___xxtofl@val+3,7
  8219     12BB  2ABD               	goto	u564_21
  8220     12BC  2ABE               	goto	u564_20
  8221     12BD                     u564_21:
  8222     12BD  2ACE               	goto	i1l4383
  8223     12BE                     u564_20:
  8224     12BE                     i1l4381:
  8225     12BE  0970               	comf	i1___xxtofl@val,w
  8226     12BF  00FA               	movwf	i1___xxtofl@arg
  8227     12C0  0971               	comf	i1___xxtofl@val+1,w
  8228     12C1  00FB               	movwf	i1___xxtofl@arg+1
  8229     12C2  0972               	comf	i1___xxtofl@val+2,w
  8230     12C3  00FC               	movwf	i1___xxtofl@arg+2
  8231     12C4  0973               	comf	i1___xxtofl@val+3,w
  8232     12C5  00FD               	movwf	i1___xxtofl@arg+3
  8233     12C6  0AFA               	incf	i1___xxtofl@arg,f
  8234     12C7  1903               	skipnz
  8235     12C8  0AFB               	incf	i1___xxtofl@arg+1,f
  8236     12C9  1903               	skipnz
  8237     12CA  0AFC               	incf	i1___xxtofl@arg+2,f
  8238     12CB  1903               	skipnz
  8239     12CC  0AFD               	incf	i1___xxtofl@arg+3,f
  8240     12CD  2AD6               	goto	i1l1171
  8241     12CE                     i1l4383:
  8242     12CE  0873               	movf	i1___xxtofl@val+3,w
  8243     12CF  00FD               	movwf	i1___xxtofl@arg+3
  8244     12D0  0872               	movf	i1___xxtofl@val+2,w
  8245     12D1  00FC               	movwf	i1___xxtofl@arg+2
  8246     12D2  0871               	movf	i1___xxtofl@val+1,w
  8247     12D3  00FB               	movwf	i1___xxtofl@arg+1
  8248     12D4  0870               	movf	i1___xxtofl@val,w
  8249     12D5  00FA               	movwf	i1___xxtofl@arg
  8250     12D6                     i1l1171:
  8251     12D6  0873               	movf	i1___xxtofl@val+3,w
  8252     12D7  0472               	iorwf	i1___xxtofl@val+2,w
  8253     12D8  0471               	iorwf	i1___xxtofl@val+1,w
  8254     12D9  0470               	iorwf	i1___xxtofl@val,w
  8255     12DA  1D03               	skipz
  8256     12DB  2ADD               	goto	u565_21
  8257     12DC  2ADE               	goto	u565_20
  8258     12DD                     u565_21:
  8259     12DD  2AE7               	goto	i1l4389
  8260     12DE                     u565_20:
  8261     12DE                     i1l4385:
  8262     12DE  3000               	movlw	0
  8263     12DF  00F3               	movwf	?i1___xxtofl+3
  8264     12E0  3000               	movlw	0
  8265     12E1  00F2               	movwf	?i1___xxtofl+2
  8266     12E2  3000               	movlw	0
  8267     12E3  00F1               	movwf	?i1___xxtofl+1
  8268     12E4  3000               	movlw	0
  8269     12E5  00F0               	movwf	?i1___xxtofl
  8270     12E6  2B5D               	goto	i1l1173
  8271     12E7                     i1l4389:
  8272     12E7  3096               	movlw	150
  8273     12E8  00F9               	movwf	i1___xxtofl@exp
  8274     12E9  2AF5               	goto	i1l4393
  8275     12EA                     i1l4391:
  8276     12EA  3001               	movlw	1
  8277     12EB  00F4               	movwf	??i1___xxtofl
  8278     12EC  0874               	movf	??i1___xxtofl,w
  8279     12ED  07F9               	addwf	i1___xxtofl@exp,f
  8280     12EE  3001               	movlw	1
  8281     12EF                     u566_25:
  8282     12EF  36FD               	lsrf	i1___xxtofl@arg+3,f
  8283     12F0  0CFC               	rrf	i1___xxtofl@arg+2,f
  8284     12F1  0CFB               	rrf	i1___xxtofl@arg+1,f
  8285     12F2  0CFA               	rrf	i1___xxtofl@arg,f
  8286     12F3  0B89               	decfsz	9,f
  8287     12F4  2AEF               	goto	u566_25
  8288     12F5                     i1l4393:
  8289     12F5  30FE               	movlw	254
  8290     12F6  057D               	andwf	i1___xxtofl@arg+3,w
  8291     12F7  1D03               	btfss	3,2
  8292     12F8  2AFA               	goto	u567_21
  8293     12F9  2AFB               	goto	u567_20
  8294     12FA                     u567_21:
  8295     12FA  2AEA               	goto	i1l4391
  8296     12FB                     u567_20:
  8297     12FB  2B0F               	goto	i1l1177
  8298     12FC                     i1l4395:
  8299     12FC  3001               	movlw	1
  8300     12FD  00F4               	movwf	??i1___xxtofl
  8301     12FE  0874               	movf	??i1___xxtofl,w
  8302     12FF  07F9               	addwf	i1___xxtofl@exp,f
  8303     1300                     i1l4397:
  8304     1300  3001               	movlw	1
  8305     1301  07FA               	addwf	i1___xxtofl@arg,f
  8306     1302  3000               	movlw	0
  8307     1303  3DFB               	addwfc	i1___xxtofl@arg+1,f
  8308     1304  3000               	movlw	0
  8309     1305  3DFC               	addwfc	i1___xxtofl@arg+2,f
  8310     1306  3000               	movlw	0
  8311     1307  3DFD               	addwfc	i1___xxtofl@arg+3,f
  8312     1308                     i1l4399:
  8313     1308  3001               	movlw	1
  8314     1309                     u568_25:
  8315     1309  36FD               	lsrf	i1___xxtofl@arg+3,f
  8316     130A  0CFC               	rrf	i1___xxtofl@arg+2,f
  8317     130B  0CFB               	rrf	i1___xxtofl@arg+1,f
  8318     130C  0CFA               	rrf	i1___xxtofl@arg,f
  8319     130D  0B89               	decfsz	9,f
  8320     130E  2B09               	goto	u568_25
  8321     130F                     i1l1177:
  8322     130F  30FF               	movlw	255
  8323     1310  057D               	andwf	i1___xxtofl@arg+3,w
  8324     1311  1D03               	btfss	3,2
  8325     1312  2B14               	goto	u569_21
  8326     1313  2B15               	goto	u569_20
  8327     1314                     u569_21:
  8328     1314  2AFC               	goto	i1l4395
  8329     1315                     u569_20:
  8330     1315  2B1F               	goto	i1l4403
  8331     1316                     i1l4401:
  8332     1316  3001               	movlw	1
  8333     1317  02F9               	subwf	i1___xxtofl@exp,f
  8334     1318  3001               	movlw	1
  8335     1319                     u570_25:
  8336     1319  35FA               	lslf	i1___xxtofl@arg,f
  8337     131A  0DFB               	rlf	i1___xxtofl@arg+1,f
  8338     131B  0DFC               	rlf	i1___xxtofl@arg+2,f
  8339     131C  0DFD               	rlf	i1___xxtofl@arg+3,f
  8340     131D  0B89               	decfsz	9,f
  8341     131E  2B19               	goto	u570_25
  8342     131F                     i1l4403:
  8343     131F  1BFC               	btfsc	i1___xxtofl@arg+2,7
  8344     1320  2B22               	goto	u571_21
  8345     1321  2B23               	goto	u571_20
  8346     1322                     u571_21:
  8347     1322  2B29               	goto	i1l1184
  8348     1323                     u571_20:
  8349     1323                     i1l4405:
  8350     1323  3002               	movlw	2
  8351     1324  0279               	subwf	i1___xxtofl@exp,w
  8352     1325  1803               	skipnc
  8353     1326  2B28               	goto	u572_21
  8354     1327  2B29               	goto	u572_20
  8355     1328                     u572_21:
  8356     1328  2B16               	goto	i1l4401
  8357     1329                     u572_20:
  8358     1329                     i1l1184:
  8359     1329  1879               	btfsc	i1___xxtofl@exp,0
  8360     132A  2B2C               	goto	u573_21
  8361     132B  2B2D               	goto	u573_20
  8362     132C                     u573_21:
  8363     132C  2B35               	goto	i1l1185
  8364     132D                     u573_20:
  8365     132D                     i1l4407:
  8366     132D  30FF               	movlw	255
  8367     132E  05FA               	andwf	i1___xxtofl@arg,f
  8368     132F  30FF               	movlw	255
  8369     1330  05FB               	andwf	i1___xxtofl@arg+1,f
  8370     1331  307F               	movlw	127
  8371     1332  05FC               	andwf	i1___xxtofl@arg+2,f
  8372     1333  30FF               	movlw	255
  8373     1334  05FD               	andwf	i1___xxtofl@arg+3,f
  8374     1335                     i1l1185:
  8375     1335  1003               	clrc
  8376     1336  0CF9               	rrf	i1___xxtofl@exp,f
  8377     1337                     i1l4409:
  8378     1337  0879               	movf	i1___xxtofl@exp,w
  8379     1338  00F4               	movwf	??i1___xxtofl
  8380     1339  01F5               	clrf	??i1___xxtofl+1
  8381     133A  01F6               	clrf	??i1___xxtofl+2
  8382     133B  01F7               	clrf	??i1___xxtofl+3
  8383     133C  3018               	movlw	24
  8384     133D                     u574_25:
  8385     133D  35F4               	lslf	??i1___xxtofl,f
  8386     133E  0DF5               	rlf	??i1___xxtofl+1,f
  8387     133F  0DF6               	rlf	??i1___xxtofl+2,f
  8388     1340  0DF7               	rlf	??i1___xxtofl+3,f
  8389     1341                     u574_20:
  8390     1341  0B89               	decfsz	9,f
  8391     1342  2B3D               	goto	u574_25
  8392     1343  0874               	movf	??i1___xxtofl,w
  8393     1344  04FA               	iorwf	i1___xxtofl@arg,f
  8394     1345  0875               	movf	??i1___xxtofl+1,w
  8395     1346  04FB               	iorwf	i1___xxtofl@arg+1,f
  8396     1347  0876               	movf	??i1___xxtofl+2,w
  8397     1348  04FC               	iorwf	i1___xxtofl@arg+2,f
  8398     1349  0877               	movf	??i1___xxtofl+3,w
  8399     134A  04FD               	iorwf	i1___xxtofl@arg+3,f
  8400     134B                     i1l4411:
  8401     134B  0878               	movf	i1___xxtofl@sign,w
  8402     134C  1903               	btfsc	3,2
  8403     134D  2B4F               	goto	u575_21
  8404     134E  2B50               	goto	u575_20
  8405     134F                     u575_21:
  8406     134F  2B55               	goto	i1l4417
  8407     1350                     u575_20:
  8408     1350                     i1l4413:
  8409     1350  1FF3               	btfss	i1___xxtofl@val+3,7
  8410     1351  2B53               	goto	u576_21
  8411     1352  2B54               	goto	u576_20
  8412     1353                     u576_21:
  8413     1353  2B55               	goto	i1l4417
  8414     1354                     u576_20:
  8415     1354                     i1l4415:
  8416     1354  17FD               	bsf	i1___xxtofl@arg+3,7
  8417     1355                     i1l4417:
  8418     1355  087D               	movf	i1___xxtofl@arg+3,w
  8419     1356  00F3               	movwf	?i1___xxtofl+3
  8420     1357  087C               	movf	i1___xxtofl@arg+2,w
  8421     1358  00F2               	movwf	?i1___xxtofl+2
  8422     1359  087B               	movf	i1___xxtofl@arg+1,w
  8423     135A  00F1               	movwf	?i1___xxtofl+1
  8424     135B  087A               	movf	i1___xxtofl@arg,w
  8425     135C  00F0               	movwf	?i1___xxtofl
  8426     135D                     i1l1173:
  8427     135D  0008               	return
  8428     135E                     __end_ofi1___xxtofl:
  8429                           
  8430                           	psect	text22
  8431     0534                     __ptext22:	
  8432 ;; *************** function i1___flmul *****************
  8433 ;; Defined at:
  8434 ;;		line 8 in file "C:\Program Files\Microchip\xc8\v2.40\pic\sources\c99\common\sprcmul.c"
  8435 ;; Parameters:    Size  Location     Type
  8436 ;;  b               4   28[BANK0 ] unsigned char 
  8437 ;;  a               4   32[BANK0 ] unsigned char 
  8438 ;; Auto vars:     Size  Location     Type
  8439 ;;  prod            4   48[BANK0 ] struct .
  8440 ;;  grs             4   42[BANK0 ] unsigned long 
  8441 ;;  temp            2   52[BANK0 ] struct .
  8442 ;;  bexp            1   47[BANK0 ] unsigned char 
  8443 ;;  aexp            1   46[BANK0 ] unsigned char 
  8444 ;;  sign            1   41[BANK0 ] unsigned char 
  8445 ;; Return value:  Size  Location     Type
  8446 ;;                  4   28[BANK0 ] unsigned char 
  8447 ;; Registers used:
  8448 ;;		wreg, status,2, status,0, pclath, cstack
  8449 ;; Tracked objects:
  8450 ;;		On entry : 0/0
  8451 ;;		On exit  : 0/0
  8452 ;;		Unchanged: 0/0
  8453 ;; Data sizes:     COMMON   BANK0   BANK1   BANK2   BANK3   BANK4   BANK5   BANK6   BANK7   BANK8   BANK9  BANK10  BANK1
      +1  BANK12
  8454 ;;      Params:         0       8       0       0       0       0       0       0       0       0       0       0       
      +0       0
  8455 ;;      Locals:         0      13       0       0       0       0       0       0       0       0       0       0       
      +0       0
  8456 ;;      Temps:          0       5       0       0       0       0       0       0       0       0       0       0       
      +0       0
  8457 ;;      Totals:         0      26       0       0       0       0       0       0       0       0       0       0       
      +0       0
  8458 ;;Total ram usage:       26 bytes
  8459 ;; Hardware stack levels used: 1
  8460 ;; Hardware stack levels required when called: 1
  8461 ;; This function calls:
  8462 ;;		i1__Umul8_16
  8463 ;; This function is called by:
  8464 ;;		_command_interpreter
  8465 ;;		_pid
  8466 ;; This function uses a non-reentrant model
  8467 ;;
  8468                           
  8469     0534                     i1___flmul:	
  8470                           ;psect for function i1___flmul
  8471                           
  8472     0534                     i1l3461:	
  8473                           ;incstack = 0
  8474                           ; Regs used in i1___flmul: [wreg+status,2+status,0+pclath+cstack]
  8475                           
  8476     0534  0020               	movlb	0	; select bank0
  8477     0535  083F               	movf	i1___flmul@b+3,w
  8478     0536  3980               	andlw	128
  8479     0537  00C9               	movwf	i1___flmul@sign
  8480     0538                     i1l3463:
  8481     0538  353F               	lslf	i1___flmul@b+3,w
  8482     0539  00CF               	movwf	i1___flmul@bexp
  8483     053A                     i1l3465:
  8484     053A  1FBE               	btfss	i1___flmul@b+2,7
  8485     053B  2D3D               	goto	u385_21
  8486     053C  2D3E               	goto	u385_20
  8487     053D                     u385_21:
  8488     053D  2D3F               	goto	i1l3469
  8489     053E                     u385_20:
  8490     053E                     i1l3467:
  8491     053E  144F               	bsf	i1___flmul@bexp,0
  8492     053F                     i1l3469:
  8493     053F  084F               	movf	i1___flmul@bexp,w
  8494     0540  1903               	btfsc	3,2
  8495     0541  2D43               	goto	u386_21
  8496     0542  2D44               	goto	u386_20
  8497     0543                     u386_21:
  8498     0543  2D53               	goto	i1l3477
  8499     0544                     u386_20:
  8500     0544                     i1l3471:
  8501     0544  0A4F               	incf	i1___flmul@bexp,w
  8502     0545  1D03               	btfss	3,2
  8503     0546  2D48               	goto	u387_21
  8504     0547  2D49               	goto	u387_20
  8505     0548                     u387_21:
  8506     0548  2D51               	goto	i1l3475
  8507     0549                     u387_20:
  8508     0549                     i1l3473:
  8509     0549  3000               	movlw	0
  8510     054A  00BF               	movwf	i1___flmul@b+3
  8511     054B  3000               	movlw	0
  8512     054C  00BE               	movwf	i1___flmul@b+2
  8513     054D  3000               	movlw	0
  8514     054E  00BD               	movwf	i1___flmul@b+1
  8515     054F  3000               	movlw	0
  8516     0550  00BC               	movwf	i1___flmul@b
  8517     0551                     i1l3475:
  8518     0551  17BE               	bsf	i1___flmul@b+2,7
  8519     0552  2D5B               	goto	i1l3479
  8520     0553                     i1l3477:
  8521     0553  3000               	movlw	0
  8522     0554  00BF               	movwf	i1___flmul@b+3
  8523     0555  3000               	movlw	0
  8524     0556  00BE               	movwf	i1___flmul@b+2
  8525     0557  3000               	movlw	0
  8526     0558  00BD               	movwf	i1___flmul@b+1
  8527     0559  3000               	movlw	0
  8528     055A  00BC               	movwf	i1___flmul@b
  8529     055B                     i1l3479:
  8530     055B  0843               	movf	i1___flmul@a+3,w
  8531     055C  3980               	andlw	128
  8532     055D  00C4               	movwf	??i1___flmul
  8533     055E  0844               	movf	??i1___flmul,w
  8534     055F  06C9               	xorwf	i1___flmul@sign,f
  8535     0560                     i1l3481:
  8536     0560  3543               	lslf	i1___flmul@a+3,w
  8537     0561  00CE               	movwf	i1___flmul@aexp
  8538     0562                     i1l3483:
  8539     0562  1FC2               	btfss	i1___flmul@a+2,7
  8540     0563  2D65               	goto	u388_21
  8541     0564  2D66               	goto	u388_20
  8542     0565                     u388_21:
  8543     0565  2D67               	goto	i1l3487
  8544     0566                     u388_20:
  8545     0566                     i1l3485:
  8546     0566  144E               	bsf	i1___flmul@aexp,0
  8547     0567                     i1l3487:
  8548     0567  084E               	movf	i1___flmul@aexp,w
  8549     0568  1903               	btfsc	3,2
  8550     0569  2D6B               	goto	u389_21
  8551     056A  2D6C               	goto	u389_20
  8552     056B                     u389_21:
  8553     056B  2D7B               	goto	i1l3495
  8554     056C                     u389_20:
  8555     056C                     i1l3489:
  8556     056C  0A4E               	incf	i1___flmul@aexp,w
  8557     056D  1D03               	btfss	3,2
  8558     056E  2D70               	goto	u390_21
  8559     056F  2D71               	goto	u390_20
  8560     0570                     u390_21:
  8561     0570  2D79               	goto	i1l3493
  8562     0571                     u390_20:
  8563     0571                     i1l3491:
  8564     0571  3000               	movlw	0
  8565     0572  00C3               	movwf	i1___flmul@a+3
  8566     0573  3000               	movlw	0
  8567     0574  00C2               	movwf	i1___flmul@a+2
  8568     0575  3000               	movlw	0
  8569     0576  00C1               	movwf	i1___flmul@a+1
  8570     0577  3000               	movlw	0
  8571     0578  00C0               	movwf	i1___flmul@a
  8572     0579                     i1l3493:
  8573     0579  17C2               	bsf	i1___flmul@a+2,7
  8574     057A  2D83               	goto	i1l3497
  8575     057B                     i1l3495:
  8576     057B  3000               	movlw	0
  8577     057C  00C3               	movwf	i1___flmul@a+3
  8578     057D  3000               	movlw	0
  8579     057E  00C2               	movwf	i1___flmul@a+2
  8580     057F  3000               	movlw	0
  8581     0580  00C1               	movwf	i1___flmul@a+1
  8582     0581  3000               	movlw	0
  8583     0582  00C0               	movwf	i1___flmul@a
  8584     0583                     i1l3497:
  8585     0583  084E               	movf	i1___flmul@aexp,w
  8586     0584  1903               	btfsc	3,2
  8587     0585  2D87               	goto	u391_21
  8588     0586  2D88               	goto	u391_20
  8589     0587                     u391_21:
  8590     0587  2D8D               	goto	i1l3501
  8591     0588                     u391_20:
  8592     0588                     i1l3499:
  8593     0588  084F               	movf	i1___flmul@bexp,w
  8594     0589  1D03               	btfss	3,2
  8595     058A  2D8C               	goto	u392_21
  8596     058B  2D8D               	goto	u392_20
  8597     058C                     u392_21:
  8598     058C  2D96               	goto	i1l3505
  8599     058D                     u392_20:
  8600     058D                     i1l3501:
  8601     058D  3000               	movlw	0
  8602     058E  00BF               	movwf	?i1___flmul+3
  8603     058F  3000               	movlw	0
  8604     0590  00BE               	movwf	?i1___flmul+2
  8605     0591  3000               	movlw	0
  8606     0592  00BD               	movwf	?i1___flmul+1
  8607     0593  3000               	movlw	0
  8608     0594  00BC               	movwf	?i1___flmul
  8609     0595  2F6E               	goto	i1l1127
  8610     0596                     i1l3505:
  8611     0596  083C               	movf	i1___flmul@b,w
  8612     0597  00F0               	movwf	i1__Umul8_16@multiplicand
  8613     0598  0842               	movf	i1___flmul@a+2,w
  8614     0599  319E  269C  3185   	fcall	i1__Umul8_16
  8615     059C  0871               	movf	?i1__Umul8_16+1,w
  8616     059D  0020               	movlb	0	; select bank0
  8617     059E  00D5               	movwf	i1___flmul@temp+1
  8618     059F  0870               	movf	?i1__Umul8_16,w
  8619     05A0  00D4               	movwf	i1___flmul@temp
  8620     05A1                     i1l3507:
  8621     05A1  0854               	movf	i1___flmul@temp,w
  8622     05A2  00C4               	movwf	??i1___flmul
  8623     05A3  01C5               	clrf	??i1___flmul+1
  8624     05A4  01C6               	clrf	??i1___flmul+2
  8625     05A5  01C7               	clrf	??i1___flmul+3
  8626     05A6  0847               	movf	??i1___flmul+3,w
  8627     05A7  00CD               	movwf	i1___flmul@grs+3
  8628     05A8  0846               	movf	??i1___flmul+2,w
  8629     05A9  00CC               	movwf	i1___flmul@grs+2
  8630     05AA  0845               	movf	??i1___flmul+1,w
  8631     05AB  00CB               	movwf	i1___flmul@grs+1
  8632     05AC  0844               	movf	??i1___flmul,w
  8633     05AD  00CA               	movwf	i1___flmul@grs
  8634     05AE                     i1l3509:
  8635     05AE  0855               	movf	i1___flmul@temp+1,w
  8636     05AF  00C4               	movwf	??i1___flmul
  8637     05B0  01C5               	clrf	??i1___flmul+1
  8638     05B1  01C6               	clrf	??i1___flmul+2
  8639     05B2  01C7               	clrf	??i1___flmul+3
  8640     05B3  0847               	movf	??i1___flmul+3,w
  8641     05B4  00D3               	movwf	i1___flmul@prod+3
  8642     05B5  0846               	movf	??i1___flmul+2,w
  8643     05B6  00D2               	movwf	i1___flmul@prod+2
  8644     05B7  0845               	movf	??i1___flmul+1,w
  8645     05B8  00D1               	movwf	i1___flmul@prod+1
  8646     05B9  0844               	movf	??i1___flmul,w
  8647     05BA  00D0               	movwf	i1___flmul@prod
  8648     05BB  083D               	movf	i1___flmul@b+1,w
  8649     05BC  00F0               	movwf	i1__Umul8_16@multiplicand
  8650     05BD  0841               	movf	i1___flmul@a+1,w
  8651     05BE  319E  269C  3185   	fcall	i1__Umul8_16
  8652     05C1  0871               	movf	?i1__Umul8_16+1,w
  8653     05C2  0020               	movlb	0	; select bank0
  8654     05C3  00D5               	movwf	i1___flmul@temp+1
  8655     05C4  0870               	movf	?i1__Umul8_16,w
  8656     05C5  00D4               	movwf	i1___flmul@temp
  8657     05C6                     i1l3511:
  8658     05C6  0854               	movf	i1___flmul@temp,w
  8659     05C7  00C4               	movwf	??i1___flmul
  8660     05C8  01C5               	clrf	??i1___flmul+1
  8661     05C9  01C6               	clrf	??i1___flmul+2
  8662     05CA  01C7               	clrf	??i1___flmul+3
  8663     05CB  0844               	movf	??i1___flmul,w
  8664     05CC  07CA               	addwf	i1___flmul@grs,f
  8665     05CD  0845               	movf	??i1___flmul+1,w
  8666     05CE  3DCB               	addwfc	i1___flmul@grs+1,f
  8667     05CF  0846               	movf	??i1___flmul+2,w
  8668     05D0  3DCC               	addwfc	i1___flmul@grs+2,f
  8669     05D1  0847               	movf	??i1___flmul+3,w
  8670     05D2  3DCD               	addwfc	i1___flmul@grs+3,f
  8671     05D3                     i1l3513:
  8672     05D3  0855               	movf	i1___flmul@temp+1,w
  8673     05D4  00C4               	movwf	??i1___flmul
  8674     05D5  01C5               	clrf	??i1___flmul+1
  8675     05D6  01C6               	clrf	??i1___flmul+2
  8676     05D7  01C7               	clrf	??i1___flmul+3
  8677     05D8  0844               	movf	??i1___flmul,w
  8678     05D9  07D0               	addwf	i1___flmul@prod,f
  8679     05DA  0845               	movf	??i1___flmul+1,w
  8680     05DB  3DD1               	addwfc	i1___flmul@prod+1,f
  8681     05DC  0846               	movf	??i1___flmul+2,w
  8682     05DD  3DD2               	addwfc	i1___flmul@prod+2,f
  8683     05DE  0847               	movf	??i1___flmul+3,w
  8684     05DF  3DD3               	addwfc	i1___flmul@prod+3,f
  8685     05E0  083E               	movf	i1___flmul@b+2,w
  8686     05E1  00F0               	movwf	i1__Umul8_16@multiplicand
  8687     05E2  0840               	movf	i1___flmul@a,w
  8688     05E3  319E  269C  3185   	fcall	i1__Umul8_16
  8689     05E6  0871               	movf	?i1__Umul8_16+1,w
  8690     05E7  0020               	movlb	0	; select bank0
  8691     05E8  00D5               	movwf	i1___flmul@temp+1
  8692     05E9  0870               	movf	?i1__Umul8_16,w
  8693     05EA  00D4               	movwf	i1___flmul@temp
  8694     05EB                     i1l3515:
  8695     05EB  0854               	movf	i1___flmul@temp,w
  8696     05EC  00C4               	movwf	??i1___flmul
  8697     05ED  01C5               	clrf	??i1___flmul+1
  8698     05EE  01C6               	clrf	??i1___flmul+2
  8699     05EF  01C7               	clrf	??i1___flmul+3
  8700     05F0  0844               	movf	??i1___flmul,w
  8701     05F1  07CA               	addwf	i1___flmul@grs,f
  8702     05F2  0845               	movf	??i1___flmul+1,w
  8703     05F3  3DCB               	addwfc	i1___flmul@grs+1,f
  8704     05F4  0846               	movf	??i1___flmul+2,w
  8705     05F5  3DCC               	addwfc	i1___flmul@grs+2,f
  8706     05F6  0847               	movf	??i1___flmul+3,w
  8707     05F7  3DCD               	addwfc	i1___flmul@grs+3,f
  8708     05F8                     i1l3517:
  8709     05F8  0855               	movf	i1___flmul@temp+1,w
  8710     05F9  00C4               	movwf	??i1___flmul
  8711     05FA  01C5               	clrf	??i1___flmul+1
  8712     05FB  01C6               	clrf	??i1___flmul+2
  8713     05FC  01C7               	clrf	??i1___flmul+3
  8714     05FD  0844               	movf	??i1___flmul,w
  8715     05FE  07D0               	addwf	i1___flmul@prod,f
  8716     05FF  0845               	movf	??i1___flmul+1,w
  8717     0600  3DD1               	addwfc	i1___flmul@prod+1,f
  8718     0601  0846               	movf	??i1___flmul+2,w
  8719     0602  3DD2               	addwfc	i1___flmul@prod+2,f
  8720     0603  0847               	movf	??i1___flmul+3,w
  8721     0604  3DD3               	addwfc	i1___flmul@prod+3,f
  8722     0605                     i1l3519:
  8723     0605  3008               	movlw	8
  8724     0606                     u393_25:
  8725     0606  35CA               	lslf	i1___flmul@grs,f
  8726     0607  0DCB               	rlf	i1___flmul@grs+1,f
  8727     0608  0DCC               	rlf	i1___flmul@grs+2,f
  8728     0609  0DCD               	rlf	i1___flmul@grs+3,f
  8729     060A  0B89               	decfsz	9,f
  8730     060B  2E06               	goto	u393_25
  8731     060C                     i1l3521:
  8732     060C  083D               	movf	i1___flmul@b+1,w
  8733     060D  00F0               	movwf	i1__Umul8_16@multiplicand
  8734     060E  0840               	movf	i1___flmul@a,w
  8735     060F  319E  269C  3185   	fcall	i1__Umul8_16
  8736     0612  0871               	movf	?i1__Umul8_16+1,w
  8737     0613  0020               	movlb	0	; select bank0
  8738     0614  00D5               	movwf	i1___flmul@temp+1
  8739     0615  0870               	movf	?i1__Umul8_16,w
  8740     0616  00D4               	movwf	i1___flmul@temp
  8741     0617                     i1l3523:
  8742     0617  0854               	movf	i1___flmul@temp,w
  8743     0618  07CA               	addwf	i1___flmul@grs,f
  8744     0619  0855               	movf	i1___flmul@temp+1,w
  8745     061A  3DCB               	addwfc	i1___flmul@grs+1,f
  8746     061B  3000               	movlw	0
  8747     061C  3DCC               	addwfc	i1___flmul@grs+2,f
  8748     061D  3DCD               	addwfc	i1___flmul@grs+3,f
  8749     061E                     i1l3525:
  8750     061E  083C               	movf	i1___flmul@b,w
  8751     061F  00F0               	movwf	i1__Umul8_16@multiplicand
  8752     0620  0841               	movf	i1___flmul@a+1,w
  8753     0621  319E  269C  3185   	fcall	i1__Umul8_16
  8754     0624  0871               	movf	?i1__Umul8_16+1,w
  8755     0625  0020               	movlb	0	; select bank0
  8756     0626  00D5               	movwf	i1___flmul@temp+1
  8757     0627  0870               	movf	?i1__Umul8_16,w
  8758     0628  00D4               	movwf	i1___flmul@temp
  8759     0629                     i1l3527:
  8760     0629  0854               	movf	i1___flmul@temp,w
  8761     062A  07CA               	addwf	i1___flmul@grs,f
  8762     062B  0855               	movf	i1___flmul@temp+1,w
  8763     062C  3DCB               	addwfc	i1___flmul@grs+1,f
  8764     062D  3000               	movlw	0
  8765     062E  3DCC               	addwfc	i1___flmul@grs+2,f
  8766     062F  3DCD               	addwfc	i1___flmul@grs+3,f
  8767     0630                     i1l3529:
  8768     0630  3008               	movlw	8
  8769     0631                     u394_25:
  8770     0631  35CA               	lslf	i1___flmul@grs,f
  8771     0632  0DCB               	rlf	i1___flmul@grs+1,f
  8772     0633  0DCC               	rlf	i1___flmul@grs+2,f
  8773     0634  0DCD               	rlf	i1___flmul@grs+3,f
  8774     0635  0B89               	decfsz	9,f
  8775     0636  2E31               	goto	u394_25
  8776     0637  083C               	movf	i1___flmul@b,w
  8777     0638  00F0               	movwf	i1__Umul8_16@multiplicand
  8778     0639  0840               	movf	i1___flmul@a,w
  8779     063A  319E  269C  3185   	fcall	i1__Umul8_16
  8780     063D  0871               	movf	?i1__Umul8_16+1,w
  8781     063E  0020               	movlb	0	; select bank0
  8782     063F  00D5               	movwf	i1___flmul@temp+1
  8783     0640  0870               	movf	?i1__Umul8_16,w
  8784     0641  00D4               	movwf	i1___flmul@temp
  8785     0642                     i1l3531:
  8786     0642  0854               	movf	i1___flmul@temp,w
  8787     0643  07CA               	addwf	i1___flmul@grs,f
  8788     0644  0855               	movf	i1___flmul@temp+1,w
  8789     0645  3DCB               	addwfc	i1___flmul@grs+1,f
  8790     0646  3000               	movlw	0
  8791     0647  3DCC               	addwfc	i1___flmul@grs+2,f
  8792     0648  3DCD               	addwfc	i1___flmul@grs+3,f
  8793     0649                     i1l3533:
  8794     0649  083D               	movf	i1___flmul@b+1,w
  8795     064A  00F0               	movwf	i1__Umul8_16@multiplicand
  8796     064B  0842               	movf	i1___flmul@a+2,w
  8797     064C  319E  269C  3185   	fcall	i1__Umul8_16
  8798     064F  0871               	movf	?i1__Umul8_16+1,w
  8799     0650  0020               	movlb	0	; select bank0
  8800     0651  00D5               	movwf	i1___flmul@temp+1
  8801     0652  0870               	movf	?i1__Umul8_16,w
  8802     0653  00D4               	movwf	i1___flmul@temp
  8803     0654  0854               	movf	i1___flmul@temp,w
  8804     0655  07D0               	addwf	i1___flmul@prod,f
  8805     0656  0855               	movf	i1___flmul@temp+1,w
  8806     0657  3DD1               	addwfc	i1___flmul@prod+1,f
  8807     0658  3000               	movlw	0
  8808     0659  3DD2               	addwfc	i1___flmul@prod+2,f
  8809     065A  3DD3               	addwfc	i1___flmul@prod+3,f
  8810     065B                     i1l3535:
  8811     065B  083E               	movf	i1___flmul@b+2,w
  8812     065C  00F0               	movwf	i1__Umul8_16@multiplicand
  8813     065D  0841               	movf	i1___flmul@a+1,w
  8814     065E  319E  269C  3185   	fcall	i1__Umul8_16
  8815     0661  0871               	movf	?i1__Umul8_16+1,w
  8816     0662  0020               	movlb	0	; select bank0
  8817     0663  00D5               	movwf	i1___flmul@temp+1
  8818     0664  0870               	movf	?i1__Umul8_16,w
  8819     0665  00D4               	movwf	i1___flmul@temp
  8820     0666                     i1l3537:
  8821     0666  0854               	movf	i1___flmul@temp,w
  8822     0667  07D0               	addwf	i1___flmul@prod,f
  8823     0668  0855               	movf	i1___flmul@temp+1,w
  8824     0669  3DD1               	addwfc	i1___flmul@prod+1,f
  8825     066A  3000               	movlw	0
  8826     066B  3DD2               	addwfc	i1___flmul@prod+2,f
  8827     066C  3DD3               	addwfc	i1___flmul@prod+3,f
  8828     066D  083E               	movf	i1___flmul@b+2,w
  8829     066E  00F0               	movwf	i1__Umul8_16@multiplicand
  8830     066F  0842               	movf	i1___flmul@a+2,w
  8831     0670  319E  269C  3185   	fcall	i1__Umul8_16
  8832     0673  0871               	movf	?i1__Umul8_16+1,w
  8833     0674  0020               	movlb	0	; select bank0
  8834     0675  00D5               	movwf	i1___flmul@temp+1
  8835     0676  0870               	movf	?i1__Umul8_16,w
  8836     0677  00D4               	movwf	i1___flmul@temp
  8837     0678                     i1l3539:
  8838     0678  0854               	movf	i1___flmul@temp,w
  8839     0679  00C4               	movwf	??i1___flmul
  8840     067A  0855               	movf	i1___flmul@temp+1,w
  8841     067B  00C5               	movwf	??i1___flmul+1
  8842     067C  01C6               	clrf	??i1___flmul+2
  8843     067D  01C7               	clrf	??i1___flmul+3
  8844     067E  3008               	movlw	8
  8845     067F                     u395_25:
  8846     067F  35C4               	lslf	??i1___flmul,f
  8847     0680  0DC5               	rlf	??i1___flmul+1,f
  8848     0681  0DC6               	rlf	??i1___flmul+2,f
  8849     0682  0DC7               	rlf	??i1___flmul+3,f
  8850     0683                     u395_20:
  8851     0683  0B89               	decfsz	9,f
  8852     0684  2E7F               	goto	u395_25
  8853     0685  0844               	movf	??i1___flmul,w
  8854     0686  07D0               	addwf	i1___flmul@prod,f
  8855     0687  0845               	movf	??i1___flmul+1,w
  8856     0688  3DD1               	addwfc	i1___flmul@prod+1,f
  8857     0689  0846               	movf	??i1___flmul+2,w
  8858     068A  3DD2               	addwfc	i1___flmul@prod+2,f
  8859     068B  0847               	movf	??i1___flmul+3,w
  8860     068C  3DD3               	addwfc	i1___flmul@prod+3,f
  8861     068D                     i1l3541:
  8862     068D  084A               	movf	i1___flmul@grs,w
  8863     068E  00C4               	movwf	??i1___flmul
  8864     068F  084B               	movf	i1___flmul@grs+1,w
  8865     0690  00C5               	movwf	??i1___flmul+1
  8866     0691  084C               	movf	i1___flmul@grs+2,w
  8867     0692  00C6               	movwf	??i1___flmul+2
  8868     0693  084D               	movf	i1___flmul@grs+3,w
  8869     0694  00C7               	movwf	??i1___flmul+3
  8870     0695  3018               	movlw	24
  8871     0696                     u396_25:
  8872     0696  36C7               	lsrf	??i1___flmul+3,f
  8873     0697  0CC6               	rrf	??i1___flmul+2,f
  8874     0698  0CC5               	rrf	??i1___flmul+1,f
  8875     0699  0CC4               	rrf	??i1___flmul,f
  8876     069A                     u396_20:
  8877     069A  0B89               	decfsz	9,f
  8878     069B  2E96               	goto	u396_25
  8879     069C  0844               	movf	??i1___flmul,w
  8880     069D  07D0               	addwf	i1___flmul@prod,f
  8881     069E  0845               	movf	??i1___flmul+1,w
  8882     069F  3DD1               	addwfc	i1___flmul@prod+1,f
  8883     06A0  0846               	movf	??i1___flmul+2,w
  8884     06A1  3DD2               	addwfc	i1___flmul@prod+2,f
  8885     06A2  0847               	movf	??i1___flmul+3,w
  8886     06A3  3DD3               	addwfc	i1___flmul@prod+3,f
  8887     06A4                     i1l3543:
  8888     06A4  3008               	movlw	8
  8889     06A5                     u397_25:
  8890     06A5  35CA               	lslf	i1___flmul@grs,f
  8891     06A6  0DCB               	rlf	i1___flmul@grs+1,f
  8892     06A7  0DCC               	rlf	i1___flmul@grs+2,f
  8893     06A8  0DCD               	rlf	i1___flmul@grs+3,f
  8894     06A9  0B89               	decfsz	9,f
  8895     06AA  2EA5               	goto	u397_25
  8896     06AB                     i1l3545:
  8897     06AB  084F               	movf	i1___flmul@bexp,w
  8898     06AC  074E               	addwf	i1___flmul@aexp,w
  8899     06AD  00C4               	movwf	??i1___flmul
  8900     06AE  01C5               	clrf	??i1___flmul+1
  8901     06AF  0DC5               	rlf	??i1___flmul+1,f
  8902     06B0  0844               	movf	??i1___flmul,w
  8903     06B1  3E82               	addlw	130
  8904     06B2  00D4               	movwf	i1___flmul@temp
  8905     06B3  30FF               	movlw	255
  8906     06B4  3D45               	addwfc	??i1___flmul+1,w
  8907     06B5  00D5               	movwf	i1___flmul@temp+1
  8908     06B6  2ECE               	goto	i1l3557
  8909     06B7                     i1l3547:
  8910     06B7  3001               	movlw	1
  8911     06B8                     u398_25:
  8912     06B8  35D0               	lslf	i1___flmul@prod,f
  8913     06B9  0DD1               	rlf	i1___flmul@prod+1,f
  8914     06BA  0DD2               	rlf	i1___flmul@prod+2,f
  8915     06BB  0DD3               	rlf	i1___flmul@prod+3,f
  8916     06BC  0B89               	decfsz	9,f
  8917     06BD  2EB8               	goto	u398_25
  8918     06BE                     i1l3549:
  8919     06BE  1FCD               	btfss	i1___flmul@grs+3,7
  8920     06BF  2EC1               	goto	u399_21
  8921     06C0  2EC2               	goto	u399_20
  8922     06C1                     u399_21:
  8923     06C1  2EC3               	goto	i1l3553
  8924     06C2                     u399_20:
  8925     06C2                     i1l3551:
  8926     06C2  1450               	bsf	i1___flmul@prod,0
  8927     06C3                     i1l3553:
  8928     06C3  3001               	movlw	1
  8929     06C4                     u400_25:
  8930     06C4  35CA               	lslf	i1___flmul@grs,f
  8931     06C5  0DCB               	rlf	i1___flmul@grs+1,f
  8932     06C6  0DCC               	rlf	i1___flmul@grs+2,f
  8933     06C7  0DCD               	rlf	i1___flmul@grs+3,f
  8934     06C8  0B89               	decfsz	9,f
  8935     06C9  2EC4               	goto	u400_25
  8936     06CA                     i1l3555:
  8937     06CA  30FF               	movlw	255
  8938     06CB  07D4               	addwf	i1___flmul@temp,f
  8939     06CC  30FF               	movlw	255
  8940     06CD  3DD5               	addwfc	i1___flmul@temp+1,f
  8941     06CE                     i1l3557:
  8942     06CE  1FD2               	btfss	i1___flmul@prod+2,7
  8943     06CF  2ED1               	goto	u401_21
  8944     06D0  2ED2               	goto	u401_20
  8945     06D1                     u401_21:
  8946     06D1  2EB7               	goto	i1l3547
  8947     06D2                     u401_20:
  8948     06D2                     i1l3559:
  8949     06D2  01CE               	clrf	i1___flmul@aexp
  8950     06D3                     i1l3561:
  8951     06D3  1FCD               	btfss	i1___flmul@grs+3,7
  8952     06D4  2ED6               	goto	u402_21
  8953     06D5  2ED7               	goto	u402_20
  8954     06D6                     u402_21:
  8955     06D6  2EF3               	goto	i1l3569
  8956     06D7                     u402_20:
  8957     06D7                     i1l3563:
  8958     06D7  30FF               	movlw	255
  8959     06D8  054A               	andwf	i1___flmul@grs,w
  8960     06D9  00C4               	movwf	??i1___flmul
  8961     06DA  30FF               	movlw	255
  8962     06DB  054B               	andwf	i1___flmul@grs+1,w
  8963     06DC  00C5               	movwf	??i1___flmul+1
  8964     06DD  30FF               	movlw	255
  8965     06DE  054C               	andwf	i1___flmul@grs+2,w
  8966     06DF  00C6               	movwf	??i1___flmul+2
  8967     06E0  307F               	movlw	127
  8968     06E1  054D               	andwf	i1___flmul@grs+3,w
  8969     06E2  00C7               	movwf	??i1___flmul+3
  8970     06E3  0847               	movf	??i1___flmul+3,w
  8971     06E4  0446               	iorwf	??i1___flmul+2,w
  8972     06E5  0445               	iorwf	??i1___flmul+1,w
  8973     06E6  0444               	iorwf	??i1___flmul,w
  8974     06E7  1903               	skipnz
  8975     06E8  2EEA               	goto	u403_21
  8976     06E9  2EEB               	goto	u403_20
  8977     06EA                     u403_21:
  8978     06EA  2EEE               	goto	i1l1133
  8979     06EB                     u403_20:
  8980     06EB                     i1l3565:
  8981     06EB  01CE               	clrf	i1___flmul@aexp
  8982     06EC  0ACE               	incf	i1___flmul@aexp,f
  8983     06ED  2EF3               	goto	i1l3569
  8984     06EE                     i1l1133:
  8985     06EE  1C50               	btfss	i1___flmul@prod,0
  8986     06EF  2EF1               	goto	u404_21
  8987     06F0  2EF2               	goto	u404_20
  8988     06F1                     u404_21:
  8989     06F1  2EF3               	goto	i1l3569
  8990     06F2                     u404_20:
  8991     06F2  2EEB               	goto	i1l3565
  8992     06F3                     i1l3569:
  8993     06F3  084E               	movf	i1___flmul@aexp,w
  8994     06F4  1903               	btfsc	3,2
  8995     06F5  2EF7               	goto	u405_21
  8996     06F6  2EF8               	goto	u405_20
  8997     06F7                     u405_21:
  8998     06F7  2F20               	goto	i1l3579
  8999     06F8                     u405_20:
  9000     06F8                     i1l3571:
  9001     06F8  3001               	movlw	1
  9002     06F9  07D0               	addwf	i1___flmul@prod,f
  9003     06FA  3000               	movlw	0
  9004     06FB  3DD1               	addwfc	i1___flmul@prod+1,f
  9005     06FC  3000               	movlw	0
  9006     06FD  3DD2               	addwfc	i1___flmul@prod+2,f
  9007     06FE  3000               	movlw	0
  9008     06FF  3DD3               	addwfc	i1___flmul@prod+3,f
  9009     0700                     i1l3573:
  9010     0700  1C53               	btfss	i1___flmul@prod+3,0
  9011     0701  2F03               	goto	u406_21
  9012     0702  2F04               	goto	u406_20
  9013     0703                     u406_21:
  9014     0703  2F20               	goto	i1l3579
  9015     0704                     u406_20:
  9016     0704                     i1l3575:
  9017     0704  0850               	movf	i1___flmul@prod,w
  9018     0705  00C4               	movwf	??i1___flmul
  9019     0706  0851               	movf	i1___flmul@prod+1,w
  9020     0707  00C5               	movwf	??i1___flmul+1
  9021     0708  0852               	movf	i1___flmul@prod+2,w
  9022     0709  00C6               	movwf	??i1___flmul+2
  9023     070A  0853               	movf	i1___flmul@prod+3,w
  9024     070B  00C7               	movwf	??i1___flmul+3
  9025     070C  3001               	movlw	1
  9026     070D  00C8               	movwf	??i1___flmul+4
  9027     070E                     u407_25:
  9028     070E  37C7               	asrf	??i1___flmul+3,f
  9029     070F  0CC6               	rrf	??i1___flmul+2,f
  9030     0710  0CC5               	rrf	??i1___flmul+1,f
  9031     0711  0CC4               	rrf	??i1___flmul,f
  9032     0712                     u407_20:
  9033     0712  0BC8               	decfsz	??i1___flmul+4,f
  9034     0713  2F0E               	goto	u407_25
  9035     0714  0847               	movf	??i1___flmul+3,w
  9036     0715  00D3               	movwf	i1___flmul@prod+3
  9037     0716  0846               	movf	??i1___flmul+2,w
  9038     0717  00D2               	movwf	i1___flmul@prod+2
  9039     0718  0845               	movf	??i1___flmul+1,w
  9040     0719  00D1               	movwf	i1___flmul@prod+1
  9041     071A  0844               	movf	??i1___flmul,w
  9042     071B  00D0               	movwf	i1___flmul@prod
  9043     071C                     i1l3577:
  9044     071C  3001               	movlw	1
  9045     071D  07D4               	addwf	i1___flmul@temp,f
  9046     071E  3000               	movlw	0
  9047     071F  3DD5               	addwfc	i1___flmul@temp+1,f
  9048     0720                     i1l3579:
  9049     0720  0855               	movf	i1___flmul@temp+1,w
  9050     0721  3A80               	xorlw	128
  9051     0722  00C4               	movwf	??i1___flmul
  9052     0723  3080               	movlw	128
  9053     0724  0244               	subwf	??i1___flmul,w
  9054     0725  1D03               	skipz
  9055     0726  2F29               	goto	u408_25
  9056     0727  30FF               	movlw	255
  9057     0728  0254               	subwf	i1___flmul@temp,w
  9058     0729                     u408_25:
  9059     0729  1C03               	skipc
  9060     072A  2F2C               	goto	u408_21
  9061     072B  2F2D               	goto	u408_20
  9062     072C                     u408_21:
  9063     072C  2F37               	goto	i1l3583
  9064     072D                     u408_20:
  9065     072D                     i1l3581:
  9066     072D  307F               	movlw	127
  9067     072E  0020               	movlb	0	; select bank0
  9068     072F  00D3               	movwf	i1___flmul@prod+3
  9069     0730  3080               	movlw	128
  9070     0731  00D2               	movwf	i1___flmul@prod+2
  9071     0732  3000               	movlw	0
  9072     0733  00D1               	movwf	i1___flmul@prod+1
  9073     0734  3000               	movlw	0
  9074     0735  00D0               	movwf	i1___flmul@prod
  9075     0736  2F62               	goto	i1l1139
  9076     0737                     i1l3583:
  9077     0737  0020               	movlb	0	; select bank0
  9078     0738  0855               	movf	i1___flmul@temp+1,w
  9079     0739  3A80               	xorlw	128
  9080     073A  00C4               	movwf	??i1___flmul
  9081     073B  3080               	movlw	128
  9082     073C  0244               	subwf	??i1___flmul,w
  9083     073D  1D03               	skipz
  9084     073E  2F41               	goto	u409_25
  9085     073F  3001               	movlw	1
  9086     0740  0254               	subwf	i1___flmul@temp,w
  9087     0741                     u409_25:
  9088     0741  1803               	skipnc
  9089     0742  2F44               	goto	u409_21
  9090     0743  2F45               	goto	u409_20
  9091     0744                     u409_21:
  9092     0744  2F50               	goto	i1l3589
  9093     0745                     u409_20:
  9094     0745                     i1l3585:
  9095     0745  3000               	movlw	0
  9096     0746  0020               	movlb	0	; select bank0
  9097     0747  00D3               	movwf	i1___flmul@prod+3
  9098     0748  3000               	movlw	0
  9099     0749  00D2               	movwf	i1___flmul@prod+2
  9100     074A  3000               	movlw	0
  9101     074B  00D1               	movwf	i1___flmul@prod+1
  9102     074C  3000               	movlw	0
  9103     074D  00D0               	movwf	i1___flmul@prod
  9104     074E                     i1l3587:
  9105     074E  01C9               	clrf	i1___flmul@sign
  9106     074F  2F62               	goto	i1l1139
  9107     0750                     i1l3589:
  9108     0750  0020               	movlb	0	; select bank0
  9109     0751  0854               	movf	i1___flmul@temp,w
  9110     0752  00CF               	movwf	i1___flmul@bexp
  9111     0753  30FF               	movlw	255
  9112     0754  05D0               	andwf	i1___flmul@prod,f
  9113     0755  30FF               	movlw	255
  9114     0756  05D1               	andwf	i1___flmul@prod+1,f
  9115     0757  307F               	movlw	127
  9116     0758  05D2               	andwf	i1___flmul@prod+2,f
  9117     0759  3000               	movlw	0
  9118     075A  05D3               	andwf	i1___flmul@prod+3,f
  9119     075B                     i1l3591:
  9120     075B  1C4F               	btfss	i1___flmul@bexp,0
  9121     075C  2F5E               	goto	u410_21
  9122     075D  2F5F               	goto	u410_20
  9123     075E                     u410_21:
  9124     075E  2F60               	goto	i1l3595
  9125     075F                     u410_20:
  9126     075F                     i1l3593:
  9127     075F  17D2               	bsf	i1___flmul@prod+2,7
  9128     0760                     i1l3595:
  9129     0760  364F               	lsrf	i1___flmul@bexp,w
  9130     0761  00D3               	movwf	i1___flmul@prod+3
  9131     0762                     i1l1139:
  9132     0762  0849               	movf	i1___flmul@sign,w
  9133     0763  00C4               	movwf	??i1___flmul
  9134     0764  0844               	movf	??i1___flmul,w
  9135     0765  04D3               	iorwf	i1___flmul@prod+3,f
  9136     0766                     i1l3597:
  9137     0766  0853               	movf	i1___flmul@prod+3,w
  9138     0767  00BF               	movwf	?i1___flmul+3
  9139     0768  0852               	movf	i1___flmul@prod+2,w
  9140     0769  00BE               	movwf	?i1___flmul+2
  9141     076A  0851               	movf	i1___flmul@prod+1,w
  9142     076B  00BD               	movwf	?i1___flmul+1
  9143     076C  0850               	movf	i1___flmul@prod,w
  9144     076D  00BC               	movwf	?i1___flmul
  9145     076E                     i1l1127:
  9146     076E  0008               	return
  9147     076F                     __end_ofi1___flmul:
  9148                           
  9149                           	psect	text23
  9150     1E9C                     __ptext23:	
  9151 ;; *************** function i1__Umul8_16 *****************
  9152 ;; Defined at:
  9153 ;;		line 4 in file "C:\Program Files\Microchip\xc8\v2.40\pic\sources\c99\common\Umul8_16.c"
  9154 ;; Parameters:    Size  Location     Type
  9155 ;;  multiplier      1    wreg     unsigned char 
  9156 ;;  multiplicand    1    0[COMMON] unsigned char 
  9157 ;; Auto vars:     Size  Location     Type
  9158 ;;  multiplier      1    8[COMMON] unsigned char 
  9159 ;;  word_mpld       2    6[COMMON] unsigned int 
  9160 ;;  product         2    4[COMMON] unsigned int 
  9161 ;; Return value:  Size  Location     Type
  9162 ;;                  2    0[COMMON] unsigned int 
  9163 ;; Registers used:
  9164 ;;		wreg, status,2, status,0
  9165 ;; Tracked objects:
  9166 ;;		On entry : 0/0
  9167 ;;		On exit  : 0/0
  9168 ;;		Unchanged: 0/0
  9169 ;; Data sizes:     COMMON   BANK0   BANK1   BANK2   BANK3   BANK4   BANK5   BANK6   BANK7   BANK8   BANK9  BANK10  BANK1
      +1  BANK12
  9170 ;;      Params:         2       0       0       0       0       0       0       0       0       0       0       0       
      +0       0
  9171 ;;      Locals:         5       0       0       0       0       0       0       0       0       0       0       0       
      +0       0
  9172 ;;      Temps:          2       0       0       0       0       0       0       0       0       0       0       0       
      +0       0
  9173 ;;      Totals:         9       0       0       0       0       0       0       0       0       0       0       0       
      +0       0
  9174 ;;Total ram usage:        9 bytes
  9175 ;; Hardware stack levels used: 1
  9176 ;; This function calls:
  9177 ;;		Nothing
  9178 ;; This function is called by:
  9179 ;;		i1___flmul
  9180 ;; This function uses a non-reentrant model
  9181 ;;
  9182                           
  9183     1E9C                     i1__Umul8_16:	
  9184                           ;psect for function i1__Umul8_16
  9185                           
  9186                           
  9187                           ;incstack = 0
  9188                           ; Regs used in i1__Umul8_16: [wreg+status,2+status,0]
  9189                           ;i1__Umul8_16@multiplier stored from wreg
  9190     1E9C  00F8               	movwf	i1__Umul8_16@multiplier
  9191     1E9D                     i1l3303:
  9192     1E9D  01F4               	clrf	i1__Umul8_16@product
  9193     1E9E  01F5               	clrf	i1__Umul8_16@product+1
  9194     1E9F                     i1l3305:
  9195     1E9F  0870               	movf	i1__Umul8_16@multiplicand,w
  9196     1EA0  00F2               	movwf	??i1__Umul8_16
  9197     1EA1  01F3               	clrf	??i1__Umul8_16+1
  9198     1EA2  0872               	movf	??i1__Umul8_16,w
  9199     1EA3  00F6               	movwf	i1__Umul8_16@word_mpld
  9200     1EA4  0873               	movf	??i1__Umul8_16+1,w
  9201     1EA5  00F7               	movwf	i1__Umul8_16@word_mpld+1
  9202     1EA6                     i1l3307:
  9203     1EA6  1C78               	btfss	i1__Umul8_16@multiplier,0
  9204     1EA7  2EA9               	goto	u357_21
  9205     1EA8  2EAA               	goto	u357_20
  9206     1EA9                     u357_21:
  9207     1EA9  2EAE               	goto	i1l1146
  9208     1EAA                     u357_20:
  9209     1EAA                     i1l3309:
  9210     1EAA  0876               	movf	i1__Umul8_16@word_mpld,w
  9211     1EAB  07F4               	addwf	i1__Umul8_16@product,f
  9212     1EAC  0877               	movf	i1__Umul8_16@word_mpld+1,w
  9213     1EAD  3DF5               	addwfc	i1__Umul8_16@product+1,f
  9214     1EAE                     i1l1146:
  9215     1EAE  3001               	movlw	1
  9216     1EAF                     u358_25:
  9217     1EAF  35F6               	lslf	i1__Umul8_16@word_mpld,f
  9218     1EB0  0DF7               	rlf	i1__Umul8_16@word_mpld+1,f
  9219     1EB1  0B89               	decfsz	9,f
  9220     1EB2  2EAF               	goto	u358_25
  9221     1EB3  1003               	clrc
  9222     1EB4  0CF8               	rrf	i1__Umul8_16@multiplier,f
  9223     1EB5                     i1l3311:
  9224     1EB5  0878               	movf	i1__Umul8_16@multiplier,w
  9225     1EB6  1D03               	btfss	3,2
  9226     1EB7  2EB9               	goto	u359_21
  9227     1EB8  2EBA               	goto	u359_20
  9228     1EB9                     u359_21:
  9229     1EB9  2EA6               	goto	i1l3307
  9230     1EBA                     u359_20:
  9231     1EBA                     i1l3313:
  9232     1EBA  0875               	movf	i1__Umul8_16@product+1,w
  9233     1EBB  00F1               	movwf	?i1__Umul8_16+1
  9234     1EBC  0874               	movf	i1__Umul8_16@product,w
  9235     1EBD  00F0               	movwf	?i1__Umul8_16
  9236     1EBE                     i1l1148:
  9237     1EBE  0008               	return
  9238     1EBF                     __end_ofi1__Umul8_16:
  9239                           
  9240                           	psect	text24
  9241     1656                     __ptext24:	
  9242 ;; *************** function i1___fldiv *****************
  9243 ;; Defined at:
  9244 ;;		line 8 in file "C:\Program Files\Microchip\xc8\v2.40\pic\sources\c99\common\sprcdiv.c"
  9245 ;; Parameters:    Size  Location     Type
  9246 ;;  a               4   54[BANK0 ] unsigned int 
  9247 ;;  b               4   58[BANK0 ] unsigned int 
  9248 ;; Auto vars:     Size  Location     Type
  9249 ;;  grs             4   74[BANK0 ] unsigned long 
  9250 ;;  rem             4   67[BANK0 ] unsigned long 
  9251 ;;  new_exp         2   72[BANK0 ] int 
  9252 ;;  aexp            1   79[BANK0 ] unsigned char 
  9253 ;;  bexp            1   78[BANK0 ] unsigned char 
  9254 ;;  sign            1   71[BANK0 ] unsigned char 
  9255 ;; Return value:  Size  Location     Type
  9256 ;;                  4   54[BANK0 ] unsigned char 
  9257 ;; Registers used:
  9258 ;;		wreg, status,2, status,0
  9259 ;; Tracked objects:
  9260 ;;		On entry : 0/0
  9261 ;;		On exit  : 0/0
  9262 ;;		Unchanged: 0/0
  9263 ;; Data sizes:     COMMON   BANK0   BANK1   BANK2   BANK3   BANK4   BANK5   BANK6   BANK7   BANK8   BANK9  BANK10  BANK1
      +1  BANK12
  9264 ;;      Params:         0       8       0       0       0       0       0       0       0       0       0       0       
      +0       0
  9265 ;;      Locals:         0      13       0       0       0       0       0       0       0       0       0       0       
      +0       0
  9266 ;;      Temps:          0       5       0       0       0       0       0       0       0       0       0       0       
      +0       0
  9267 ;;      Totals:         0      26       0       0       0       0       0       0       0       0       0       0       
      +0       0
  9268 ;;Total ram usage:       26 bytes
  9269 ;; Hardware stack levels used: 1
  9270 ;; This function calls:
  9271 ;;		Nothing
  9272 ;; This function is called by:
  9273 ;;		_command_interpreter
  9274 ;; This function uses a non-reentrant model
  9275 ;;
  9276                           
  9277     1656                     i1___fldiv:	
  9278                           ;psect for function i1___fldiv
  9279                           
  9280     1656                     i1l4237:	
  9281                           ;incstack = 0
  9282                           ; Regs used in i1___fldiv: [wreg+status,2+status,0]
  9283                           
  9284     1656  0020               	movlb	0	; select bank0
  9285     1657  085D               	movf	i1___fldiv@b+3,w
  9286     1658  3980               	andlw	128
  9287     1659  00E7               	movwf	i1___fldiv@sign
  9288     165A                     i1l4239:
  9289     165A  355D               	lslf	i1___fldiv@b+3,w
  9290     165B  00EE               	movwf	i1___fldiv@bexp
  9291     165C                     i1l4241:
  9292     165C  1FDC               	btfss	i1___fldiv@b+2,7
  9293     165D  2E5F               	goto	u534_21
  9294     165E  2E60               	goto	u534_20
  9295     165F                     u534_21:
  9296     165F  2E61               	goto	i1l4245
  9297     1660                     u534_20:
  9298     1660                     i1l4243:
  9299     1660  146E               	bsf	i1___fldiv@bexp,0
  9300     1661                     i1l4245:
  9301     1661  086E               	movf	i1___fldiv@bexp,w
  9302     1662  1903               	btfsc	3,2
  9303     1663  2E65               	goto	u535_21
  9304     1664  2E66               	goto	u535_20
  9305     1665                     u535_21:
  9306     1665  2E76               	goto	i1l4255
  9307     1666                     u535_20:
  9308     1666                     i1l4247:
  9309     1666  0A6E               	incf	i1___fldiv@bexp,w
  9310     1667  1D03               	btfss	3,2
  9311     1668  2E6A               	goto	u536_21
  9312     1669  2E6B               	goto	u536_20
  9313     166A                     u536_21:
  9314     166A  2E73               	goto	i1l4251
  9315     166B                     u536_20:
  9316     166B                     i1l4249:
  9317     166B  3000               	movlw	0
  9318     166C  00DD               	movwf	i1___fldiv@b+3
  9319     166D  3000               	movlw	0
  9320     166E  00DC               	movwf	i1___fldiv@b+2
  9321     166F  3000               	movlw	0
  9322     1670  00DB               	movwf	i1___fldiv@b+1
  9323     1671  3000               	movlw	0
  9324     1672  00DA               	movwf	i1___fldiv@b
  9325     1673                     i1l4251:
  9326     1673  17DC               	bsf	i1___fldiv@b+2,7
  9327     1674                     i1l4253:
  9328     1674  01DD               	clrf	i1___fldiv@b+3
  9329     1675  2E7E               	goto	i1l4257
  9330     1676                     i1l4255:
  9331     1676  3000               	movlw	0
  9332     1677  00DD               	movwf	i1___fldiv@b+3
  9333     1678  3000               	movlw	0
  9334     1679  00DC               	movwf	i1___fldiv@b+2
  9335     167A  3000               	movlw	0
  9336     167B  00DB               	movwf	i1___fldiv@b+1
  9337     167C  3000               	movlw	0
  9338     167D  00DA               	movwf	i1___fldiv@b
  9339     167E                     i1l4257:
  9340     167E  0859               	movf	i1___fldiv@a+3,w
  9341     167F  3980               	andlw	128
  9342     1680  00DE               	movwf	??i1___fldiv
  9343     1681  085E               	movf	??i1___fldiv,w
  9344     1682  06E7               	xorwf	i1___fldiv@sign,f
  9345     1683                     i1l4259:
  9346     1683  3559               	lslf	i1___fldiv@a+3,w
  9347     1684  00EF               	movwf	i1___fldiv@aexp
  9348     1685                     i1l4261:
  9349     1685  1FD8               	btfss	i1___fldiv@a+2,7
  9350     1686  2E88               	goto	u537_21
  9351     1687  2E89               	goto	u537_20
  9352     1688                     u537_21:
  9353     1688  2E8A               	goto	i1l4265
  9354     1689                     u537_20:
  9355     1689                     i1l4263:
  9356     1689  146F               	bsf	i1___fldiv@aexp,0
  9357     168A                     i1l4265:
  9358     168A  086F               	movf	i1___fldiv@aexp,w
  9359     168B  1903               	btfsc	3,2
  9360     168C  2E8E               	goto	u538_21
  9361     168D  2E8F               	goto	u538_20
  9362     168E                     u538_21:
  9363     168E  2E9F               	goto	i1l4275
  9364     168F                     u538_20:
  9365     168F                     i1l4267:
  9366     168F  0A6F               	incf	i1___fldiv@aexp,w
  9367     1690  1D03               	btfss	3,2
  9368     1691  2E93               	goto	u539_21
  9369     1692  2E94               	goto	u539_20
  9370     1693                     u539_21:
  9371     1693  2E9C               	goto	i1l4271
  9372     1694                     u539_20:
  9373     1694                     i1l4269:
  9374     1694  3000               	movlw	0
  9375     1695  00D9               	movwf	i1___fldiv@a+3
  9376     1696  3000               	movlw	0
  9377     1697  00D8               	movwf	i1___fldiv@a+2
  9378     1698  3000               	movlw	0
  9379     1699  00D7               	movwf	i1___fldiv@a+1
  9380     169A  3000               	movlw	0
  9381     169B  00D6               	movwf	i1___fldiv@a
  9382     169C                     i1l4271:
  9383     169C  17D8               	bsf	i1___fldiv@a+2,7
  9384     169D                     i1l4273:
  9385     169D  01D9               	clrf	i1___fldiv@a+3
  9386     169E  2EA7               	goto	i1l1087
  9387     169F                     i1l4275:
  9388     169F  3000               	movlw	0
  9389     16A0  00D9               	movwf	i1___fldiv@a+3
  9390     16A1  3000               	movlw	0
  9391     16A2  00D8               	movwf	i1___fldiv@a+2
  9392     16A3  3000               	movlw	0
  9393     16A4  00D7               	movwf	i1___fldiv@a+1
  9394     16A5  3000               	movlw	0
  9395     16A6  00D6               	movwf	i1___fldiv@a
  9396     16A7                     i1l1087:
  9397     16A7  0859               	movf	i1___fldiv@a+3,w
  9398     16A8  0458               	iorwf	i1___fldiv@a+2,w
  9399     16A9  0457               	iorwf	i1___fldiv@a+1,w
  9400     16AA  0456               	iorwf	i1___fldiv@a,w
  9401     16AB  1D03               	skipz
  9402     16AC  2EAE               	goto	u540_21
  9403     16AD  2EAF               	goto	u540_20
  9404     16AE                     u540_21:
  9405     16AE  2EC8               	goto	i1l4285
  9406     16AF                     u540_20:
  9407     16AF                     i1l4277:
  9408     16AF  3000               	movlw	0
  9409     16B0  00DD               	movwf	i1___fldiv@b+3
  9410     16B1  3000               	movlw	0
  9411     16B2  00DC               	movwf	i1___fldiv@b+2
  9412     16B3  3000               	movlw	0
  9413     16B4  00DB               	movwf	i1___fldiv@b+1
  9414     16B5  3000               	movlw	0
  9415     16B6  00DA               	movwf	i1___fldiv@b
  9416     16B7  3080               	movlw	128
  9417     16B8  04DC               	iorwf	i1___fldiv@b+2,f
  9418     16B9  307F               	movlw	127
  9419     16BA  04DD               	iorwf	i1___fldiv@b+3,f
  9420     16BB                     i1l4279:
  9421     16BB  0867               	movf	i1___fldiv@sign,w
  9422     16BC  00DE               	movwf	??i1___fldiv
  9423     16BD  085E               	movf	??i1___fldiv,w
  9424     16BE  04DD               	iorwf	i1___fldiv@b+3,f
  9425     16BF                     i1l4281:
  9426     16BF  085D               	movf	i1___fldiv@b+3,w
  9427     16C0  00D9               	movwf	?i1___fldiv+3
  9428     16C1  085C               	movf	i1___fldiv@b+2,w
  9429     16C2  00D8               	movwf	?i1___fldiv+2
  9430     16C3  085B               	movf	i1___fldiv@b+1,w
  9431     16C4  00D7               	movwf	?i1___fldiv+1
  9432     16C5  085A               	movf	i1___fldiv@b,w
  9433     16C6  00D6               	movwf	?i1___fldiv
  9434     16C7  2FFF               	goto	i1l1089
  9435     16C8                     i1l4285:
  9436     16C8  086E               	movf	i1___fldiv@bexp,w
  9437     16C9  1D03               	btfss	3,2
  9438     16CA  2ECC               	goto	u541_21
  9439     16CB  2ECD               	goto	u541_20
  9440     16CC                     u541_21:
  9441     16CC  2ED6               	goto	i1l4291
  9442     16CD                     u541_20:
  9443     16CD                     i1l4287:
  9444     16CD  3000               	movlw	0
  9445     16CE  00D9               	movwf	?i1___fldiv+3
  9446     16CF  3000               	movlw	0
  9447     16D0  00D8               	movwf	?i1___fldiv+2
  9448     16D1  3000               	movlw	0
  9449     16D2  00D7               	movwf	?i1___fldiv+1
  9450     16D3  3000               	movlw	0
  9451     16D4  00D6               	movwf	?i1___fldiv
  9452     16D5  2FFF               	goto	i1l1089
  9453     16D6                     i1l4291:
  9454     16D6  086E               	movf	i1___fldiv@bexp,w
  9455     16D7  00DE               	movwf	??i1___fldiv
  9456     16D8  01DF               	clrf	??i1___fldiv+1
  9457     16D9  085F               	movf	??i1___fldiv+1,w
  9458     16DA  00E1               	movwf	??i1___fldiv+3
  9459     16DB  086F               	movf	i1___fldiv@aexp,w
  9460     16DC  025E               	subwf	??i1___fldiv,w
  9461     16DD  00E0               	movwf	??i1___fldiv+2
  9462     16DE  1C03               	skipc
  9463     16DF  03E1               	decf	??i1___fldiv+3,f
  9464     16E0  0860               	movf	??i1___fldiv+2,w
  9465     16E1  3E7F               	addlw	127
  9466     16E2  00E8               	movwf	i1___fldiv@new_exp
  9467     16E3  3000               	movlw	0
  9468     16E4  3D61               	addwfc	??i1___fldiv+3,w
  9469     16E5  00E9               	movwf	i1___fldiv@new_exp+1
  9470     16E6                     i1l4293:
  9471     16E6  085D               	movf	i1___fldiv@b+3,w
  9472     16E7  00E6               	movwf	i1___fldiv@rem+3
  9473     16E8  085C               	movf	i1___fldiv@b+2,w
  9474     16E9  00E5               	movwf	i1___fldiv@rem+2
  9475     16EA  085B               	movf	i1___fldiv@b+1,w
  9476     16EB  00E4               	movwf	i1___fldiv@rem+1
  9477     16EC  085A               	movf	i1___fldiv@b,w
  9478     16ED  00E3               	movwf	i1___fldiv@rem
  9479     16EE                     i1l4295:
  9480     16EE  3000               	movlw	0
  9481     16EF  00DD               	movwf	i1___fldiv@b+3
  9482     16F0  3000               	movlw	0
  9483     16F1  00DC               	movwf	i1___fldiv@b+2
  9484     16F2  3000               	movlw	0
  9485     16F3  00DB               	movwf	i1___fldiv@b+1
  9486     16F4  3000               	movlw	0
  9487     16F5  00DA               	movwf	i1___fldiv@b
  9488     16F6                     i1l4297:
  9489     16F6  3000               	movlw	0
  9490     16F7  00ED               	movwf	i1___fldiv@grs+3
  9491     16F8  3000               	movlw	0
  9492     16F9  00EC               	movwf	i1___fldiv@grs+2
  9493     16FA  3000               	movlw	0
  9494     16FB  00EB               	movwf	i1___fldiv@grs+1
  9495     16FC  3000               	movlw	0
  9496     16FD  00EA               	movwf	i1___fldiv@grs
  9497     16FE                     i1l4299:
  9498     16FE  01EF               	clrf	i1___fldiv@aexp
  9499     16FF  2F3E               	goto	i1l4319
  9500     1700                     i1l4301:
  9501     1700  086F               	movf	i1___fldiv@aexp,w
  9502     1701  1903               	btfsc	3,2
  9503     1702  2F04               	goto	u542_21
  9504     1703  2F05               	goto	u542_20
  9505     1704                     u542_21:
  9506     1704  2F1F               	goto	i1l4311
  9507     1705                     u542_20:
  9508     1705                     i1l4303:
  9509     1705  3001               	movlw	1
  9510     1706                     u543_25:
  9511     1706  35E3               	lslf	i1___fldiv@rem,f
  9512     1707  0DE4               	rlf	i1___fldiv@rem+1,f
  9513     1708  0DE5               	rlf	i1___fldiv@rem+2,f
  9514     1709  0DE6               	rlf	i1___fldiv@rem+3,f
  9515     170A  0B89               	decfsz	9,f
  9516     170B  2F06               	goto	u543_25
  9517     170C  3001               	movlw	1
  9518     170D                     u544_25:
  9519     170D  35DA               	lslf	i1___fldiv@b,f
  9520     170E  0DDB               	rlf	i1___fldiv@b+1,f
  9521     170F  0DDC               	rlf	i1___fldiv@b+2,f
  9522     1710  0DDD               	rlf	i1___fldiv@b+3,f
  9523     1711  0B89               	decfsz	9,f
  9524     1712  2F0D               	goto	u544_25
  9525     1713                     i1l4305:
  9526     1713  1FED               	btfss	i1___fldiv@grs+3,7
  9527     1714  2F16               	goto	u545_21
  9528     1715  2F17               	goto	u545_20
  9529     1716                     u545_21:
  9530     1716  2F18               	goto	i1l4309
  9531     1717                     u545_20:
  9532     1717                     i1l4307:
  9533     1717  145A               	bsf	i1___fldiv@b,0
  9534     1718                     i1l4309:
  9535     1718  3001               	movlw	1
  9536     1719                     u546_25:
  9537     1719  35EA               	lslf	i1___fldiv@grs,f
  9538     171A  0DEB               	rlf	i1___fldiv@grs+1,f
  9539     171B  0DEC               	rlf	i1___fldiv@grs+2,f
  9540     171C  0DED               	rlf	i1___fldiv@grs+3,f
  9541     171D  0B89               	decfsz	9,f
  9542     171E  2F19               	goto	u546_25
  9543     171F                     i1l4311:
  9544     171F  0859               	movf	i1___fldiv@a+3,w
  9545     1720  0266               	subwf	i1___fldiv@rem+3,w
  9546     1721  1D03               	skipz
  9547     1722  2F2D               	goto	u547_25
  9548     1723  0858               	movf	i1___fldiv@a+2,w
  9549     1724  0265               	subwf	i1___fldiv@rem+2,w
  9550     1725  1D03               	skipz
  9551     1726  2F2D               	goto	u547_25
  9552     1727  0857               	movf	i1___fldiv@a+1,w
  9553     1728  0264               	subwf	i1___fldiv@rem+1,w
  9554     1729  1D03               	skipz
  9555     172A  2F2D               	goto	u547_25
  9556     172B  0856               	movf	i1___fldiv@a,w
  9557     172C  0263               	subwf	i1___fldiv@rem,w
  9558     172D                     u547_25:
  9559     172D  1C03               	skipc
  9560     172E  2F30               	goto	u547_21
  9561     172F  2F31               	goto	u547_20
  9562     1730                     u547_21:
  9563     1730  2F3A               	goto	i1l4317
  9564     1731                     u547_20:
  9565     1731                     i1l4313:
  9566     1731  176D               	bsf	i1___fldiv@grs+3,6
  9567     1732                     i1l4315:
  9568     1732  0856               	movf	i1___fldiv@a,w
  9569     1733  02E3               	subwf	i1___fldiv@rem,f
  9570     1734  0857               	movf	i1___fldiv@a+1,w
  9571     1735  3BE4               	subwfb	i1___fldiv@rem+1,f
  9572     1736  0858               	movf	i1___fldiv@a+2,w
  9573     1737  3BE5               	subwfb	i1___fldiv@rem+2,f
  9574     1738  0859               	movf	i1___fldiv@a+3,w
  9575     1739  3BE6               	subwfb	i1___fldiv@rem+3,f
  9576     173A                     i1l4317:
  9577     173A  3001               	movlw	1
  9578     173B  00DE               	movwf	??i1___fldiv
  9579     173C  085E               	movf	??i1___fldiv,w
  9580     173D  07EF               	addwf	i1___fldiv@aexp,f
  9581     173E                     i1l4319:
  9582     173E  301A               	movlw	26
  9583     173F  026F               	subwf	i1___fldiv@aexp,w
  9584     1740  1C03               	skipc
  9585     1741  2F43               	goto	u548_21
  9586     1742  2F44               	goto	u548_20
  9587     1743                     u548_21:
  9588     1743  2F00               	goto	i1l4301
  9589     1744                     u548_20:
  9590     1744                     i1l4321:
  9591     1744  0866               	movf	i1___fldiv@rem+3,w
  9592     1745  0465               	iorwf	i1___fldiv@rem+2,w
  9593     1746  0464               	iorwf	i1___fldiv@rem+1,w
  9594     1747  0463               	iorwf	i1___fldiv@rem,w
  9595     1748  1903               	skipnz
  9596     1749  2F4B               	goto	u549_21
  9597     174A  2F4C               	goto	u549_20
  9598     174B                     u549_21:
  9599     174B  2F65               	goto	i1l4335
  9600     174C                     u549_20:
  9601     174C                     i1l4323:
  9602     174C  146A               	bsf	i1___fldiv@grs,0
  9603     174D  2F65               	goto	i1l4335
  9604     174E                     i1l4325:
  9605     174E  3001               	movlw	1
  9606     174F                     u550_25:
  9607     174F  35DA               	lslf	i1___fldiv@b,f
  9608     1750  0DDB               	rlf	i1___fldiv@b+1,f
  9609     1751  0DDC               	rlf	i1___fldiv@b+2,f
  9610     1752  0DDD               	rlf	i1___fldiv@b+3,f
  9611     1753  0B89               	decfsz	9,f
  9612     1754  2F4F               	goto	u550_25
  9613     1755                     i1l4327:
  9614     1755  1FED               	btfss	i1___fldiv@grs+3,7
  9615     1756  2F58               	goto	u551_21
  9616     1757  2F59               	goto	u551_20
  9617     1758                     u551_21:
  9618     1758  2F5A               	goto	i1l4331
  9619     1759                     u551_20:
  9620     1759                     i1l4329:
  9621     1759  145A               	bsf	i1___fldiv@b,0
  9622     175A                     i1l4331:
  9623     175A  3001               	movlw	1
  9624     175B                     u552_25:
  9625     175B  35EA               	lslf	i1___fldiv@grs,f
  9626     175C  0DEB               	rlf	i1___fldiv@grs+1,f
  9627     175D  0DEC               	rlf	i1___fldiv@grs+2,f
  9628     175E  0DED               	rlf	i1___fldiv@grs+3,f
  9629     175F  0B89               	decfsz	9,f
  9630     1760  2F5B               	goto	u552_25
  9631     1761                     i1l4333:
  9632     1761  30FF               	movlw	255
  9633     1762  07E8               	addwf	i1___fldiv@new_exp,f
  9634     1763  30FF               	movlw	255
  9635     1764  3DE9               	addwfc	i1___fldiv@new_exp+1,f
  9636     1765                     i1l4335:
  9637     1765  1FDC               	btfss	i1___fldiv@b+2,7
  9638     1766  2F68               	goto	u553_21
  9639     1767  2F69               	goto	u553_20
  9640     1768                     u553_21:
  9641     1768  2F4E               	goto	i1l4325
  9642     1769                     u553_20:
  9643     1769                     i1l4337:
  9644     1769  01EF               	clrf	i1___fldiv@aexp
  9645     176A                     i1l4339:
  9646     176A  1FED               	btfss	i1___fldiv@grs+3,7
  9647     176B  2F6D               	goto	u554_21
  9648     176C  2F6E               	goto	u554_20
  9649     176D                     u554_21:
  9650     176D  2F8A               	goto	i1l4347
  9651     176E                     u554_20:
  9652     176E                     i1l4341:
  9653     176E  30FF               	movlw	255
  9654     176F  056A               	andwf	i1___fldiv@grs,w
  9655     1770  00DE               	movwf	??i1___fldiv
  9656     1771  30FF               	movlw	255
  9657     1772  056B               	andwf	i1___fldiv@grs+1,w
  9658     1773  00DF               	movwf	??i1___fldiv+1
  9659     1774  30FF               	movlw	255
  9660     1775  056C               	andwf	i1___fldiv@grs+2,w
  9661     1776  00E0               	movwf	??i1___fldiv+2
  9662     1777  307F               	movlw	127
  9663     1778  056D               	andwf	i1___fldiv@grs+3,w
  9664     1779  00E1               	movwf	??i1___fldiv+3
  9665     177A  0861               	movf	??i1___fldiv+3,w
  9666     177B  0460               	iorwf	??i1___fldiv+2,w
  9667     177C  045F               	iorwf	??i1___fldiv+1,w
  9668     177D  045E               	iorwf	??i1___fldiv,w
  9669     177E  1903               	skipnz
  9670     177F  2F81               	goto	u555_21
  9671     1780  2F82               	goto	u555_20
  9672     1781                     u555_21:
  9673     1781  2F85               	goto	i1l1103
  9674     1782                     u555_20:
  9675     1782                     i1l4343:
  9676     1782  01EF               	clrf	i1___fldiv@aexp
  9677     1783  0AEF               	incf	i1___fldiv@aexp,f
  9678     1784  2F8A               	goto	i1l4347
  9679     1785                     i1l1103:
  9680     1785  1C5A               	btfss	i1___fldiv@b,0
  9681     1786  2F88               	goto	u556_21
  9682     1787  2F89               	goto	u556_20
  9683     1788                     u556_21:
  9684     1788  2F8A               	goto	i1l4347
  9685     1789                     u556_20:
  9686     1789  2F82               	goto	i1l4343
  9687     178A                     i1l4347:
  9688     178A  086F               	movf	i1___fldiv@aexp,w
  9689     178B  1903               	btfsc	3,2
  9690     178C  2F8E               	goto	u557_21
  9691     178D  2F8F               	goto	u557_20
  9692     178E                     u557_21:
  9693     178E  2FB7               	goto	i1l4357
  9694     178F                     u557_20:
  9695     178F                     i1l4349:
  9696     178F  3001               	movlw	1
  9697     1790  07DA               	addwf	i1___fldiv@b,f
  9698     1791  3000               	movlw	0
  9699     1792  3DDB               	addwfc	i1___fldiv@b+1,f
  9700     1793  3000               	movlw	0
  9701     1794  3DDC               	addwfc	i1___fldiv@b+2,f
  9702     1795  3000               	movlw	0
  9703     1796  3DDD               	addwfc	i1___fldiv@b+3,f
  9704     1797                     i1l4351:
  9705     1797  1C5D               	btfss	i1___fldiv@b+3,0
  9706     1798  2F9A               	goto	u558_21
  9707     1799  2F9B               	goto	u558_20
  9708     179A                     u558_21:
  9709     179A  2FB7               	goto	i1l4357
  9710     179B                     u558_20:
  9711     179B                     i1l4353:
  9712     179B  085A               	movf	i1___fldiv@b,w
  9713     179C  00DE               	movwf	??i1___fldiv
  9714     179D  085B               	movf	i1___fldiv@b+1,w
  9715     179E  00DF               	movwf	??i1___fldiv+1
  9716     179F  085C               	movf	i1___fldiv@b+2,w
  9717     17A0  00E0               	movwf	??i1___fldiv+2
  9718     17A1  085D               	movf	i1___fldiv@b+3,w
  9719     17A2  00E1               	movwf	??i1___fldiv+3
  9720     17A3  3001               	movlw	1
  9721     17A4  00E2               	movwf	??i1___fldiv+4
  9722     17A5                     u559_25:
  9723     17A5  37E1               	asrf	??i1___fldiv+3,f
  9724     17A6  0CE0               	rrf	??i1___fldiv+2,f
  9725     17A7  0CDF               	rrf	??i1___fldiv+1,f
  9726     17A8  0CDE               	rrf	??i1___fldiv,f
  9727     17A9                     u559_20:
  9728     17A9  0BE2               	decfsz	??i1___fldiv+4,f
  9729     17AA  2FA5               	goto	u559_25
  9730     17AB  0861               	movf	??i1___fldiv+3,w
  9731     17AC  00DD               	movwf	i1___fldiv@b+3
  9732     17AD  0860               	movf	??i1___fldiv+2,w
  9733     17AE  00DC               	movwf	i1___fldiv@b+2
  9734     17AF  085F               	movf	??i1___fldiv+1,w
  9735     17B0  00DB               	movwf	i1___fldiv@b+1
  9736     17B1  085E               	movf	??i1___fldiv,w
  9737     17B2  00DA               	movwf	i1___fldiv@b
  9738     17B3                     i1l4355:
  9739     17B3  3001               	movlw	1
  9740     17B4  07E8               	addwf	i1___fldiv@new_exp,f
  9741     17B5  3000               	movlw	0
  9742     17B6  3DE9               	addwfc	i1___fldiv@new_exp+1,f
  9743     17B7                     i1l4357:
  9744     17B7  0869               	movf	i1___fldiv@new_exp+1,w
  9745     17B8  3A80               	xorlw	128
  9746     17B9  00DE               	movwf	??i1___fldiv
  9747     17BA  3080               	movlw	128
  9748     17BB  025E               	subwf	??i1___fldiv,w
  9749     17BC  1D03               	skipz
  9750     17BD  2FC0               	goto	u560_25
  9751     17BE  30FF               	movlw	255
  9752     17BF  0268               	subwf	i1___fldiv@new_exp,w
  9753     17C0                     u560_25:
  9754     17C0  1C03               	skipc
  9755     17C1  2FC3               	goto	u560_21
  9756     17C2  2FC4               	goto	u560_20
  9757     17C3                     u560_21:
  9758     17C3  2FD1               	goto	i1l1108
  9759     17C4                     u560_20:
  9760     17C4                     i1l4359:
  9761     17C4  30FF               	movlw	255
  9762     17C5  0020               	movlb	0	; select bank0
  9763     17C6  00E8               	movwf	i1___fldiv@new_exp
  9764     17C7  3000               	movlw	0
  9765     17C8  00E9               	movwf	i1___fldiv@new_exp+1
  9766     17C9  3000               	movlw	0
  9767     17CA  00DD               	movwf	i1___fldiv@b+3
  9768     17CB  3000               	movlw	0
  9769     17CC  00DC               	movwf	i1___fldiv@b+2
  9770     17CD  3000               	movlw	0
  9771     17CE  00DB               	movwf	i1___fldiv@b+1
  9772     17CF  3000               	movlw	0
  9773     17D0  00DA               	movwf	i1___fldiv@b
  9774     17D1                     i1l1108:
  9775     17D1  0020               	movlb	0	; select bank0
  9776     17D2  0869               	movf	i1___fldiv@new_exp+1,w
  9777     17D3  3A80               	xorlw	128
  9778     17D4  00DE               	movwf	??i1___fldiv
  9779     17D5  3080               	movlw	128
  9780     17D6  025E               	subwf	??i1___fldiv,w
  9781     17D7  1D03               	skipz
  9782     17D8  2FDB               	goto	u561_25
  9783     17D9  3001               	movlw	1
  9784     17DA  0268               	subwf	i1___fldiv@new_exp,w
  9785     17DB                     u561_25:
  9786     17DB  1803               	skipnc
  9787     17DC  2FDE               	goto	u561_21
  9788     17DD  2FDF               	goto	u561_20
  9789     17DE                     u561_21:
  9790     17DE  2FEB               	goto	i1l1109
  9791     17DF                     u561_20:
  9792     17DF                     i1l4361:
  9793     17DF  0020               	movlb	0	; select bank0
  9794     17E0  01E8               	clrf	i1___fldiv@new_exp
  9795     17E1  01E9               	clrf	i1___fldiv@new_exp+1
  9796     17E2                     i1l4363:
  9797     17E2  3000               	movlw	0
  9798     17E3  00DD               	movwf	i1___fldiv@b+3
  9799     17E4  3000               	movlw	0
  9800     17E5  00DC               	movwf	i1___fldiv@b+2
  9801     17E6  3000               	movlw	0
  9802     17E7  00DB               	movwf	i1___fldiv@b+1
  9803     17E8  3000               	movlw	0
  9804     17E9  00DA               	movwf	i1___fldiv@b
  9805     17EA                     i1l4365:
  9806     17EA  01E7               	clrf	i1___fldiv@sign
  9807     17EB                     i1l1109:
  9808     17EB  0020               	movlb	0	; select bank0
  9809     17EC  0868               	movf	i1___fldiv@new_exp,w
  9810     17ED  00EE               	movwf	i1___fldiv@bexp
  9811     17EE                     i1l4367:
  9812     17EE  1C6E               	btfss	i1___fldiv@bexp,0
  9813     17EF  2FF1               	goto	u562_21
  9814     17F0  2FF2               	goto	u562_20
  9815     17F1                     u562_21:
  9816     17F1  2FF4               	goto	i1l4371
  9817     17F2                     u562_20:
  9818     17F2                     i1l4369:
  9819     17F2  17DC               	bsf	i1___fldiv@b+2,7
  9820     17F3  2FF8               	goto	i1l1111
  9821     17F4                     i1l4371:
  9822     17F4  307F               	movlw	127
  9823     17F5  00DE               	movwf	??i1___fldiv
  9824     17F6  085E               	movf	??i1___fldiv,w
  9825     17F7  05DC               	andwf	i1___fldiv@b+2,f
  9826     17F8                     i1l1111:
  9827     17F8  366E               	lsrf	i1___fldiv@bexp,w
  9828     17F9  00DD               	movwf	i1___fldiv@b+3
  9829     17FA  0867               	movf	i1___fldiv@sign,w
  9830     17FB  00DE               	movwf	??i1___fldiv
  9831     17FC  085E               	movf	??i1___fldiv,w
  9832     17FD  04DD               	iorwf	i1___fldiv@b+3,f
  9833     17FE  2EBF               	goto	i1l4281
  9834     17FF                     i1l1089:
  9835     17FF  0008               	return
  9836     1800                     __end_ofi1___fldiv:
  9837                           
  9838                           	psect	text25
  9839     0DF8                     __ptext25:	
  9840 ;; *************** function i1___fladd *****************
  9841 ;; Defined at:
  9842 ;;		line 10 in file "C:\Program Files\Microchip\xc8\v2.40\pic\sources\c99\common\sprcadd.c"
  9843 ;; Parameters:    Size  Location     Type
  9844 ;;  b               4    0[BANK0 ] unsigned char 
  9845 ;;  a               4    4[BANK0 ] unsigned char 
  9846 ;; Auto vars:     Size  Location     Type
  9847 ;;  grs             1   19[BANK0 ] unsigned char 
  9848 ;;  bexp            1   18[BANK0 ] unsigned char 
  9849 ;;  aexp            1   17[BANK0 ] unsigned char 
  9850 ;;  signs           1   16[BANK0 ] unsigned char 
  9851 ;; Return value:  Size  Location     Type
  9852 ;;                  4    0[BANK0 ] unsigned char 
  9853 ;; Registers used:
  9854 ;;		wreg, status,2, status,0
  9855 ;; Tracked objects:
  9856 ;;		On entry : 0/0
  9857 ;;		On exit  : 0/0
  9858 ;;		Unchanged: 0/0
  9859 ;; Data sizes:     COMMON   BANK0   BANK1   BANK2   BANK3   BANK4   BANK5   BANK6   BANK7   BANK8   BANK9  BANK10  BANK1
      +1  BANK12
  9860 ;;      Params:         0       8       0       0       0       0       0       0       0       0       0       0       
      +0       0
  9861 ;;      Locals:         0       4       0       0       0       0       0       0       0       0       0       0       
      +0       0
  9862 ;;      Temps:          0       8       0       0       0       0       0       0       0       0       0       0       
      +0       0
  9863 ;;      Totals:         0      20       0       0       0       0       0       0       0       0       0       0       
      +0       0
  9864 ;;Total ram usage:       20 bytes
  9865 ;; Hardware stack levels used: 1
  9866 ;; This function calls:
  9867 ;;		Nothing
  9868 ;; This function is called by:
  9869 ;;		_command_interpreter
  9870 ;;		_pid
  9871 ;;		___flsub
  9872 ;; This function uses a non-reentrant model
  9873 ;;
  9874                           
  9875     0DF8                     i1___fladd:	
  9876                           ;psect for function i1___fladd
  9877                           
  9878     0DF8                     i1l3109:	
  9879                           ;incstack = 0
  9880                           ; Regs used in i1___fladd: [wreg+status,2+status,0]
  9881                           
  9882     0DF8  0020               	movlb	0	; select bank0
  9883     0DF9  0823               	movf	i1___fladd@b+3,w
  9884     0DFA  3980               	andlw	128
  9885     0DFB  00B0               	movwf	i1___fladd@signs
  9886     0DFC                     i1l3111:
  9887     0DFC  3523               	lslf	i1___fladd@b+3,w
  9888     0DFD  00B2               	movwf	i1___fladd@bexp
  9889     0DFE                     i1l3113:
  9890     0DFE  1FA2               	btfss	i1___fladd@b+2,7
  9891     0DFF  2E01               	goto	u314_21
  9892     0E00  2E02               	goto	u314_20
  9893     0E01                     u314_21:
  9894     0E01  2E03               	goto	i1l3117
  9895     0E02                     u314_20:
  9896     0E02                     i1l3115:
  9897     0E02  1432               	bsf	i1___fladd@bexp,0
  9898     0E03                     i1l3117:
  9899     0E03  0832               	movf	i1___fladd@bexp,w
  9900     0E04  1903               	btfsc	3,2
  9901     0E05  2E07               	goto	u315_21
  9902     0E06  2E08               	goto	u315_20
  9903     0E07                     u315_21:
  9904     0E07  2E18               	goto	i1l3127
  9905     0E08                     u315_20:
  9906     0E08                     i1l3119:
  9907     0E08  0A32               	incf	i1___fladd@bexp,w
  9908     0E09  1D03               	btfss	3,2
  9909     0E0A  2E0C               	goto	u316_21
  9910     0E0B  2E0D               	goto	u316_20
  9911     0E0C                     u316_21:
  9912     0E0C  2E15               	goto	i1l3123
  9913     0E0D                     u316_20:
  9914     0E0D                     i1l3121:
  9915     0E0D  3000               	movlw	0
  9916     0E0E  00A3               	movwf	i1___fladd@b+3
  9917     0E0F  3000               	movlw	0
  9918     0E10  00A2               	movwf	i1___fladd@b+2
  9919     0E11  3000               	movlw	0
  9920     0E12  00A1               	movwf	i1___fladd@b+1
  9921     0E13  3000               	movlw	0
  9922     0E14  00A0               	movwf	i1___fladd@b
  9923     0E15                     i1l3123:
  9924     0E15  17A2               	bsf	i1___fladd@b+2,7
  9925     0E16                     i1l3125:
  9926     0E16  01A3               	clrf	i1___fladd@b+3
  9927     0E17  2E20               	goto	i1l3129
  9928     0E18                     i1l3127:
  9929     0E18  3000               	movlw	0
  9930     0E19  00A3               	movwf	i1___fladd@b+3
  9931     0E1A  3000               	movlw	0
  9932     0E1B  00A2               	movwf	i1___fladd@b+2
  9933     0E1C  3000               	movlw	0
  9934     0E1D  00A1               	movwf	i1___fladd@b+1
  9935     0E1E  3000               	movlw	0
  9936     0E1F  00A0               	movwf	i1___fladd@b
  9937     0E20                     i1l3129:
  9938     0E20  0827               	movf	i1___fladd@a+3,w
  9939     0E21  3980               	andlw	128
  9940     0E22  00B1               	movwf	i1___fladd@aexp
  9941     0E23                     i1l3131:
  9942     0E23  0831               	movf	i1___fladd@aexp,w
  9943     0E24  0630               	xorwf	i1___fladd@signs,w
  9944     0E25  1903               	skipnz
  9945     0E26  2E28               	goto	u317_21
  9946     0E27  2E29               	goto	u317_20
  9947     0E28                     u317_21:
  9948     0E28  2E2A               	goto	i1l3135
  9949     0E29                     u317_20:
  9950     0E29                     i1l3133:
  9951     0E29  1730               	bsf	i1___fladd@signs,6
  9952     0E2A                     i1l3135:
  9953     0E2A  3527               	lslf	i1___fladd@a+3,w
  9954     0E2B  00B1               	movwf	i1___fladd@aexp
  9955     0E2C                     i1l3137:
  9956     0E2C  1FA6               	btfss	i1___fladd@a+2,7
  9957     0E2D  2E2F               	goto	u318_21
  9958     0E2E  2E30               	goto	u318_20
  9959     0E2F                     u318_21:
  9960     0E2F  2E31               	goto	i1l3141
  9961     0E30                     u318_20:
  9962     0E30                     i1l3139:
  9963     0E30  1431               	bsf	i1___fladd@aexp,0
  9964     0E31                     i1l3141:
  9965     0E31  0831               	movf	i1___fladd@aexp,w
  9966     0E32  1903               	btfsc	3,2
  9967     0E33  2E35               	goto	u319_21
  9968     0E34  2E36               	goto	u319_20
  9969     0E35                     u319_21:
  9970     0E35  2E46               	goto	i1l3151
  9971     0E36                     u319_20:
  9972     0E36                     i1l3143:
  9973     0E36  0A31               	incf	i1___fladd@aexp,w
  9974     0E37  1D03               	btfss	3,2
  9975     0E38  2E3A               	goto	u320_21
  9976     0E39  2E3B               	goto	u320_20
  9977     0E3A                     u320_21:
  9978     0E3A  2E43               	goto	i1l3147
  9979     0E3B                     u320_20:
  9980     0E3B                     i1l3145:
  9981     0E3B  3000               	movlw	0
  9982     0E3C  00A7               	movwf	i1___fladd@a+3
  9983     0E3D  3000               	movlw	0
  9984     0E3E  00A6               	movwf	i1___fladd@a+2
  9985     0E3F  3000               	movlw	0
  9986     0E40  00A5               	movwf	i1___fladd@a+1
  9987     0E41  3000               	movlw	0
  9988     0E42  00A4               	movwf	i1___fladd@a
  9989     0E43                     i1l3147:
  9990     0E43  17A6               	bsf	i1___fladd@a+2,7
  9991     0E44                     i1l3149:
  9992     0E44  01A7               	clrf	i1___fladd@a+3
  9993     0E45  2E4E               	goto	i1l1031
  9994     0E46                     i1l3151:
  9995     0E46  3000               	movlw	0
  9996     0E47  00A7               	movwf	i1___fladd@a+3
  9997     0E48  3000               	movlw	0
  9998     0E49  00A6               	movwf	i1___fladd@a+2
  9999     0E4A  3000               	movlw	0
 10000     0E4B  00A5               	movwf	i1___fladd@a+1
 10001     0E4C  3000               	movlw	0
 10002     0E4D  00A4               	movwf	i1___fladd@a
 10003     0E4E                     i1l1031:
 10004     0E4E  0832               	movf	i1___fladd@bexp,w
 10005     0E4F  0231               	subwf	i1___fladd@aexp,w
 10006     0E50  1803               	skipnc
 10007     0E51  2E53               	goto	u321_21
 10008     0E52  2E54               	goto	u321_20
 10009     0E53                     u321_21:
 10010     0E53  2E7A               	goto	i1l3187
 10011     0E54                     u321_20:
 10012     0E54                     i1l3153:
 10013     0E54  1F30               	btfss	i1___fladd@signs,6
 10014     0E55  2E57               	goto	u322_21
 10015     0E56  2E58               	goto	u322_20
 10016     0E57                     u322_21:
 10017     0E57  2E5C               	goto	i1l3157
 10018     0E58                     u322_20:
 10019     0E58                     i1l3155:
 10020     0E58  3080               	movlw	128
 10021     0E59  00A8               	movwf	??i1___fladd
 10022     0E5A  0828               	movf	??i1___fladd,w
 10023     0E5B  06B0               	xorwf	i1___fladd@signs,f
 10024     0E5C                     i1l3157:
 10025     0E5C  0832               	movf	i1___fladd@bexp,w
 10026     0E5D  00B3               	movwf	i1___fladd@grs
 10027     0E5E                     i1l3159:
 10028     0E5E  0831               	movf	i1___fladd@aexp,w
 10029     0E5F  00B2               	movwf	i1___fladd@bexp
 10030     0E60                     i1l3161:
 10031     0E60  0833               	movf	i1___fladd@grs,w
 10032     0E61  00B1               	movwf	i1___fladd@aexp
 10033     0E62                     i1l3163:
 10034     0E62  0820               	movf	i1___fladd@b,w
 10035     0E63  00B3               	movwf	i1___fladd@grs
 10036     0E64                     i1l3165:
 10037     0E64  0824               	movf	i1___fladd@a,w
 10038     0E65  00A0               	movwf	i1___fladd@b
 10039     0E66                     i1l3167:
 10040     0E66  0833               	movf	i1___fladd@grs,w
 10041     0E67  00A4               	movwf	i1___fladd@a
 10042     0E68                     i1l3169:
 10043     0E68  0821               	movf	i1___fladd@b+1,w
 10044     0E69  00B3               	movwf	i1___fladd@grs
 10045     0E6A                     i1l3171:
 10046     0E6A  0825               	movf	i1___fladd@a+1,w
 10047     0E6B  00A1               	movwf	i1___fladd@b+1
 10048     0E6C                     i1l3173:
 10049     0E6C  0833               	movf	i1___fladd@grs,w
 10050     0E6D  00A5               	movwf	i1___fladd@a+1
 10051     0E6E                     i1l3175:
 10052     0E6E  0822               	movf	i1___fladd@b+2,w
 10053     0E6F  00B3               	movwf	i1___fladd@grs
 10054     0E70                     i1l3177:
 10055     0E70  0826               	movf	i1___fladd@a+2,w
 10056     0E71  00A2               	movwf	i1___fladd@b+2
 10057     0E72                     i1l3179:
 10058     0E72  0833               	movf	i1___fladd@grs,w
 10059     0E73  00A6               	movwf	i1___fladd@a+2
 10060     0E74                     i1l3181:
 10061     0E74  0823               	movf	i1___fladd@b+3,w
 10062     0E75  00B3               	movwf	i1___fladd@grs
 10063     0E76                     i1l3183:
 10064     0E76  0827               	movf	i1___fladd@a+3,w
 10065     0E77  00A3               	movwf	i1___fladd@b+3
 10066     0E78                     i1l3185:
 10067     0E78  0833               	movf	i1___fladd@grs,w
 10068     0E79  00A7               	movwf	i1___fladd@a+3
 10069     0E7A                     i1l3187:
 10070     0E7A  01B3               	clrf	i1___fladd@grs
 10071     0E7B                     i1l3189:
 10072     0E7B  0831               	movf	i1___fladd@aexp,w
 10073     0E7C  00A8               	movwf	??i1___fladd
 10074     0E7D  01A9               	clrf	??i1___fladd+1
 10075     0E7E  0829               	movf	??i1___fladd+1,w
 10076     0E7F  00AB               	movwf	??i1___fladd+3
 10077     0E80  0832               	movf	i1___fladd@bexp,w
 10078     0E81  0228               	subwf	??i1___fladd,w
 10079     0E82  00AA               	movwf	??i1___fladd+2
 10080     0E83  1C03               	skipc
 10081     0E84  03AB               	decf	??i1___fladd+3,f
 10082     0E85  082B               	movf	??i1___fladd+3,w
 10083     0E86  3A80               	xorlw	128
 10084     0E87  00AC               	movwf	??i1___fladd+4
 10085     0E88  3080               	movlw	128
 10086     0E89  022C               	subwf	??i1___fladd+4,w
 10087     0E8A  1D03               	skipz
 10088     0E8B  2E8E               	goto	u323_25
 10089     0E8C  301A               	movlw	26
 10090     0E8D  022A               	subwf	??i1___fladd+2,w
 10091     0E8E                     u323_25:
 10092     0E8E  1C03               	skipc
 10093     0E8F  2E91               	goto	u323_21
 10094     0E90  2E92               	goto	u323_20
 10095     0E91                     u323_21:
 10096     0E91  2EC4               	goto	i1l3205
 10097     0E92                     u323_20:
 10098     0E92                     i1l3191:
 10099     0E92  0020               	movlb	0	; select bank0
 10100     0E93  0823               	movf	i1___fladd@b+3,w
 10101     0E94  0422               	iorwf	i1___fladd@b+2,w
 10102     0E95  0421               	iorwf	i1___fladd@b+1,w
 10103     0E96  0420               	iorwf	i1___fladd@b,w
 10104     0E97  1D03               	skipz
 10105     0E98  2E9A               	goto	u324_21
 10106     0E99  2E9C               	goto	u324_20
 10107     0E9A                     u324_21:
 10108     0E9A  3001               	movlw	1
 10109     0E9B  2E9D               	goto	u325_20
 10110     0E9C                     u324_20:
 10111     0E9C  3000               	movlw	0
 10112     0E9D                     u325_20:
 10113     0E9D  00B3               	movwf	i1___fladd@grs
 10114     0E9E  3000               	movlw	0
 10115     0E9F  00A3               	movwf	i1___fladd@b+3
 10116     0EA0  3000               	movlw	0
 10117     0EA1  00A2               	movwf	i1___fladd@b+2
 10118     0EA2  3000               	movlw	0
 10119     0EA3  00A1               	movwf	i1___fladd@b+1
 10120     0EA4  3000               	movlw	0
 10121     0EA5  00A0               	movwf	i1___fladd@b
 10122     0EA6  0831               	movf	i1___fladd@aexp,w
 10123     0EA7  00B2               	movwf	i1___fladd@bexp
 10124     0EA8  2ECB               	goto	i1l1035
 10125     0EA9                     i1l1037:
 10126     0EA9  1C33               	btfss	i1___fladd@grs,0
 10127     0EAA  2EAC               	goto	u326_21
 10128     0EAB  2EAD               	goto	u326_20
 10129     0EAC                     u326_21:
 10130     0EAC  2EB1               	goto	i1l3195
 10131     0EAD                     u326_20:
 10132     0EAD                     i1l3193:
 10133     0EAD  3633               	lsrf	i1___fladd@grs,w
 10134     0EAE  3801               	iorlw	1
 10135     0EAF  00B3               	movwf	i1___fladd@grs
 10136     0EB0  2EB3               	goto	i1l3197
 10137     0EB1                     i1l3195:
 10138     0EB1  1003               	clrc
 10139     0EB2  0CB3               	rrf	i1___fladd@grs,f
 10140     0EB3                     i1l3197:
 10141     0EB3  1C20               	btfss	i1___fladd@b,0
 10142     0EB4  2EB6               	goto	u327_21
 10143     0EB5  2EB7               	goto	u327_20
 10144     0EB6                     u327_21:
 10145     0EB6  2EB8               	goto	i1l3201
 10146     0EB7                     u327_20:
 10147     0EB7                     i1l3199:
 10148     0EB7  17B3               	bsf	i1___fladd@grs,7
 10149     0EB8                     i1l3201:
 10150     0EB8  3001               	movlw	1
 10151     0EB9  00A8               	movwf	??i1___fladd
 10152     0EBA                     u328_25:
 10153     0EBA  37A3               	asrf	i1___fladd@b+3,f
 10154     0EBB  0CA2               	rrf	i1___fladd@b+2,f
 10155     0EBC  0CA1               	rrf	i1___fladd@b+1,f
 10156     0EBD  0CA0               	rrf	i1___fladd@b,f
 10157     0EBE  0BA8               	decfsz	??i1___fladd& (0+127),f
 10158     0EBF  2EBA               	goto	u328_25
 10159     0EC0                     i1l3203:
 10160     0EC0  3001               	movlw	1
 10161     0EC1  00A8               	movwf	??i1___fladd
 10162     0EC2  0828               	movf	??i1___fladd,w
 10163     0EC3  07B2               	addwf	i1___fladd@bexp,f
 10164     0EC4                     i1l3205:
 10165     0EC4  0020               	movlb	0	; select bank0
 10166     0EC5  0831               	movf	i1___fladd@aexp,w
 10167     0EC6  0232               	subwf	i1___fladd@bexp,w
 10168     0EC7  1C03               	skipc
 10169     0EC8  2ECA               	goto	u329_21
 10170     0EC9  2ECB               	goto	u329_20
 10171     0ECA                     u329_21:
 10172     0ECA  2EA9               	goto	i1l1037
 10173     0ECB                     u329_20:
 10174     0ECB                     i1l1035:
 10175     0ECB  1B30               	btfsc	i1___fladd@signs,6
 10176     0ECC  2ECE               	goto	u330_21
 10177     0ECD  2ECF               	goto	u330_20
 10178     0ECE                     u330_21:
 10179     0ECE  2F05               	goto	i1l3231
 10180     0ECF                     u330_20:
 10181     0ECF                     i1l3207:
 10182     0ECF  0832               	movf	i1___fladd@bexp,w
 10183     0ED0  1D03               	btfss	3,2
 10184     0ED1  2ED3               	goto	u331_21
 10185     0ED2  2ED4               	goto	u331_20
 10186     0ED3                     u331_21:
 10187     0ED3  2EDD               	goto	i1l3213
 10188     0ED4                     u331_20:
 10189     0ED4                     i1l3209:
 10190     0ED4  3000               	movlw	0
 10191     0ED5  00A3               	movwf	?i1___fladd+3
 10192     0ED6  3000               	movlw	0
 10193     0ED7  00A2               	movwf	?i1___fladd+2
 10194     0ED8  3000               	movlw	0
 10195     0ED9  00A1               	movwf	?i1___fladd+1
 10196     0EDA  3000               	movlw	0
 10197     0EDB  00A0               	movwf	?i1___fladd
 10198     0EDC  2FFF               	goto	i1l1044
 10199     0EDD                     i1l3213:
 10200     0EDD  0824               	movf	i1___fladd@a,w
 10201     0EDE  07A0               	addwf	i1___fladd@b,f
 10202     0EDF  0825               	movf	i1___fladd@a+1,w
 10203     0EE0  3DA1               	addwfc	i1___fladd@b+1,f
 10204     0EE1  0826               	movf	i1___fladd@a+2,w
 10205     0EE2  3DA2               	addwfc	i1___fladd@b+2,f
 10206     0EE3  0827               	movf	i1___fladd@a+3,w
 10207     0EE4  3DA3               	addwfc	i1___fladd@b+3,f
 10208     0EE5                     i1l3215:
 10209     0EE5  1C23               	btfss	i1___fladd@b+3,0
 10210     0EE6  2EE8               	goto	u332_21
 10211     0EE7  2EE9               	goto	u332_20
 10212     0EE8                     u332_21:
 10213     0EE8  2F91               	goto	i1l3265
 10214     0EE9                     u332_20:
 10215     0EE9                     i1l3217:
 10216     0EE9  1C33               	btfss	i1___fladd@grs,0
 10217     0EEA  2EEC               	goto	u333_21
 10218     0EEB  2EED               	goto	u333_20
 10219     0EEC                     u333_21:
 10220     0EEC  2EF1               	goto	i1l3221
 10221     0EED                     u333_20:
 10222     0EED                     i1l3219:
 10223     0EED  3633               	lsrf	i1___fladd@grs,w
 10224     0EEE  3801               	iorlw	1
 10225     0EEF  00B3               	movwf	i1___fladd@grs
 10226     0EF0  2EF3               	goto	i1l3223
 10227     0EF1                     i1l3221:
 10228     0EF1  1003               	clrc
 10229     0EF2  0CB3               	rrf	i1___fladd@grs,f
 10230     0EF3                     i1l3223:
 10231     0EF3  1C20               	btfss	i1___fladd@b,0
 10232     0EF4  2EF6               	goto	u334_21
 10233     0EF5  2EF7               	goto	u334_20
 10234     0EF6                     u334_21:
 10235     0EF6  2EF8               	goto	i1l3227
 10236     0EF7                     u334_20:
 10237     0EF7                     i1l3225:
 10238     0EF7  17B3               	bsf	i1___fladd@grs,7
 10239     0EF8                     i1l3227:
 10240     0EF8  3001               	movlw	1
 10241     0EF9  00A8               	movwf	??i1___fladd
 10242     0EFA                     u335_25:
 10243     0EFA  37A3               	asrf	i1___fladd@b+3,f
 10244     0EFB  0CA2               	rrf	i1___fladd@b+2,f
 10245     0EFC  0CA1               	rrf	i1___fladd@b+1,f
 10246     0EFD  0CA0               	rrf	i1___fladd@b,f
 10247     0EFE  0BA8               	decfsz	??i1___fladd& (0+127),f
 10248     0EFF  2EFA               	goto	u335_25
 10249     0F00                     i1l3229:
 10250     0F00  3001               	movlw	1
 10251     0F01  00A8               	movwf	??i1___fladd
 10252     0F02  0828               	movf	??i1___fladd,w
 10253     0F03  07B2               	addwf	i1___fladd@bexp,f
 10254     0F04  2F91               	goto	i1l3265
 10255     0F05                     i1l3231:
 10256     0F05  0823               	movf	i1___fladd@b+3,w
 10257     0F06  3A80               	xorlw	128
 10258     0F07  00A8               	movwf	??i1___fladd
 10259     0F08  0827               	movf	i1___fladd@a+3,w
 10260     0F09  3A80               	xorlw	128
 10261     0F0A  0228               	subwf	??i1___fladd,w
 10262     0F0B  1D03               	skipz
 10263     0F0C  2F17               	goto	u336_23
 10264     0F0D  0826               	movf	i1___fladd@a+2,w
 10265     0F0E  0222               	subwf	i1___fladd@b+2,w
 10266     0F0F  1D03               	skipz
 10267     0F10  2F17               	goto	u336_23
 10268     0F11  0825               	movf	i1___fladd@a+1,w
 10269     0F12  0221               	subwf	i1___fladd@b+1,w
 10270     0F13  1D03               	skipz
 10271     0F14  2F17               	goto	u336_23
 10272     0F15  0824               	movf	i1___fladd@a,w
 10273     0F16  0220               	subwf	i1___fladd@b,w
 10274     0F17                     u336_23:
 10275     0F17  1803               	skipnc
 10276     0F18  2F1A               	goto	u336_21
 10277     0F19  2F1B               	goto	u336_20
 10278     0F1A                     u336_21:
 10279     0F1A  2F53               	goto	i1l3241
 10280     0F1B                     u336_20:
 10281     0F1B                     i1l3233:
 10282     0F1B  30FF               	movlw	255
 10283     0F1C  00A8               	movwf	??i1___fladd
 10284     0F1D  30FF               	movlw	255
 10285     0F1E  00A9               	movwf	??i1___fladd+1
 10286     0F1F  30FF               	movlw	255
 10287     0F20  00AA               	movwf	??i1___fladd+2
 10288     0F21  30FF               	movlw	255
 10289     0F22  00AB               	movwf	??i1___fladd+3
 10290     0F23  0820               	movf	i1___fladd@b,w
 10291     0F24  0224               	subwf	i1___fladd@a,w
 10292     0F25  00AC               	movwf	??i1___fladd+4
 10293     0F26  0821               	movf	i1___fladd@b+1,w
 10294     0F27  3B25               	subwfb	i1___fladd@a+1,w
 10295     0F28  00AD               	movwf	??i1___fladd+5
 10296     0F29  0822               	movf	i1___fladd@b+2,w
 10297     0F2A  3B26               	subwfb	i1___fladd@a+2,w
 10298     0F2B  00AE               	movwf	??i1___fladd+6
 10299     0F2C  0823               	movf	i1___fladd@b+3,w
 10300     0F2D  3B27               	subwfb	i1___fladd@a+3,w
 10301     0F2E  00AF               	movwf	??i1___fladd+7
 10302     0F2F  082C               	movf	??i1___fladd+4,w
 10303     0F30  07A8               	addwf	??i1___fladd,f
 10304     0F31  082D               	movf	??i1___fladd+5,w
 10305     0F32  3DA9               	addwfc	??i1___fladd+1,f
 10306     0F33  082E               	movf	??i1___fladd+6,w
 10307     0F34  3DAA               	addwfc	??i1___fladd+2,f
 10308     0F35  082F               	movf	??i1___fladd+7,w
 10309     0F36  3DAB               	addwfc	??i1___fladd+3,f
 10310     0F37  082B               	movf	??i1___fladd+3,w
 10311     0F38  00A3               	movwf	i1___fladd@b+3
 10312     0F39  082A               	movf	??i1___fladd+2,w
 10313     0F3A  00A2               	movwf	i1___fladd@b+2
 10314     0F3B  0829               	movf	??i1___fladd+1,w
 10315     0F3C  00A1               	movwf	i1___fladd@b+1
 10316     0F3D  0828               	movf	??i1___fladd,w
 10317     0F3E  00A0               	movwf	i1___fladd@b
 10318     0F3F                     i1l3235:
 10319     0F3F  3080               	movlw	128
 10320     0F40  00A8               	movwf	??i1___fladd
 10321     0F41  0828               	movf	??i1___fladd,w
 10322     0F42  06B0               	xorwf	i1___fladd@signs,f
 10323     0F43  09B3               	comf	i1___fladd@grs,f
 10324     0F44  0AB3               	incf	i1___fladd@grs,f
 10325     0F45                     i1l3237:
 10326     0F45  0833               	movf	i1___fladd@grs,w
 10327     0F46  1D03               	btfss	3,2
 10328     0F47  2F49               	goto	u337_21
 10329     0F48  2F4A               	goto	u337_20
 10330     0F49                     u337_21:
 10331     0F49  2F5B               	goto	i1l1052
 10332     0F4A                     u337_20:
 10333     0F4A                     i1l3239:
 10334     0F4A  3001               	movlw	1
 10335     0F4B  07A0               	addwf	i1___fladd@b,f
 10336     0F4C  3000               	movlw	0
 10337     0F4D  3DA1               	addwfc	i1___fladd@b+1,f
 10338     0F4E  3000               	movlw	0
 10339     0F4F  3DA2               	addwfc	i1___fladd@b+2,f
 10340     0F50  3000               	movlw	0
 10341     0F51  3DA3               	addwfc	i1___fladd@b+3,f
 10342     0F52  2F5B               	goto	i1l1052
 10343     0F53                     i1l3241:
 10344     0F53  0824               	movf	i1___fladd@a,w
 10345     0F54  02A0               	subwf	i1___fladd@b,f
 10346     0F55  0825               	movf	i1___fladd@a+1,w
 10347     0F56  3BA1               	subwfb	i1___fladd@b+1,f
 10348     0F57  0826               	movf	i1___fladd@a+2,w
 10349     0F58  3BA2               	subwfb	i1___fladd@b+2,f
 10350     0F59  0827               	movf	i1___fladd@a+3,w
 10351     0F5A  3BA3               	subwfb	i1___fladd@b+3,f
 10352     0F5B                     i1l1052:
 10353     0F5B  0823               	movf	i1___fladd@b+3,w
 10354     0F5C  0422               	iorwf	i1___fladd@b+2,w
 10355     0F5D  0421               	iorwf	i1___fladd@b+1,w
 10356     0F5E  0420               	iorwf	i1___fladd@b,w
 10357     0F5F  1D03               	skipz
 10358     0F60  2F62               	goto	u338_21
 10359     0F61  2F63               	goto	u338_20
 10360     0F62                     u338_21:
 10361     0F62  2F8D               	goto	i1l3263
 10362     0F63                     u338_20:
 10363     0F63                     i1l3243:
 10364     0F63  0833               	movf	i1___fladd@grs,w
 10365     0F64  1D03               	btfss	3,2
 10366     0F65  2F67               	goto	u339_21
 10367     0F66  2F68               	goto	u339_20
 10368     0F67                     u339_21:
 10369     0F67  2F8D               	goto	i1l3263
 10370     0F68                     u339_20:
 10371     0F68                     i1l3245:
 10372     0F68  3000               	movlw	0
 10373     0F69  00A3               	movwf	?i1___fladd+3
 10374     0F6A  3000               	movlw	0
 10375     0F6B  00A2               	movwf	?i1___fladd+2
 10376     0F6C  3000               	movlw	0
 10377     0F6D  00A1               	movwf	?i1___fladd+1
 10378     0F6E  3000               	movlw	0
 10379     0F6F  00A0               	movwf	?i1___fladd
 10380     0F70  2FFF               	goto	i1l1044
 10381     0F71                     i1l3249:
 10382     0F71  3001               	movlw	1
 10383     0F72                     u340_25:
 10384     0F72  35A0               	lslf	i1___fladd@b,f
 10385     0F73  0DA1               	rlf	i1___fladd@b+1,f
 10386     0F74  0DA2               	rlf	i1___fladd@b+2,f
 10387     0F75  0DA3               	rlf	i1___fladd@b+3,f
 10388     0F76  0B89               	decfsz	9,f
 10389     0F77  2F72               	goto	u340_25
 10390     0F78                     i1l3251:
 10391     0F78  1FB3               	btfss	i1___fladd@grs,7
 10392     0F79  2F7B               	goto	u341_21
 10393     0F7A  2F7C               	goto	u341_20
 10394     0F7B                     u341_21:
 10395     0F7B  2F7D               	goto	i1l1056
 10396     0F7C                     u341_20:
 10397     0F7C                     i1l3253:
 10398     0F7C  1420               	bsf	i1___fladd@b,0
 10399     0F7D                     i1l1056:
 10400     0F7D  1C33               	btfss	i1___fladd@grs,0
 10401     0F7E  2F80               	goto	u342_21
 10402     0F7F  2F81               	goto	u342_20
 10403     0F80                     u342_21:
 10404     0F80  2F84               	goto	i1l3257
 10405     0F81                     u342_20:
 10406     0F81                     i1l3255:
 10407     0F81  1403               	setc
 10408     0F82  0DB3               	rlf	i1___fladd@grs,f
 10409     0F83  2F86               	goto	i1l3259
 10410     0F84                     i1l3257:
 10411     0F84  1003               	clrc
 10412     0F85  0DB3               	rlf	i1___fladd@grs,f
 10413     0F86                     i1l3259:
 10414     0F86  0832               	movf	i1___fladd@bexp,w
 10415     0F87  1903               	btfsc	3,2
 10416     0F88  2F8A               	goto	u343_21
 10417     0F89  2F8B               	goto	u343_20
 10418     0F8A                     u343_21:
 10419     0F8A  2F8D               	goto	i1l3263
 10420     0F8B                     u343_20:
 10421     0F8B                     i1l3261:
 10422     0F8B  3001               	movlw	1
 10423     0F8C  02B2               	subwf	i1___fladd@bexp,f
 10424     0F8D                     i1l3263:
 10425     0F8D  1FA2               	btfss	i1___fladd@b+2,7
 10426     0F8E  2F90               	goto	u344_21
 10427     0F8F  2F91               	goto	u344_20
 10428     0F90                     u344_21:
 10429     0F90  2F71               	goto	i1l3249
 10430     0F91                     u344_20:
 10431     0F91                     i1l3265:
 10432     0F91  01B1               	clrf	i1___fladd@aexp
 10433     0F92                     i1l3267:
 10434     0F92  1FB3               	btfss	i1___fladd@grs,7
 10435     0F93  2F95               	goto	u345_21
 10436     0F94  2F96               	goto	u345_20
 10437     0F95                     u345_21:
 10438     0F95  2FA4               	goto	i1l3275
 10439     0F96                     u345_20:
 10440     0F96                     i1l3269:
 10441     0F96  0833               	movf	i1___fladd@grs,w
 10442     0F97  397F               	andlw	127
 10443     0F98  1903               	btfsc	3,2
 10444     0F99  2F9B               	goto	u346_21
 10445     0F9A  2F9C               	goto	u346_20
 10446     0F9B                     u346_21:
 10447     0F9B  2F9F               	goto	i1l1062
 10448     0F9C                     u346_20:
 10449     0F9C                     i1l3271:
 10450     0F9C  01B1               	clrf	i1___fladd@aexp
 10451     0F9D  0AB1               	incf	i1___fladd@aexp,f
 10452     0F9E  2FA4               	goto	i1l3275
 10453     0F9F                     i1l1062:
 10454     0F9F  1C20               	btfss	i1___fladd@b,0
 10455     0FA0  2FA2               	goto	u347_21
 10456     0FA1  2FA3               	goto	u347_20
 10457     0FA2                     u347_21:
 10458     0FA2  2FA4               	goto	i1l3275
 10459     0FA3                     u347_20:
 10460     0FA3  2F9C               	goto	i1l3271
 10461     0FA4                     i1l3275:
 10462     0FA4  0831               	movf	i1___fladd@aexp,w
 10463     0FA5  1903               	btfsc	3,2
 10464     0FA6  2FA8               	goto	u348_21
 10465     0FA7  2FA9               	goto	u348_20
 10466     0FA8                     u348_21:
 10467     0FA8  2FD6               	goto	i1l1065
 10468     0FA9                     u348_20:
 10469     0FA9                     i1l3277:
 10470     0FA9  3001               	movlw	1
 10471     0FAA  07A0               	addwf	i1___fladd@b,f
 10472     0FAB  3000               	movlw	0
 10473     0FAC  3DA1               	addwfc	i1___fladd@b+1,f
 10474     0FAD  3000               	movlw	0
 10475     0FAE  3DA2               	addwfc	i1___fladd@b+2,f
 10476     0FAF  3000               	movlw	0
 10477     0FB0  3DA3               	addwfc	i1___fladd@b+3,f
 10478     0FB1                     i1l3279:
 10479     0FB1  1C23               	btfss	i1___fladd@b+3,0
 10480     0FB2  2FB4               	goto	u349_21
 10481     0FB3  2FB5               	goto	u349_20
 10482     0FB4                     u349_21:
 10483     0FB4  2FD6               	goto	i1l1065
 10484     0FB5                     u349_20:
 10485     0FB5                     i1l3281:
 10486     0FB5  0820               	movf	i1___fladd@b,w
 10487     0FB6  00A8               	movwf	??i1___fladd
 10488     0FB7  0821               	movf	i1___fladd@b+1,w
 10489     0FB8  00A9               	movwf	??i1___fladd+1
 10490     0FB9  0822               	movf	i1___fladd@b+2,w
 10491     0FBA  00AA               	movwf	??i1___fladd+2
 10492     0FBB  0823               	movf	i1___fladd@b+3,w
 10493     0FBC  00AB               	movwf	??i1___fladd+3
 10494     0FBD  3001               	movlw	1
 10495     0FBE  00AC               	movwf	??i1___fladd+4
 10496     0FBF                     u350_25:
 10497     0FBF  37AB               	asrf	??i1___fladd+3,f
 10498     0FC0  0CAA               	rrf	??i1___fladd+2,f
 10499     0FC1  0CA9               	rrf	??i1___fladd+1,f
 10500     0FC2  0CA8               	rrf	??i1___fladd,f
 10501     0FC3                     u350_20:
 10502     0FC3  0BAC               	decfsz	??i1___fladd+4,f
 10503     0FC4  2FBF               	goto	u350_25
 10504     0FC5  082B               	movf	??i1___fladd+3,w
 10505     0FC6  00A3               	movwf	i1___fladd@b+3
 10506     0FC7  082A               	movf	??i1___fladd+2,w
 10507     0FC8  00A2               	movwf	i1___fladd@b+2
 10508     0FC9  0829               	movf	??i1___fladd+1,w
 10509     0FCA  00A1               	movwf	i1___fladd@b+1
 10510     0FCB  0828               	movf	??i1___fladd,w
 10511     0FCC  00A0               	movwf	i1___fladd@b
 10512     0FCD  0A32               	incf	i1___fladd@bexp,w
 10513     0FCE  1903               	btfsc	3,2
 10514     0FCF  2FD1               	goto	u351_21
 10515     0FD0  2FD2               	goto	u351_20
 10516     0FD1                     u351_21:
 10517     0FD1  2FD6               	goto	i1l1065
 10518     0FD2                     u351_20:
 10519     0FD2                     i1l3283:
 10520     0FD2  3001               	movlw	1
 10521     0FD3  00A8               	movwf	??i1___fladd
 10522     0FD4  0828               	movf	??i1___fladd,w
 10523     0FD5  07B2               	addwf	i1___fladd@bexp,f
 10524     0FD6                     i1l1065:
 10525     0FD6  0A32               	incf	i1___fladd@bexp,w
 10526     0FD7  1903               	btfsc	3,2
 10527     0FD8  2FDA               	goto	u352_21
 10528     0FD9  2FDB               	goto	u352_20
 10529     0FDA                     u352_21:
 10530     0FDA  2FE0               	goto	i1l3287
 10531     0FDB                     u352_20:
 10532     0FDB                     i1l3285:
 10533     0FDB  0832               	movf	i1___fladd@bexp,w
 10534     0FDC  1D03               	btfss	3,2
 10535     0FDD  2FDF               	goto	u353_21
 10536     0FDE  2FE0               	goto	u353_20
 10537     0FDF                     u353_21:
 10538     0FDF  2FEE               	goto	i1l3293
 10539     0FE0                     u353_20:
 10540     0FE0                     i1l3287:
 10541     0FE0  3000               	movlw	0
 10542     0FE1  00A3               	movwf	i1___fladd@b+3
 10543     0FE2  3000               	movlw	0
 10544     0FE3  00A2               	movwf	i1___fladd@b+2
 10545     0FE4  3000               	movlw	0
 10546     0FE5  00A1               	movwf	i1___fladd@b+1
 10547     0FE6  3000               	movlw	0
 10548     0FE7  00A0               	movwf	i1___fladd@b
 10549     0FE8                     i1l3289:
 10550     0FE8  0832               	movf	i1___fladd@bexp,w
 10551     0FE9  1D03               	btfss	3,2
 10552     0FEA  2FEC               	goto	u354_21
 10553     0FEB  2FED               	goto	u354_20
 10554     0FEC                     u354_21:
 10555     0FEC  2FEE               	goto	i1l3293
 10556     0FED                     u354_20:
 10557     0FED                     i1l3291:
 10558     0FED  01B0               	clrf	i1___fladd@signs
 10559     0FEE                     i1l3293:
 10560     0FEE  1C32               	btfss	i1___fladd@bexp,0
 10561     0FEF  2FF1               	goto	u355_21
 10562     0FF0  2FF2               	goto	u355_20
 10563     0FF1                     u355_21:
 10564     0FF1  2FF4               	goto	i1l3297
 10565     0FF2                     u355_20:
 10566     0FF2                     i1l3295:
 10567     0FF2  17A2               	bsf	i1___fladd@b+2,7
 10568     0FF3  2FF8               	goto	i1l1073
 10569     0FF4                     i1l3297:
 10570     0FF4  307F               	movlw	127
 10571     0FF5  00A8               	movwf	??i1___fladd
 10572     0FF6  0828               	movf	??i1___fladd,w
 10573     0FF7  05A2               	andwf	i1___fladd@b+2,f
 10574     0FF8                     i1l1073:
 10575     0FF8  3632               	lsrf	i1___fladd@bexp,w
 10576     0FF9  00A3               	movwf	i1___fladd@b+3
 10577     0FFA                     i1l3299:
 10578     0FFA  1FB0               	btfss	i1___fladd@signs,7
 10579     0FFB  2FFD               	goto	u356_21
 10580     0FFC  2FFE               	goto	u356_20
 10581     0FFD                     u356_21:
 10582     0FFD  2FFF               	goto	i1l1074
 10583     0FFE                     u356_20:
 10584     0FFE                     i1l3301:
 10585     0FFE  17A3               	bsf	i1___fladd@b+3,7
 10586     0FFF                     i1l1074:
 10587     0FFF                     i1l1044:
 10588     0FFF  0008               	return
 10589     1000                     __end_ofi1___fladd:
 10590                           
 10591                           	psect	text26
 10592     1EE3                     __ptext26:	
 10593 ;; *************** function i1_Cell_OFF *****************
 10594 ;; Defined at:
 10595 ;;		line 502 in file "charger_discharger.c"
 10596 ;; Parameters:    Size  Location     Type
 10597 ;;		None
 10598 ;; Auto vars:     Size  Location     Type
 10599 ;;		None
 10600 ;; Return value:  Size  Location     Type
 10601 ;;                  1    wreg      void 
 10602 ;; Registers used:
 10603 ;;		wreg
 10604 ;; Tracked objects:
 10605 ;;		On entry : 0/0
 10606 ;;		On exit  : 0/0
 10607 ;;		Unchanged: 0/0
 10608 ;; Data sizes:     COMMON   BANK0   BANK1   BANK2   BANK3   BANK4   BANK5   BANK6   BANK7   BANK8   BANK9  BANK10  BANK1
      +1  BANK12
 10609 ;;      Params:         0       0       0       0       0       0       0       0       0       0       0       0       
      +0       0
 10610 ;;      Locals:         0       0       0       0       0       0       0       0       0       0       0       0       
      +0       0
 10611 ;;      Temps:          1       0       0       0       0       0       0       0       0       0       0       0       
      +0       0
 10612 ;;      Totals:         1       0       0       0       0       0       0       0       0       0       0       0       
      +0       0
 10613 ;;Total ram usage:        1 bytes
 10614 ;; Hardware stack levels used: 1
 10615 ;; This function calls:
 10616 ;;		Nothing
 10617 ;; This function is called by:
 10618 ;;		_command_interpreter
 10619 ;; This function uses a non-reentrant model
 10620 ;;
 10621                           
 10622     1EE3                     i1_Cell_OFF:	
 10623                           ;psect for function i1_Cell_OFF
 10624                           
 10625     1EE3                     i1l4227:	
 10626                           ;incstack = 0
 10627                           ; Regs used in i1_Cell_OFF: [wreg]
 10628                           
 10629                           
 10630                           ;charger_discharger.c: 504:     { RB2 = 0; };
 10631     1EE3  0020               	movlb	0	; select bank0
 10632     1EE4  110D               	bcf	13,2	;volatile
 10633     1EE5                     i1l4229:
 10634                           
 10635                           ;charger_discharger.c: 505:     _delay((unsigned long)((10)*(32000000/4000.0)));
 10636     1EE5  3068               	movlw	104
 10637     1EE6  00F0               	movwf	??i1_Cell_OFF
 10638     1EE7  30E4               	movlw	228
 10639     1EE8                     u652_27:
 10640     1EE8  0B89               	decfsz	9,f
 10641     1EE9  2EE8               	goto	u652_27
 10642     1EEA  0BF0               	decfsz	??i1_Cell_OFF,f
 10643     1EEB  2EE8               	goto	u652_27
 10644     1EEC  3200               	nop2
 10645     1EED                     i1l4231:
 10646                           
 10647                           ;charger_discharger.c: 506:     { RB3 = 0; };
 10648     1EED  0020               	movlb	0	; select bank0
 10649     1EEE  118D               	bcf	13,3	;volatile
 10650                           
 10651                           ;charger_discharger.c: 507:     _delay((unsigned long)((10)*(32000000/4000.0)));
 10652     1EEF  3068               	movlw	104
 10653     1EF0  00F0               	movwf	??i1_Cell_OFF
 10654     1EF1  30E4               	movlw	228
 10655     1EF2                     u653_27:
 10656     1EF2  0B89               	decfsz	9,f
 10657     1EF3  2EF2               	goto	u653_27
 10658     1EF4  0BF0               	decfsz	??i1_Cell_OFF,f
 10659     1EF5  2EF2               	goto	u653_27
 10660     1EF6  3200               	nop2
 10661     1EF7                     i1l4233:
 10662                           
 10663                           ;charger_discharger.c: 508:     { RB4 = 0; };
 10664     1EF7  0020               	movlb	0	; select bank0
 10665     1EF8  120D               	bcf	13,4	;volatile
 10666                           
 10667                           ;charger_discharger.c: 509:     _delay((unsigned long)((10)*(32000000/4000.0)));
 10668     1EF9  3068               	movlw	104
 10669     1EFA  00F0               	movwf	??i1_Cell_OFF
 10670     1EFB  30E4               	movlw	228
 10671     1EFC                     u654_27:
 10672     1EFC  0B89               	decfsz	9,f
 10673     1EFD  2EFC               	goto	u654_27
 10674     1EFE  0BF0               	decfsz	??i1_Cell_OFF,f
 10675     1EFF  2EFC               	goto	u654_27
 10676     1F00  3200               	nop2
 10677     1F01                     i1l4235:
 10678                           
 10679                           ;charger_discharger.c: 510:     { RB5 = 0; };
 10680     1F01  0020               	movlb	0	; select bank0
 10681     1F02  128D               	bcf	13,5	;volatile
 10682                           
 10683                           ;charger_discharger.c: 511:     _delay((unsigned long)((10)*(32000000/4000.0)));
 10684     1F03  3068               	movlw	104
 10685     1F04  00F0               	movwf	??i1_Cell_OFF
 10686     1F05  30E4               	movlw	228
 10687     1F06                     u655_27:
 10688     1F06  0B89               	decfsz	9,f
 10689     1F07  2F06               	goto	u655_27
 10690     1F08  0BF0               	decfsz	??i1_Cell_OFF,f
 10691     1F09  2F06               	goto	u655_27
 10692     1F0A  3200               	nop2
 10693     1F0B                     i1l444:
 10694     1F0B  0008               	return
 10695     1F0C                     __end_ofi1_Cell_OFF:
 10696                           
 10697                           	psect	text27
 10698     1DF2                     __ptext27:	
 10699 ;; *************** function _strlen *****************
 10700 ;; Defined at:
 10701 ;;		line 5 in file "C:\Program Files\Microchip\xc8\v2.40\pic\sources\c99\common\strlen.c"
 10702 ;; Parameters:    Size  Location     Type
 10703 ;;  s               2    0[COMMON] PTR const unsigned char 
 10704 ;;		 -> ROM(8192), 
 10705 ;; Auto vars:     Size  Location     Type
 10706 ;;  a               2    3[COMMON] PTR const unsigned char 
 10707 ;;		 -> ROM(8192), 
 10708 ;; Return value:  Size  Location     Type
 10709 ;;                  2    0[COMMON] unsigned int 
 10710 ;; Registers used:
 10711 ;;		wreg, fsr0l, fsr0h, status,2, status,0
 10712 ;; Tracked objects:
 10713 ;;		On entry : 0/0
 10714 ;;		On exit  : 0/0
 10715 ;;		Unchanged: 0/0
 10716 ;; Data sizes:     COMMON   BANK0   BANK1   BANK2   BANK3   BANK4   BANK5   BANK6   BANK7   BANK8   BANK9  BANK10  BANK1
      +1  BANK12
 10717 ;;      Params:         2       0       0       0       0       0       0       0       0       0       0       0       
      +0       0
 10718 ;;      Locals:         2       0       0       0       0       0       0       0       0       0       0       0       
      +0       0
 10719 ;;      Temps:          1       0       0       0       0       0       0       0       0       0       0       0       
      +0       0
 10720 ;;      Totals:         5       0       0       0       0       0       0       0       0       0       0       0       
      +0       0
 10721 ;;Total ram usage:        5 bytes
 10722 ;; Hardware stack levels used: 1
 10723 ;; This function calls:
 10724 ;;		Nothing
 10725 ;; This function is called by:
 10726 ;;		_command_interpreter
 10727 ;; This function uses a non-reentrant model
 10728 ;;
 10729                           
 10730     1DF2                     _strlen:	
 10731                           ;psect for function _strlen
 10732                           
 10733     1DF2                     i1l3647:	
 10734                           ;incstack = 0
 10735                           ; Regs used in _strlen: [wreg-fsr0h+status,2+status,0]
 10736                           
 10737     1DF2  0871               	movf	strlen@s+1,w
 10738     1DF3  00F4               	movwf	strlen@a+1
 10739     1DF4  0870               	movf	strlen@s,w
 10740     1DF5  00F3               	movwf	strlen@a
 10741     1DF6  2DFB               	goto	i1l3651
 10742     1DF7                     i1l3649:
 10743     1DF7  3001               	movlw	1
 10744     1DF8  07F0               	addwf	strlen@s,f
 10745     1DF9  3000               	movlw	0
 10746     1DFA  3DF1               	addwfc	strlen@s+1,f
 10747     1DFB                     i1l3651:
 10748     1DFB  0870               	movf	strlen@s,w
 10749     1DFC  0084               	movwf	4
 10750     1DFD  0871               	movf	strlen@s+1,w
 10751     1DFE  0085               	movwf	5
 10752     1DFF  0012               	moviw fsr0++
 10753     1E00  1D03               	btfss	3,2
 10754     1E01  2E03               	goto	u415_21
 10755     1E02  2E04               	goto	u415_20
 10756     1E03                     u415_21:
 10757     1E03  2DF7               	goto	i1l3649
 10758     1E04                     u415_20:
 10759     1E04                     i1l3653:
 10760     1E04  0873               	movf	strlen@a,w
 10761     1E05  0270               	subwf	strlen@s,w
 10762     1E06  00F0               	movwf	?_strlen
 10763     1E07  0874               	movf	strlen@a+1,w
 10764     1E08  3B71               	subwfb	strlen@s+1,w
 10765     1E09  00F1               	movwf	?_strlen+1
 10766     1E0A                     i1l1207:
 10767     1E0A  0008               	return
 10768     1E0B                     __end_of_strlen:
 10769                           
 10770                           	psect	text28
 10771     1F39                     __ptext28:	
 10772 ;; *************** function _strcmp *****************
 10773 ;; Defined at:
 10774 ;;		line 3 in file "C:\Program Files\Microchip\xc8\v2.40\pic\sources\c99\common\strcmp.c"
 10775 ;; Parameters:    Size  Location     Type
 10776 ;;  l               1    wreg     PTR const unsigned char 
 10777 ;;		 -> command_interpreter@data(20), 
 10778 ;;  r               2    0[COMMON] PTR const unsigned char 
 10779 ;;		 -> ROM(8192), 
 10780 ;; Auto vars:     Size  Location     Type
 10781 ;;  l               1    3[COMMON] PTR const unsigned char 
 10782 ;;		 -> command_interpreter@data(20), 
 10783 ;; Return value:  Size  Location     Type
 10784 ;;                  2    0[COMMON] int 
 10785 ;; Registers used:
 10786 ;;		wreg, fsr0l, fsr0h, fsr1l, fsr1h, status,2, status,0, pclath
 10787 ;; Tracked objects:
 10788 ;;		On entry : 0/0
 10789 ;;		On exit  : 0/0
 10790 ;;		Unchanged: 0/0
 10791 ;; Data sizes:     COMMON   BANK0   BANK1   BANK2   BANK3   BANK4   BANK5   BANK6   BANK7   BANK8   BANK9  BANK10  BANK1
      +1  BANK12
 10792 ;;      Params:         2       0       0       0       0       0       0       0       0       0       0       0       
      +0       0
 10793 ;;      Locals:         1       0       0       0       0       0       0       0       0       0       0       0       
      +0       0
 10794 ;;      Temps:          1       0       0       0       0       0       0       0       0       0       0       0       
      +0       0
 10795 ;;      Totals:         4       0       0       0       0       0       0       0       0       0       0       0       
      +0       0
 10796 ;;Total ram usage:        4 bytes
 10797 ;; Hardware stack levels used: 1
 10798 ;; This function calls:
 10799 ;;		Nothing
 10800 ;; This function is called by:
 10801 ;;		_command_interpreter
 10802 ;; This function uses a non-reentrant model
 10803 ;;
 10804                           
 10805     1F39                     _strcmp:	
 10806                           ;psect for function _strcmp
 10807                           
 10808                           
 10809                           ;incstack = 0
 10810                           ; Regs used in _strcmp: [wreg-fsr1h+status,2+status,0+pclath]
 10811                           ;strcmp@l stored from wreg
 10812     1F39  00F3               	movwf	strcmp@l
 10813     1F3A                     i1l3635:
 10814     1F3A  2F43               	goto	i1l3639
 10815     1F3B                     i1l3637:
 10816     1F3B  3001               	movlw	1
 10817     1F3C  00F2               	movwf	??_strcmp
 10818     1F3D  0872               	movf	??_strcmp,w
 10819     1F3E  07F3               	addwf	strcmp@l,f
 10820     1F3F  3001               	movlw	1
 10821     1F40  07F0               	addwf	strcmp@r,f
 10822     1F41  3000               	movlw	0
 10823     1F42  3DF1               	addwfc	strcmp@r+1,f
 10824     1F43                     i1l3639:
 10825     1F43  0870               	movf	strcmp@r,w
 10826     1F44  0084               	movwf	4
 10827     1F45  0871               	movf	strcmp@r+1,w
 10828     1F46  0085               	movwf	5
 10829     1F47  0800               	movf	0,w	;code access
 10830     1F48  00F2               	movwf	??_strcmp
 10831     1F49  0873               	movf	strcmp@l,w
 10832     1F4A  0086               	movwf	6
 10833     1F4B  0187               	clrf	7
 10834     1F4C  0801               	movf	1,w
 10835     1F4D  0672               	xorwf	??_strcmp,w
 10836     1F4E  1D03               	skipz
 10837     1F4F  2F51               	goto	u413_21
 10838     1F50  2F52               	goto	u413_20
 10839     1F51                     u413_21:
 10840     1F51  2F5A               	goto	i1l3643
 10841     1F52                     u413_20:
 10842     1F52                     i1l3641:
 10843     1F52  0873               	movf	strcmp@l,w
 10844     1F53  0086               	movwf	6
 10845     1F54  0187               	clrf	7
 10846     1F55  0801               	movf	1,w
 10847     1F56  1D03               	btfss	3,2
 10848     1F57  2F59               	goto	u414_21
 10849     1F58  2F5A               	goto	u414_20
 10850     1F59                     u414_21:
 10851     1F59  2F3B               	goto	i1l3637
 10852     1F5A                     u414_20:
 10853     1F5A                     i1l3643:
 10854     1F5A  0873               	movf	strcmp@l,w
 10855     1F5B  0086               	movwf	6
 10856     1F5C  0187               	clrf	7
 10857     1F5D  0870               	movf	strcmp@r,w
 10858     1F5E  0084               	movwf	4
 10859     1F5F  0871               	movf	strcmp@r+1,w
 10860     1F60  0085               	movwf	5
 10861     1F61  0800               	movf	0,w	;code access
 10862     1F62  0201               	subwf	1,w
 10863     1F63  00F0               	movwf	?_strcmp
 10864     1F64  01F1               	clrf	?_strcmp+1
 10865     1F65  1C03               	skipc
 10866     1F66  03F1               	decf	?_strcmp+1,f
 10867     1F67                     i1l1201:
 10868     1F67  0008               	return
 10869     1F68                     __end_of_strcmp:
 10870                           
 10871                           	psect	text29
 10872     1FCA                     __ptext29:	
 10873 ;; *************** function _converter_settings *****************
 10874 ;; Defined at:
 10875 ;;		line 310 in file "charger_discharger.c"
 10876 ;; Parameters:    Size  Location     Type
 10877 ;;		None
 10878 ;; Auto vars:     Size  Location     Type
 10879 ;;		None
 10880 ;; Return value:  Size  Location     Type
 10881 ;;                  1    wreg      void 
 10882 ;; Registers used:
 10883 ;;		wreg, status,2, status,0, pclath, cstack
 10884 ;; Tracked objects:
 10885 ;;		On entry : 0/0
 10886 ;;		On exit  : 0/0
 10887 ;;		Unchanged: 0/0
 10888 ;; Data sizes:     COMMON   BANK0   BANK1   BANK2   BANK3   BANK4   BANK5   BANK6   BANK7   BANK8   BANK9  BANK10  BANK1
      +1  BANK12
 10889 ;;      Params:         0       0       0       0       0       0       0       0       0       0       0       0       
      +0       0
 10890 ;;      Locals:         0       0       0       0       0       0       0       0       0       0       0       0       
      +0       0
 10891 ;;      Temps:          0       0       1       0       0       0       0       0       0       0       0       0       
      +0       0
 10892 ;;      Totals:         0       0       1       0       0       0       0       0       0       0       0       0       
      +0       0
 10893 ;;Total ram usage:        1 bytes
 10894 ;; Hardware stack levels used: 1
 10895 ;; Hardware stack levels required when called: 2
 10896 ;; This function calls:
 10897 ;;		_Cell_ON
 10898 ;;		i1_set_DC
 10899 ;; This function is called by:
 10900 ;;		_command_interpreter
 10901 ;; This function uses a non-reentrant model
 10902 ;;
 10903                           
 10904     1FCA                     _converter_settings:	
 10905                           ;psect for function _converter_settings
 10906                           
 10907     1FCA                     i1l3665:	
 10908                           ;incstack = 0
 10909                           ; Regs used in _converter_settings: [wreg+status,2+status,0+pclath+cstack]
 10910                           
 10911                           
 10912                           ;charger_discharger.c: 313:     cmode = 1;
 10913     1FCA  0021               	movlb	1	; select bank1
 10914     1FCB  01EC               	clrf	_cmode^(0+128)
 10915     1FCC  0AEC               	incf	_cmode^(0+128),f
 10916     1FCD                     i1l3667:
 10917                           
 10918                           ;charger_discharger.c: 314:     pidi = 0;
 10919     1FCD  3000               	movlw	0
 10920     1FCE  00CE               	movwf	(_pidi+3)^(0+128)
 10921     1FCF  3000               	movlw	0
 10922     1FD0  00CD               	movwf	(_pidi+2)^(0+128)
 10923     1FD1  3000               	movlw	0
 10924     1FD2  00CC               	movwf	(_pidi+1)^(0+128)
 10925     1FD3  3000               	movlw	0
 10926     1FD4  00CB               	movwf	_pidi^(0+128)
 10927                           
 10928                           ;charger_discharger.c: 315:     qavg = 0;
 10929     1FD5  3000               	movlw	0
 10930     1FD6  0023               	movlb	3	; select bank3
 10931     1FD7  00B7               	movwf	(_qavg+3)^(0+384)
 10932     1FD8  3000               	movlw	0
 10933     1FD9  00B6               	movwf	(_qavg+2)^(0+384)
 10934     1FDA  3000               	movlw	0
 10935     1FDB  00B5               	movwf	(_qavg+1)^(0+384)
 10936     1FDC  3000               	movlw	0
 10937     1FDD  00B4               	movwf	_qavg^(0+384)
 10938     1FDE                     i1l3669:
 10939                           
 10940                           ;charger_discharger.c: 316:     vmax = 0;
 10941     1FDE  0021               	movlb	1	; select bank1
 10942     1FDF  01D7               	clrf	_vmax^(0+128)
 10943     1FE0  01D8               	clrf	(_vmax+1)^(0+128)
 10944     1FE1                     i1l3671:
 10945                           
 10946                           ;charger_discharger.c: 317:     pidt = 50.0;
 10947     1FE1  3042               	movlw	66
 10948     1FE2  0023               	movlb	3	; select bank3
 10949     1FE3  00A3               	movwf	(_pidt+3)^(0+384)
 10950     1FE4  3048               	movlw	72
 10951     1FE5  00A2               	movwf	(_pidt+2)^(0+384)
 10952     1FE6  3000               	movlw	0
 10953     1FE7  00A1               	movwf	(_pidt+1)^(0+384)
 10954     1FE8  3000               	movlw	0
 10955     1FE9  00A0               	movwf	_pidt^(0+384)
 10956     1FEA                     i1l3673:
 10957                           
 10958                           ;charger_discharger.c: 318:     set_DC();
 10959     1FEA  319E  267A  319F   	fcall	i1_set_DC
 10960     1FED                     i1l3675:
 10961                           
 10962                           ;charger_discharger.c: 319:     Cell_ON();
 10963     1FED  3192  2213  319F   	fcall	_Cell_ON
 10964     1FF0                     i1l3677:
 10965                           
 10966                           ;charger_discharger.c: 325:     _delay((unsigned long)((10)*(32000000/4000.0)));
 10967     1FF0  3068               	movlw	104
 10968     1FF1  0021               	movlb	1	; select bank1
 10969     1FF2  00AC               	movwf	??_converter_settings^(0+128)
 10970     1FF3  30E4               	movlw	228
 10971     1FF4                     u656_27:
 10972     1FF4  0B89               	decfsz	9,f
 10973     1FF5  2FF4               	goto	u656_27
 10974     1FF6  0BAC               	decfsz	??_converter_settings^(0+128),f
 10975     1FF7  2FF4               	goto	u656_27
 10976     1FF8  0000               	nop
 10977     1FF9                     i1l3679:
 10978                           
 10979                           ;charger_discharger.c: 326:     second = 0;
 10980     1FF9  0023               	movlb	3	; select bank3
 10981     1FFA  01BA               	clrf	_second^(0+384)
 10982     1FFB  01BB               	clrf	(_second+1)^(0+384)
 10983     1FFC                     i1l3681:
 10984                           
 10985                           ;charger_discharger.c: 327:     conv = 1;
 10986     1FFC  0021               	movlb	1	; select bank1
 10987     1FFD  01E7               	clrf	_conv^(0+128)
 10988     1FFE  0AE7               	incf	_conv^(0+128),f
 10989     1FFF                     i1l365:
 10990     1FFF  0008               	return
 10991     2000                     __end_of_converter_settings:
 10992                           
 10993                           	psect	text30
 10994     1E7A                     __ptext30:	
 10995 ;; *************** function i1_set_DC *****************
 10996 ;; Defined at:
 10997 ;;		line 227 in file "charger_discharger.c"
 10998 ;; Parameters:    Size  Location     Type
 10999 ;;		None
 11000 ;; Auto vars:     Size  Location     Type
 11001 ;;  dc              2   10[BANK1 ] unsigned short 
 11002 ;; Return value:  Size  Location     Type
 11003 ;;                  1    wreg      void 
 11004 ;; Registers used:
 11005 ;;		wreg, status,2, status,0, pclath, cstack
 11006 ;; Tracked objects:
 11007 ;;		On entry : 0/0
 11008 ;;		On exit  : 0/0
 11009 ;;		Unchanged: 0/0
 11010 ;; Data sizes:     COMMON   BANK0   BANK1   BANK2   BANK3   BANK4   BANK5   BANK6   BANK7   BANK8   BANK9  BANK10  BANK1
      +1  BANK12
 11011 ;;      Params:         0       0       0       0       0       0       0       0       0       0       0       0       
      +0       0
 11012 ;;      Locals:         0       0       2       0       0       0       0       0       0       0       0       0       
      +0       0
 11013 ;;      Temps:          0       0       0       0       0       0       0       0       0       0       0       0       
      +0       0
 11014 ;;      Totals:         0       0       2       0       0       0       0       0       0       0       0       0       
      +0       0
 11015 ;;Total ram usage:        2 bytes
 11016 ;; Hardware stack levels used: 1
 11017 ;; Hardware stack levels required when called: 1
 11018 ;; This function calls:
 11019 ;;		i1___fltol
 11020 ;; This function is called by:
 11021 ;;		_command_interpreter
 11022 ;;		_control_loop
 11023 ;;		_converter_settings
 11024 ;; This function uses a non-reentrant model
 11025 ;;
 11026                           
 11027     1E7A                     i1_set_DC:	
 11028                           ;psect for function i1_set_DC
 11029                           
 11030     1E7A                     i1l3453:	
 11031                           ;incstack = 0
 11032                           ; Regs used in i1_set_DC: [wreg+status,2+status,0+pclath+cstack]
 11033                           
 11034                           
 11035                           ;charger_discharger.c: 230:     uint16_t dc = (uint16_t) pidt;
 11036     1E7A  0023               	movlb	3	; select bank3
 11037     1E7B  0823               	movf	(_pidt+3)^(0+384),w
 11038     1E7C  0021               	movlb	1	; select bank1
 11039     1E7D  00A3               	movwf	(i1___fltol@f1+3)^(0+128)
 11040     1E7E  0023               	movlb	3	; select bank3
 11041     1E7F  0822               	movf	(_pidt+2)^(0+384),w
 11042     1E80  0021               	movlb	1	; select bank1
 11043     1E81  00A2               	movwf	(i1___fltol@f1+2)^(0+128)
 11044     1E82  0023               	movlb	3	; select bank3
 11045     1E83  0821               	movf	(_pidt+1)^(0+384),w
 11046     1E84  0021               	movlb	1	; select bank1
 11047     1E85  00A1               	movwf	(i1___fltol@f1+1)^(0+128)
 11048     1E86  0023               	movlb	3	; select bank3
 11049     1E87  0820               	movf	_pidt^(0+384),w
 11050     1E88  0021               	movlb	1	; select bank1
 11051     1E89  00A0               	movwf	i1___fltol@f1^(0+128)
 11052     1E8A  3190  20A3  319E   	fcall	i1___fltol
 11053     1E8D  0021               	movlb	1	; select bank1
 11054     1E8E  0821               	movf	(?i1___fltol+1)^(0+128),w
 11055     1E8F  00AB               	movwf	(i1set_DC@dc+1)^(0+128)
 11056     1E90  0820               	movf	?i1___fltol^(0+128),w
 11057     1E91  00AA               	movwf	i1set_DC@dc^(0+128)
 11058     1E92                     i1l3455:
 11059                           
 11060                           ;charger_discharger.c: 232:     PSMC1DCL = dc & 0x00FF;
 11061     1E92  082A               	movf	i1set_DC@dc^(0+128),w
 11062     1E93  0030               	movlb	16	; select bank16
 11063     1E94  00A3               	movwf	35	;volatile
 11064     1E95                     i1l3457:
 11065                           
 11066                           ;charger_discharger.c: 233:     PSMC1DCH = (dc >> 8) & 0x01;
 11067     1E95  0021               	movlb	1	; select bank1
 11068     1E96  082B               	movf	(i1set_DC@dc+1)^(0+128),w
 11069     1E97  3901               	andlw	1
 11070     1E98  0030               	movlb	16	; select bank16
 11071     1E99  00A4               	movwf	36	;volatile
 11072     1E9A                     i1l3459:
 11073                           
 11074                           ;charger_discharger.c: 234:     PSMC1CONbits.PSMC1LD = 1;
 11075     1E9A  1711               	bsf	17,6	;volatile
 11076     1E9B                     i1l336:
 11077     1E9B  0008               	return
 11078     1E9C                     __end_ofi1_set_DC:
 11079                           
 11080                           	psect	text31
 11081     10A3                     __ptext31:	
 11082 ;; *************** function i1___fltol *****************
 11083 ;; Defined at:
 11084 ;;		line 43 in file "C:\Program Files\Microchip\xc8\v2.40\pic\sources\c99\common\fltol.c"
 11085 ;; Parameters:    Size  Location     Type
 11086 ;;  f1              4    0[BANK1 ] void 
 11087 ;; Auto vars:     Size  Location     Type
 11088 ;;  exp1            1    9[BANK1 ] unsigned char 
 11089 ;;  sign1           1    8[BANK1 ] unsigned char 
 11090 ;; Return value:  Size  Location     Type
 11091 ;;                  4    0[BANK1 ] long 
 11092 ;; Registers used:
 11093 ;;		wreg, status,2, status,0
 11094 ;; Tracked objects:
 11095 ;;		On entry : 0/0
 11096 ;;		On exit  : 0/0
 11097 ;;		Unchanged: 0/0
 11098 ;; Data sizes:     COMMON   BANK0   BANK1   BANK2   BANK3   BANK4   BANK5   BANK6   BANK7   BANK8   BANK9  BANK10  BANK1
      +1  BANK12
 11099 ;;      Params:         0       0       4       0       0       0       0       0       0       0       0       0       
      +0       0
 11100 ;;      Locals:         0       0       2       0       0       0       0       0       0       0       0       0       
      +0       0
 11101 ;;      Temps:          0       0       4       0       0       0       0       0       0       0       0       0       
      +0       0
 11102 ;;      Totals:         0       0      10       0       0       0       0       0       0       0       0       0       
      +0       0
 11103 ;;Total ram usage:       10 bytes
 11104 ;; Hardware stack levels used: 1
 11105 ;; This function calls:
 11106 ;;		Nothing
 11107 ;; This function is called by:
 11108 ;;		_command_interpreter
 11109 ;;		i1_set_DC
 11110 ;; This function uses a non-reentrant model
 11111 ;;
 11112                           
 11113     10A3                     i1___fltol:	
 11114                           ;psect for function i1___fltol
 11115                           
 11116     10A3                     i1l3073:	
 11117                           ;incstack = 0
 11118                           ; Regs used in i1___fltol: [wreg+status,2+status,0]
 11119                           
 11120     10A3  1003               	clrc
 11121     10A4  0021               	movlb	1	; select bank1
 11122     10A5  0D22               	rlf	(i1___fltol@f1+2)^(0+128),w
 11123     10A6  0D23               	rlf	(i1___fltol@f1+3)^(0+128),w
 11124     10A7  00A9               	movwf	i1___fltol@exp1^(0+128)
 11125     10A8  0829               	movf	i1___fltol@exp1^(0+128),w
 11126     10A9  1D03               	btfss	3,2
 11127     10AA  28AC               	goto	u304_21
 11128     10AB  28AD               	goto	u304_20
 11129     10AC                     u304_21:
 11130     10AC  28B6               	goto	i1l3079
 11131     10AD                     u304_20:
 11132     10AD                     i1l3075:
 11133     10AD  3000               	movlw	0
 11134     10AE  00A3               	movwf	(?i1___fltol+3)^(0+128)
 11135     10AF  3000               	movlw	0
 11136     10B0  00A2               	movwf	(?i1___fltol+2)^(0+128)
 11137     10B1  3000               	movlw	0
 11138     10B2  00A1               	movwf	(?i1___fltol+1)^(0+128)
 11139     10B3  3000               	movlw	0
 11140     10B4  00A0               	movwf	?i1___fltol^(0+128)
 11141     10B5  2913               	goto	i1l924
 11142     10B6                     i1l3079:
 11143     10B6  0820               	movf	i1___fltol@f1^(0+128),w
 11144     10B7  00A4               	movwf	??i1___fltol^(0+128)
 11145     10B8  0821               	movf	(i1___fltol@f1+1)^(0+128),w
 11146     10B9  00A5               	movwf	(??i1___fltol^(0+128)+1)
 11147     10BA  0822               	movf	(i1___fltol@f1+2)^(0+128),w
 11148     10BB  00A6               	movwf	(??i1___fltol^(0+128)+2)
 11149     10BC  0823               	movf	(i1___fltol@f1+3)^(0+128),w
 11150     10BD  00A7               	movwf	(??i1___fltol^(0+128)+3)
 11151     10BE  301F               	movlw	31
 11152     10BF                     u305_25:
 11153     10BF  36A7               	lsrf	(??i1___fltol^(0+128)+3),f
 11154     10C0  0CA6               	rrf	(??i1___fltol^(0+128)+2),f
 11155     10C1  0CA5               	rrf	(??i1___fltol^(0+128)+1),f
 11156     10C2  0CA4               	rrf	??i1___fltol^(0+128),f
 11157     10C3                     u305_20:
 11158     10C3  0B89               	decfsz	9,f
 11159     10C4  28BF               	goto	u305_25
 11160     10C5  0824               	movf	??i1___fltol^(0+128),w
 11161     10C6  00A8               	movwf	i1___fltol@sign1^(0+128)
 11162     10C7                     i1l3081:
 11163     10C7  17A2               	bsf	(i1___fltol@f1^(0+128)+2),7
 11164     10C8                     i1l3083:
 11165     10C8  30FF               	movlw	255
 11166     10C9  05A0               	andwf	i1___fltol@f1^(0+128),f
 11167     10CA  30FF               	movlw	255
 11168     10CB  05A1               	andwf	(i1___fltol@f1+1)^(0+128),f
 11169     10CC  30FF               	movlw	255
 11170     10CD  05A2               	andwf	(i1___fltol@f1+2)^(0+128),f
 11171     10CE  3000               	movlw	0
 11172     10CF  05A3               	andwf	(i1___fltol@f1+3)^(0+128),f
 11173     10D0                     i1l3085:
 11174     10D0  3096               	movlw	150
 11175     10D1  02A9               	subwf	i1___fltol@exp1^(0+128),f
 11176     10D2                     i1l3087:
 11177     10D2  1FA9               	btfss	i1___fltol@exp1^(0+128),7
 11178     10D3  28D5               	goto	u306_21
 11179     10D4  28D6               	goto	u306_20
 11180     10D5                     u306_21:
 11181     10D5  28EE               	goto	i1l3097
 11182     10D6                     u306_20:
 11183     10D6                     i1l3089:
 11184     10D6  0829               	movf	i1___fltol@exp1^(0+128),w
 11185     10D7  3A80               	xorlw	128
 11186     10D8  3E97               	addlw	151
 11187     10D9  1803               	skipnc
 11188     10DA  28DC               	goto	u307_21
 11189     10DB  28DD               	goto	u307_20
 11190     10DC                     u307_21:
 11191     10DC  28DE               	goto	i1l3095
 11192     10DD                     u307_20:
 11193     10DD  28AD               	goto	i1l3075
 11194     10DE                     i1l3095:
 11195     10DE  3001               	movlw	1
 11196     10DF                     u308_25:
 11197     10DF  36A3               	lsrf	(i1___fltol@f1+3)^(0+128),f
 11198     10E0  0CA2               	rrf	(i1___fltol@f1+2)^(0+128),f
 11199     10E1  0CA1               	rrf	(i1___fltol@f1+1)^(0+128),f
 11200     10E2  0CA0               	rrf	i1___fltol@f1^(0+128),f
 11201     10E3  0B89               	decfsz	9,f
 11202     10E4  28DF               	goto	u308_25
 11203     10E5  3001               	movlw	1
 11204     10E6  00A4               	movwf	??i1___fltol^(0+128)
 11205     10E7  0824               	movf	??i1___fltol^(0+128),w
 11206     10E8  07A9               	addwf	i1___fltol@exp1^(0+128),f
 11207     10E9  1D03               	btfss	3,2
 11208     10EA  28EC               	goto	u309_21
 11209     10EB  28ED               	goto	u309_20
 11210     10EC                     u309_21:
 11211     10EC  28DE               	goto	i1l3095
 11212     10ED                     u309_20:
 11213     10ED  2903               	goto	i1l3105
 11214     10EE                     i1l3097:
 11215     10EE  3020               	movlw	32
 11216     10EF  0229               	subwf	i1___fltol@exp1^(0+128),w
 11217     10F0  1C03               	skipc
 11218     10F1  28F3               	goto	u310_21
 11219     10F2  28F4               	goto	u310_20
 11220     10F3                     u310_21:
 11221     10F3  28FE               	goto	i1l931
 11222     10F4                     u310_20:
 11223     10F4  28AD               	goto	i1l3075
 11224     10F5                     i1l3103:
 11225     10F5  3001               	movlw	1
 11226     10F6                     u311_25:
 11227     10F6  35A0               	lslf	i1___fltol@f1^(0+128),f
 11228     10F7  0DA1               	rlf	(i1___fltol@f1+1)^(0+128),f
 11229     10F8  0DA2               	rlf	(i1___fltol@f1+2)^(0+128),f
 11230     10F9  0DA3               	rlf	(i1___fltol@f1+3)^(0+128),f
 11231     10FA  0B89               	decfsz	9,f
 11232     10FB  28F6               	goto	u311_25
 11233     10FC  3001               	movlw	1
 11234     10FD  02A9               	subwf	i1___fltol@exp1^(0+128),f
 11235     10FE                     i1l931:
 11236     10FE  0829               	movf	i1___fltol@exp1^(0+128),w
 11237     10FF  1D03               	btfss	3,2
 11238     1100  2902               	goto	u312_21
 11239     1101  2903               	goto	u312_20
 11240     1102                     u312_21:
 11241     1102  28F5               	goto	i1l3103
 11242     1103                     u312_20:
 11243     1103                     i1l3105:
 11244     1103  0828               	movf	i1___fltol@sign1^(0+128),w
 11245     1104  1903               	btfsc	3,2
 11246     1105  2907               	goto	u313_21
 11247     1106  2908               	goto	u313_20
 11248     1107                     u313_21:
 11249     1107  2913               	goto	i1l934
 11250     1108                     u313_20:
 11251     1108                     i1l3107:
 11252     1108  09A0               	comf	i1___fltol@f1^(0+128),f
 11253     1109  09A1               	comf	(i1___fltol@f1+1)^(0+128),f
 11254     110A  09A2               	comf	(i1___fltol@f1+2)^(0+128),f
 11255     110B  09A3               	comf	(i1___fltol@f1+3)^(0+128),f
 11256     110C  0AA0               	incf	i1___fltol@f1^(0+128),f
 11257     110D  1903               	skipnz
 11258     110E  0AA1               	incf	(i1___fltol@f1+1)^(0+128),f
 11259     110F  1903               	skipnz
 11260     1110  0AA2               	incf	(i1___fltol@f1+2)^(0+128),f
 11261     1111  1903               	skipnz
 11262     1112  0AA3               	incf	(i1___fltol@f1+3)^(0+128),f
 11263     1113                     i1l934:
 11264     1113                     i1l924:
 11265     1113  0008               	return
 11266     1114                     __end_ofi1___fltol:
 11267                           
 11268                           	psect	text32
 11269     1213                     __ptext32:	
 11270 ;; *************** function _Cell_ON *****************
 11271 ;; Defined at:
 11272 ;;		line 457 in file "charger_discharger.c"
 11273 ;; Parameters:    Size  Location     Type
 11274 ;;		None
 11275 ;; Auto vars:     Size  Location     Type
 11276 ;;		None
 11277 ;; Return value:  Size  Location     Type
 11278 ;;                  1    wreg      void 
 11279 ;; Registers used:
 11280 ;;		wreg, status,2, status,0
 11281 ;; Tracked objects:
 11282 ;;		On entry : 0/0
 11283 ;;		On exit  : 0/0
 11284 ;;		Unchanged: 0/0
 11285 ;; Data sizes:     COMMON   BANK0   BANK1   BANK2   BANK3   BANK4   BANK5   BANK6   BANK7   BANK8   BANK9  BANK10  BANK1
      +1  BANK12
 11286 ;;      Params:         0       0       0       0       0       0       0       0       0       0       0       0       
      +0       0
 11287 ;;      Locals:         0       0       0       0       0       0       0       0       0       0       0       0       
      +0       0
 11288 ;;      Temps:          1       0       0       0       0       0       0       0       0       0       0       0       
      +0       0
 11289 ;;      Totals:         1       0       0       0       0       0       0       0       0       0       0       0       
      +0       0
 11290 ;;Total ram usage:        1 bytes
 11291 ;; Hardware stack levels used: 1
 11292 ;; This function calls:
 11293 ;;		Nothing
 11294 ;; This function is called by:
 11295 ;;		_converter_settings
 11296 ;; This function uses a non-reentrant model
 11297 ;;
 11298                           
 11299     1213                     _Cell_ON:	
 11300                           ;psect for function _Cell_ON
 11301                           
 11302     1213                     i1l3317:	
 11303                           ;incstack = 0
 11304                           ; Regs used in _Cell_ON: [wreg+status,2+status,0]
 11305                           
 11306                           
 11307                           ;charger_discharger.c: 459:     if (cell_count == 1)
 11308     1213  0021               	movlb	1	; select bank1
 11309     1214  036D               	decf	_cell_count^(0+128),w
 11310     1215  1D03               	btfss	3,2
 11311     1216  2A18               	goto	u360_21
 11312     1217  2A19               	goto	u360_20
 11313     1218                     u360_21:
 11314     1218  2A42               	goto	i1l3329
 11315     1219                     u360_20:
 11316     1219                     i1l3319:
 11317                           
 11318                           ;charger_discharger.c: 460:     {;charger_discharger.c: 461:         { RB2 = 1; };
 11319     1219  0020               	movlb	0	; select bank0
 11320     121A  150D               	bsf	13,2	;volatile
 11321     121B                     i1l3321:
 11322                           
 11323                           ;charger_discharger.c: 462:         _delay((unsigned long)((10)*(32000000/4000.0)));
 11324     121B  3068               	movlw	104
 11325     121C  00F0               	movwf	??_Cell_ON
 11326     121D  30E4               	movlw	228
 11327     121E                     u657_27:
 11328     121E  0B89               	decfsz	9,f
 11329     121F  2A1E               	goto	u657_27
 11330     1220  0BF0               	decfsz	??_Cell_ON,f
 11331     1221  2A1E               	goto	u657_27
 11332     1222  3200               	nop2
 11333     1223                     i1l3323:
 11334                           
 11335                           ;charger_discharger.c: 463:         { RB3 = 0; };
 11336     1223  0020               	movlb	0	; select bank0
 11337     1224  118D               	bcf	13,3	;volatile
 11338                           
 11339                           ;charger_discharger.c: 464:         _delay((unsigned long)((10)*(32000000/4000.0)));
 11340     1225  3068               	movlw	104
 11341     1226  00F0               	movwf	??_Cell_ON
 11342     1227  30E4               	movlw	228
 11343     1228                     u658_27:
 11344     1228  0B89               	decfsz	9,f
 11345     1229  2A28               	goto	u658_27
 11346     122A  0BF0               	decfsz	??_Cell_ON,f
 11347     122B  2A28               	goto	u658_27
 11348     122C  3200               	nop2
 11349     122D                     i1l3325:
 11350                           
 11351                           ;charger_discharger.c: 465:         { RB4 = 0; };
 11352     122D  0020               	movlb	0	; select bank0
 11353     122E  120D               	bcf	13,4	;volatile
 11354                           
 11355                           ;charger_discharger.c: 466:         _delay((unsigned long)((10)*(32000000/4000.0)));
 11356     122F  3068               	movlw	104
 11357     1230  00F0               	movwf	??_Cell_ON
 11358     1231  30E4               	movlw	228
 11359     1232                     u659_27:
 11360     1232  0B89               	decfsz	9,f
 11361     1233  2A32               	goto	u659_27
 11362     1234  0BF0               	decfsz	??_Cell_ON,f
 11363     1235  2A32               	goto	u659_27
 11364     1236  3200               	nop2
 11365     1237                     i1l3327:
 11366                           
 11367                           ;charger_discharger.c: 467:         { RB5 = 0; };
 11368     1237  0020               	movlb	0	; select bank0
 11369     1238  128D               	bcf	13,5	;volatile
 11370                           
 11371                           ;charger_discharger.c: 468:         _delay((unsigned long)((10)*(32000000/4000.0)));
 11372     1239  3068               	movlw	104
 11373     123A  00F0               	movwf	??_Cell_ON
 11374     123B  30E4               	movlw	228
 11375     123C                     u660_27:
 11376     123C  0B89               	decfsz	9,f
 11377     123D  2A3C               	goto	u660_27
 11378     123E  0BF0               	decfsz	??_Cell_ON,f
 11379     123F  2A3C               	goto	u660_27
 11380     1240  3200               	nop2
 11381                           
 11382                           ;charger_discharger.c: 469:     }else if (cell_count == 2)
 11383     1241  2AB3               	goto	i1l441
 11384     1242                     i1l3329:
 11385     1242  3002               	movlw	2
 11386     1243  066D               	xorwf	_cell_count^(0+128),w
 11387     1244  1D03               	btfss	3,2
 11388     1245  2A47               	goto	u361_21
 11389     1246  2A48               	goto	u361_20
 11390     1247                     u361_21:
 11391     1247  2A5D               	goto	i1l3341
 11392     1248                     u361_20:
 11393     1248                     i1l3331:
 11394                           
 11395                           ;charger_discharger.c: 470:     {;charger_discharger.c: 471:         { RB2 = 0; };
 11396     1248  0020               	movlb	0	; select bank0
 11397     1249  110D               	bcf	13,2	;volatile
 11398     124A                     i1l3333:
 11399                           
 11400                           ;charger_discharger.c: 472:         _delay((unsigned long)((10)*(32000000/4000.0)));
 11401     124A  3068               	movlw	104
 11402     124B  00F0               	movwf	??_Cell_ON
 11403     124C  30E4               	movlw	228
 11404     124D                     u661_27:
 11405     124D  0B89               	decfsz	9,f
 11406     124E  2A4D               	goto	u661_27
 11407     124F  0BF0               	decfsz	??_Cell_ON,f
 11408     1250  2A4D               	goto	u661_27
 11409     1251  3200               	nop2
 11410     1252                     i1l3335:
 11411                           
 11412                           ;charger_discharger.c: 473:         { RB3 = 1; };
 11413     1252  0020               	movlb	0	; select bank0
 11414     1253  158D               	bsf	13,3	;volatile
 11415                           
 11416                           ;charger_discharger.c: 474:         _delay((unsigned long)((10)*(32000000/4000.0)));
 11417     1254  3068               	movlw	104
 11418     1255  00F0               	movwf	??_Cell_ON
 11419     1256  30E4               	movlw	228
 11420     1257                     u662_27:
 11421     1257  0B89               	decfsz	9,f
 11422     1258  2A57               	goto	u662_27
 11423     1259  0BF0               	decfsz	??_Cell_ON,f
 11424     125A  2A57               	goto	u662_27
 11425     125B  3200               	nop2
 11426     125C  2A2D               	goto	i1l3325
 11427     125D                     i1l3341:
 11428     125D  3003               	movlw	3
 11429     125E  066D               	xorwf	_cell_count^(0+128),w
 11430     125F  1D03               	btfss	3,2
 11431     1260  2A62               	goto	u362_21
 11432     1261  2A63               	goto	u362_20
 11433     1262                     u362_21:
 11434     1262  2A84               	goto	i1l3353
 11435     1263                     u362_20:
 11436     1263                     i1l3343:
 11437                           
 11438                           ;charger_discharger.c: 480:     {;charger_discharger.c: 481:         { RB2 = 0; };
 11439     1263  0020               	movlb	0	; select bank0
 11440     1264  110D               	bcf	13,2	;volatile
 11441     1265                     i1l3345:
 11442                           
 11443                           ;charger_discharger.c: 482:         _delay((unsigned long)((10)*(32000000/4000.0)));
 11444     1265  3068               	movlw	104
 11445     1266  00F0               	movwf	??_Cell_ON
 11446     1267  30E4               	movlw	228
 11447     1268                     u663_27:
 11448     1268  0B89               	decfsz	9,f
 11449     1269  2A68               	goto	u663_27
 11450     126A  0BF0               	decfsz	??_Cell_ON,f
 11451     126B  2A68               	goto	u663_27
 11452     126C  3200               	nop2
 11453     126D                     i1l3347:
 11454                           
 11455                           ;charger_discharger.c: 483:         { RB3 = 0; };
 11456     126D  0020               	movlb	0	; select bank0
 11457     126E  118D               	bcf	13,3	;volatile
 11458                           
 11459                           ;charger_discharger.c: 484:         _delay((unsigned long)((10)*(32000000/4000.0)));
 11460     126F  3068               	movlw	104
 11461     1270  00F0               	movwf	??_Cell_ON
 11462     1271  30E4               	movlw	228
 11463     1272                     u664_27:
 11464     1272  0B89               	decfsz	9,f
 11465     1273  2A72               	goto	u664_27
 11466     1274  0BF0               	decfsz	??_Cell_ON,f
 11467     1275  2A72               	goto	u664_27
 11468     1276  3200               	nop2
 11469     1277                     i1l3349:
 11470                           
 11471                           ;charger_discharger.c: 485:         { RB4 = 1; };
 11472     1277  0020               	movlb	0	; select bank0
 11473     1278  160D               	bsf	13,4	;volatile
 11474                           
 11475                           ;charger_discharger.c: 486:         _delay((unsigned long)((10)*(32000000/4000.0)));
 11476     1279  3068               	movlw	104
 11477     127A  00F0               	movwf	??_Cell_ON
 11478     127B  30E4               	movlw	228
 11479     127C                     u665_27:
 11480     127C  0B89               	decfsz	9,f
 11481     127D  2A7C               	goto	u665_27
 11482     127E  0BF0               	decfsz	??_Cell_ON,f
 11483     127F  2A7C               	goto	u665_27
 11484     1280  3200               	nop2
 11485     1281                     i1l3351:
 11486                           
 11487                           ;charger_discharger.c: 487:         { RB5 = 0; };
 11488     1281  0020               	movlb	0	; select bank0
 11489     1282  128D               	bcf	13,5	;volatile
 11490                           
 11491                           ;charger_discharger.c: 488:     }else if (cell_count == 4)
 11492     1283  2AB3               	goto	i1l441
 11493     1284                     i1l3353:
 11494     1284  3004               	movlw	4
 11495     1285  066D               	xorwf	_cell_count^(0+128),w
 11496     1286  1D03               	btfss	3,2
 11497     1287  2A89               	goto	u363_21
 11498     1288  2A8A               	goto	u363_20
 11499     1289                     u363_21:
 11500     1289  2AB3               	goto	i1l437
 11501     128A                     u363_20:
 11502     128A                     i1l3355:
 11503                           
 11504                           ;charger_discharger.c: 489:     {;charger_discharger.c: 490:         { RB2 = 0; };
 11505     128A  0020               	movlb	0	; select bank0
 11506     128B  110D               	bcf	13,2	;volatile
 11507     128C                     i1l3357:
 11508                           
 11509                           ;charger_discharger.c: 491:         _delay((unsigned long)((10)*(32000000/4000.0)));
 11510     128C  3068               	movlw	104
 11511     128D  00F0               	movwf	??_Cell_ON
 11512     128E  30E4               	movlw	228
 11513     128F                     u666_27:
 11514     128F  0B89               	decfsz	9,f
 11515     1290  2A8F               	goto	u666_27
 11516     1291  0BF0               	decfsz	??_Cell_ON,f
 11517     1292  2A8F               	goto	u666_27
 11518     1293  3200               	nop2
 11519     1294                     i1l3359:
 11520                           
 11521                           ;charger_discharger.c: 492:         { RB3 = 0; };
 11522     1294  0020               	movlb	0	; select bank0
 11523     1295  118D               	bcf	13,3	;volatile
 11524                           
 11525                           ;charger_discharger.c: 493:         _delay((unsigned long)((10)*(32000000/4000.0)));
 11526     1296  3068               	movlw	104
 11527     1297  00F0               	movwf	??_Cell_ON
 11528     1298  30E4               	movlw	228
 11529     1299                     u667_27:
 11530     1299  0B89               	decfsz	9,f
 11531     129A  2A99               	goto	u667_27
 11532     129B  0BF0               	decfsz	??_Cell_ON,f
 11533     129C  2A99               	goto	u667_27
 11534     129D  3200               	nop2
 11535     129E                     i1l3361:
 11536                           
 11537                           ;charger_discharger.c: 494:         { RB4 = 0; };
 11538     129E  0020               	movlb	0	; select bank0
 11539     129F  120D               	bcf	13,4	;volatile
 11540                           
 11541                           ;charger_discharger.c: 495:         _delay((unsigned long)((10)*(32000000/4000.0)));
 11542     12A0  3068               	movlw	104
 11543     12A1  00F0               	movwf	??_Cell_ON
 11544     12A2  30E4               	movlw	228
 11545     12A3                     u668_27:
 11546     12A3  0B89               	decfsz	9,f
 11547     12A4  2AA3               	goto	u668_27
 11548     12A5  0BF0               	decfsz	??_Cell_ON,f
 11549     12A6  2AA3               	goto	u668_27
 11550     12A7  3200               	nop2
 11551     12A8                     i1l3363:
 11552                           
 11553                           ;charger_discharger.c: 496:         { RB5 = 1; };
 11554     12A8  0020               	movlb	0	; select bank0
 11555     12A9  168D               	bsf	13,5	;volatile
 11556                           
 11557                           ;charger_discharger.c: 497:         _delay((unsigned long)((10)*(32000000/4000.0)));
 11558     12AA  3068               	movlw	104
 11559     12AB  00F0               	movwf	??_Cell_ON
 11560     12AC  30E4               	movlw	228
 11561     12AD                     u669_27:
 11562     12AD  0B89               	decfsz	9,f
 11563     12AE  2AAD               	goto	u669_27
 11564     12AF  0BF0               	decfsz	??_Cell_ON,f
 11565     12B0  2AAD               	goto	u669_27
 11566     12B1  3200               	nop2
 11567     12B2  2AB3               	goto	i1l441
 11568     12B3                     i1l437:
 11569     12B3                     i1l441:
 11570     12B3  0008               	return
 11571     12B4                     __end_of_Cell_ON:
 11572                           
 11573                           	psect	text33
 11574     1DAF                     __ptext33:	
 11575 ;; *************** function _UART_send_some_char *****************
 11576 ;; Defined at:
 11577 ;;		line 429 in file "charger_discharger.c"
 11578 ;; Parameters:    Size  Location     Type
 11579 ;;  length          1    wreg     unsigned char 
 11580 ;;  data            2    5[COMMON] PTR unsigned char 
 11581 ;;		 -> RAM(4096), 
 11582 ;; Auto vars:     Size  Location     Type
 11583 ;;  length          1    7[COMMON] unsigned char 
 11584 ;; Return value:  Size  Location     Type
 11585 ;;                  1    wreg      void 
 11586 ;; Registers used:
 11587 ;;		wreg, fsr1l, fsr1h, status,2, status,0, pclath, cstack
 11588 ;; Tracked objects:
 11589 ;;		On entry : 0/0
 11590 ;;		On exit  : 0/0
 11591 ;;		Unchanged: 0/0
 11592 ;; Data sizes:     COMMON   BANK0   BANK1   BANK2   BANK3   BANK4   BANK5   BANK6   BANK7   BANK8   BANK9  BANK10  BANK1
      +1  BANK12
 11593 ;;      Params:         2       0       0       0       0       0       0       0       0       0       0       0       
      +0       0
 11594 ;;      Locals:         1       0       0       0       0       0       0       0       0       0       0       0       
      +0       0
 11595 ;;      Temps:          0       0       0       0       0       0       0       0       0       0       0       0       
      +0       0
 11596 ;;      Totals:         3       0       0       0       0       0       0       0       0       0       0       0       
      +0       0
 11597 ;;Total ram usage:        3 bytes
 11598 ;; Hardware stack levels used: 1
 11599 ;; Hardware stack levels required when called: 1
 11600 ;; This function calls:
 11601 ;;		_UART_send_byte
 11602 ;; This function is called by:
 11603 ;;		_command_interpreter
 11604 ;; This function uses a non-reentrant model
 11605 ;;
 11606                           
 11607     1DAF                     _UART_send_some_char:	
 11608                           ;psect for function _UART_send_some_char
 11609                           
 11610                           
 11611                           ;incstack = 0
 11612                           ; Regs used in _UART_send_some_char: [wreg+fsr1l+fsr1h+status,2+status,0+pclath+cstack]
 11613                           ;UART_send_some_char@length stored from wreg
 11614     1DAF  00F7               	movwf	UART_send_some_char@length
 11615     1DB0                     i1l3657:
 11616                           
 11617                           ;charger_discharger.c: 429: void UART_send_some_char(uint8_t length, char* data);charger
      +                          _discharger.c: 430: {;charger_discharger.c: 431:     while(length--)
 11618     1DB0  2DBD               	goto	i1l3663
 11619     1DB1                     i1l3659:
 11620                           
 11621                           ;charger_discharger.c: 432:     {;charger_discharger.c: 433:         UART_send_byte((uin
      +                          t8_t)*data++);
 11622     1DB1  0875               	movf	UART_send_some_char@data,w
 11623     1DB2  0086               	movwf	6
 11624     1DB3  0876               	movf	UART_send_some_char@data+1,w
 11625     1DB4  0087               	movwf	7
 11626     1DB5  0801               	movf	1,w
 11627     1DB6  319D  2590  319D   	fcall	_UART_send_byte
 11628     1DB9                     i1l3661:
 11629     1DB9  3001               	movlw	1
 11630     1DBA  07F5               	addwf	UART_send_some_char@data,f
 11631     1DBB  3000               	movlw	0
 11632     1DBC  3DF6               	addwfc	UART_send_some_char@data+1,f
 11633     1DBD                     i1l3663:
 11634                           
 11635                           ;charger_discharger.c: 431:     while(length--)
 11636     1DBD  3001               	movlw	1
 11637     1DBE  02F7               	subwf	UART_send_some_char@length,f
 11638     1DBF  0A77               	incf	UART_send_some_char@length,w
 11639     1DC0  1D03               	btfss	3,2
 11640     1DC1  2DC3               	goto	u416_21
 11641     1DC2  2DC4               	goto	u416_20
 11642     1DC3                     u416_21:
 11643     1DC3  2DB1               	goto	i1l3659
 11644     1DC4                     u416_20:
 11645     1DC4                     i1l419:
 11646     1DC4  0008               	return
 11647     1DC5                     __end_of_UART_send_some_char:
 11648                           
 11649                           	psect	text34
 11650     1D90                     __ptext34:	
 11651 ;; *************** function _UART_send_byte *****************
 11652 ;; Defined at:
 11653 ;;		line 413 in file "charger_discharger.c"
 11654 ;; Parameters:    Size  Location     Type
 11655 ;;  byte            1    wreg     unsigned char 
 11656 ;; Auto vars:     Size  Location     Type
 11657 ;;  byte            1    0[COMMON] unsigned char 
 11658 ;; Return value:  Size  Location     Type
 11659 ;;                  1    wreg      void 
 11660 ;; Registers used:
 11661 ;;		wreg
 11662 ;; Tracked objects:
 11663 ;;		On entry : 0/0
 11664 ;;		On exit  : 0/0
 11665 ;;		Unchanged: 0/0
 11666 ;; Data sizes:     COMMON   BANK0   BANK1   BANK2   BANK3   BANK4   BANK5   BANK6   BANK7   BANK8   BANK9  BANK10  BANK1
      +1  BANK12
 11667 ;;      Params:         0       0       0       0       0       0       0       0       0       0       0       0       
      +0       0
 11668 ;;      Locals:         1       0       0       0       0       0       0       0       0       0       0       0       
      +0       0
 11669 ;;      Temps:          0       0       0       0       0       0       0       0       0       0       0       0       
      +0       0
 11670 ;;      Totals:         1       0       0       0       0       0       0       0       0       0       0       0       
      +0       0
 11671 ;;Total ram usage:        1 bytes
 11672 ;; Hardware stack levels used: 1
 11673 ;; This function calls:
 11674 ;;		Nothing
 11675 ;; This function is called by:
 11676 ;;		_UART_send_some_char
 11677 ;;		_ISR
 11678 ;;		_UART_send_header
 11679 ;;		_UART_send_some_bytes
 11680 ;; This function uses a non-reentrant model
 11681 ;;
 11682                           
 11683     1D90                     _UART_send_byte:	
 11684                           ;psect for function _UART_send_byte
 11685                           
 11686                           
 11687                           ;incstack = 0
 11688                           ; Regs used in _UART_send_byte: [wreg]
 11689                           ;UART_send_byte@byte stored from wreg
 11690     1D90  00F0               	movwf	UART_send_byte@byte
 11691     1D91                     i1l3365:
 11692     1D91                     i1l404:	
 11693                           ;charger_discharger.c: 416:     {;charger_discharger.c: 417:     }
 11694                           
 11695                           
 11696                           ;charger_discharger.c: 415:     while(0 == TXIF)
 11697     1D91  0020               	movlb	0	; select bank0
 11698     1D92  1E11               	btfss	17,4	;volatile
 11699     1D93  2D95               	goto	u364_21
 11700     1D94  2D96               	goto	u364_20
 11701     1D95                     u364_21:
 11702     1D95  2D91               	goto	i1l404
 11703     1D96                     u364_20:
 11704     1D96                     i1l3367:
 11705                           
 11706                           ;charger_discharger.c: 418:     TX1REG = byte;
 11707     1D96  0870               	movf	UART_send_byte@byte,w
 11708     1D97  0023               	movlb	3	; select bank3
 11709     1D98  009A               	movwf	26	;volatile
 11710     1D99                     i1l407:
 11711     1D99  0008               	return
 11712     1D9A                     __end_of_UART_send_byte:
 11713                           
 11714                           	psect	text35
 11715     1F68                     __ptext35:	
 11716 ;; *************** function _UART_read_until *****************
 11717 ;; Defined at:
 11718 ;;		line 394 in file "charger_discharger.c"
 11719 ;; Parameters:    Size  Location     Type
 11720 ;;  data            1    wreg     PTR unsigned char 
 11721 ;;		 -> command_interpreter@data(20), 
 11722 ;;  terminator      1    0[COMMON] unsigned char 
 11723 ;; Auto vars:     Size  Location     Type
 11724 ;;  data            1    3[COMMON] PTR unsigned char 
 11725 ;;		 -> command_interpreter@data(20), 
 11726 ;;  index           2    4[COMMON] int 
 11727 ;;  received_byt    1    2[COMMON] unsigned char 
 11728 ;; Return value:  Size  Location     Type
 11729 ;;                  1    wreg      void 
 11730 ;; Registers used:
 11731 ;;		wreg, fsr1l, fsr1h, status,2, status,0, pclath, cstack
 11732 ;; Tracked objects:
 11733 ;;		On entry : 0/0
 11734 ;;		On exit  : 0/0
 11735 ;;		Unchanged: 0/0
 11736 ;; Data sizes:     COMMON   BANK0   BANK1   BANK2   BANK3   BANK4   BANK5   BANK6   BANK7   BANK8   BANK9  BANK10  BANK1
      +1  BANK12
 11737 ;;      Params:         1       0       0       0       0       0       0       0       0       0       0       0       
      +0       0
 11738 ;;      Locals:         4       0       0       0       0       0       0       0       0       0       0       0       
      +0       0
 11739 ;;      Temps:          1       0       0       0       0       0       0       0       0       0       0       0       
      +0       0
 11740 ;;      Totals:         6       0       0       0       0       0       0       0       0       0       0       0       
      +0       0
 11741 ;;Total ram usage:        6 bytes
 11742 ;; Hardware stack levels used: 1
 11743 ;; Hardware stack levels required when called: 1
 11744 ;; This function calls:
 11745 ;;		_UART_get_byte
 11746 ;; This function is called by:
 11747 ;;		_command_interpreter
 11748 ;; This function uses a non-reentrant model
 11749 ;;
 11750                           
 11751     1F68                     _UART_read_until:	
 11752                           ;psect for function _UART_read_until
 11753                           
 11754                           
 11755                           ;incstack = 0
 11756                           ; Regs used in _UART_read_until: [wreg+fsr1l+fsr1h+status,2+status,0+pclath+cstack]
 11757                           ;UART_read_until@data stored from wreg
 11758     1F68  00F3               	movwf	UART_read_until@data
 11759     1F69                     i1l3619:
 11760                           
 11761                           ;charger_discharger.c: 394: void UART_read_until(char *data, char terminator);charger_di
      +                          scharger.c: 395: {;charger_discharger.c: 396:     int index = 0;
 11762     1F69  01F4               	clrf	UART_read_until@index
 11763     1F6A  01F5               	clrf	UART_read_until@index+1
 11764                           
 11765                           ;charger_discharger.c: 397:     char received_byte;;charger_discharger.c: 399:     while
      +                           (index < 20 - 1) {
 11766     1F6B  2F83               	goto	i1l3631
 11767     1F6C                     i1l3621:
 11768                           
 11769                           ;charger_discharger.c: 400:         received_byte = UART_get_byte();
 11770     1F6C  3190  2002  319F   	fcall	_UART_get_byte
 11771     1F6F  00F2               	movwf	UART_read_until@received_byte
 11772     1F70                     i1l3623:
 11773                           
 11774                           ;charger_discharger.c: 403:         if (received_byte == terminator) {
 11775     1F70  0872               	movf	UART_read_until@received_byte,w
 11776     1F71  0670               	xorwf	UART_read_until@terminator,w
 11777     1F72  1D03               	skipz
 11778     1F73  2F75               	goto	u411_21
 11779     1F74  2F76               	goto	u411_20
 11780     1F75                     u411_21:
 11781     1F75  2F77               	goto	i1l3627
 11782     1F76                     u411_20:
 11783     1F76  2F90               	goto	i1l3633
 11784     1F77                     i1l3627:
 11785                           
 11786                           ;charger_discharger.c: 407:         data[index++] = received_byte;
 11787     1F77  0874               	movf	UART_read_until@index,w
 11788     1F78  0773               	addwf	UART_read_until@data,w
 11789     1F79  00F1               	movwf	??_UART_read_until
 11790     1F7A  0871               	movf	??_UART_read_until,w
 11791     1F7B  0086               	movwf	6
 11792     1F7C  0187               	clrf	7
 11793     1F7D  0872               	movf	UART_read_until@received_byte,w
 11794     1F7E  0081               	movwf	1
 11795     1F7F                     i1l3629:
 11796     1F7F  3001               	movlw	1
 11797     1F80  07F4               	addwf	UART_read_until@index,f
 11798     1F81  3000               	movlw	0
 11799     1F82  3DF5               	addwfc	UART_read_until@index+1,f
 11800     1F83                     i1l3631:
 11801                           
 11802                           ;charger_discharger.c: 399:     while (index < 20 - 1) {
 11803     1F83  0875               	movf	UART_read_until@index+1,w
 11804     1F84  3A80               	xorlw	128
 11805     1F85  00F1               	movwf	??_UART_read_until
 11806     1F86  3080               	movlw	128
 11807     1F87  0271               	subwf	??_UART_read_until,w
 11808     1F88  1D03               	skipz
 11809     1F89  2F8C               	goto	u412_25
 11810     1F8A  3013               	movlw	19
 11811     1F8B  0274               	subwf	UART_read_until@index,w
 11812     1F8C                     u412_25:
 11813     1F8C  1C03               	skipc
 11814     1F8D  2F8F               	goto	u412_21
 11815     1F8E  2F90               	goto	u412_20
 11816     1F8F                     u412_21:
 11817     1F8F  2F6C               	goto	i1l3621
 11818     1F90                     u412_20:
 11819     1F90                     i1l3633:
 11820                           
 11821                           ;charger_discharger.c: 410:     data[index] = '\0';
 11822     1F90  0874               	movf	UART_read_until@index,w
 11823     1F91  0773               	addwf	UART_read_until@data,w
 11824     1F92  00F1               	movwf	??_UART_read_until
 11825     1F93  0871               	movf	??_UART_read_until,w
 11826     1F94  0086               	movwf	6
 11827     1F95  0187               	clrf	7
 11828     1F96  0181               	clrf	1
 11829     1F97                     i1l401:
 11830     1F97  0008               	return
 11831     1F98                     __end_of_UART_read_until:
 11832                           
 11833                           	psect	text36
 11834     1002                     __ptext36:	
 11835 ;; *************** function _UART_get_byte *****************
 11836 ;; Defined at:
 11837 ;;		line 369 in file "charger_discharger.c"
 11838 ;; Parameters:    Size  Location     Type
 11839 ;;		None
 11840 ;; Auto vars:     Size  Location     Type
 11841 ;;		None
 11842 ;; Return value:  Size  Location     Type
 11843 ;;                  1    wreg      unsigned char 
 11844 ;; Registers used:
 11845 ;;		wreg
 11846 ;; Tracked objects:
 11847 ;;		On entry : 0/0
 11848 ;;		On exit  : 0/0
 11849 ;;		Unchanged: 0/0
 11850 ;; Data sizes:     COMMON   BANK0   BANK1   BANK2   BANK3   BANK4   BANK5   BANK6   BANK7   BANK8   BANK9  BANK10  BANK1
      +1  BANK12
 11851 ;;      Params:         0       0       0       0       0       0       0       0       0       0       0       0       
      +0       0
 11852 ;;      Locals:         0       0       0       0       0       0       0       0       0       0       0       0       
      +0       0
 11853 ;;      Temps:          0       0       0       0       0       0       0       0       0       0       0       0       
      +0       0
 11854 ;;      Totals:         0       0       0       0       0       0       0       0       0       0       0       0       
      +0       0
 11855 ;;Total ram usage:        0 bytes
 11856 ;; Hardware stack levels used: 1
 11857 ;; This function calls:
 11858 ;;		Nothing
 11859 ;; This function is called by:
 11860 ;;		_UART_read_until
 11861 ;;		_UART_get_some_bytes
 11862 ;; This function uses a non-reentrant model
 11863 ;;
 11864                           
 11865     1002                     _UART_get_byte:	
 11866                           ;psect for function _UART_get_byte
 11867                           
 11868     1002                     i1l3369:	
 11869                           ;incstack = 0
 11870                           ; Regs used in _UART_get_byte: [wreg]
 11871                           
 11872                           
 11873                           ;charger_discharger.c: 371:     if(OERR)
 11874     1002  0023               	movlb	3	; select bank3
 11875     1003  1C9D               	btfss	29,1	;volatile
 11876     1004  2806               	goto	u365_21
 11877     1005  2807               	goto	u365_20
 11878     1006                     u365_21:
 11879     1006  2809               	goto	i1l384
 11880     1007                     u365_20:
 11881     1007                     i1l3371:
 11882                           
 11883                           ;charger_discharger.c: 372:     {;charger_discharger.c: 373:         CREN = 0;
 11884     1007  121D               	bcf	29,4	;volatile
 11885                           
 11886                           ;charger_discharger.c: 374:         CREN = 1;
 11887     1008  161D               	bsf	29,4	;volatile
 11888     1009                     i1l384:
 11889     1009  0020               	movlb	0	; select bank0
 11890     100A  1E91               	btfss	17,5	;volatile
 11891     100B  280D               	goto	u366_21
 11892     100C  280E               	goto	u366_20
 11893     100D                     u366_21:
 11894     100D  2809               	goto	i1l384
 11895     100E                     u366_20:
 11896     100E                     i1l3373:
 11897                           
 11898                           ;charger_discharger.c: 377:     return RC1REG;
 11899     100E  0023               	movlb	3	; select bank3
 11900     100F  0819               	movf	25,w	;volatile
 11901     1010                     i1l387:
 11902     1010  0008               	return
 11903     1011                     __end_of_UART_get_byte:
 11904                           
 11905                           	psect	text37
 11906     1190                     __ptext37:	
 11907 ;; *************** function _calculate_avg *****************
 11908 ;; Defined at:
 11909 ;;		line 290 in file "charger_discharger.c"
 11910 ;; Parameters:    Size  Location     Type
 11911 ;;		None
 11912 ;; Auto vars:     Size  Location     Type
 11913 ;;		None
 11914 ;; Return value:  Size  Location     Type
 11915 ;;                  1    wreg      void 
 11916 ;; Registers used:
 11917 ;;		wreg, fsr0l, fsr0h, status,2, status,0
 11918 ;; Tracked objects:
 11919 ;;		On entry : 0/0
 11920 ;;		On exit  : 0/0
 11921 ;;		Unchanged: 0/0
 11922 ;; Data sizes:     COMMON   BANK0   BANK1   BANK2   BANK3   BANK4   BANK5   BANK6   BANK7   BANK8   BANK9  BANK10  BANK1
      +1  BANK12
 11923 ;;      Params:         0       0       0       0       0       0       0       0       0       0       0       0       
      +0       0
 11924 ;;      Locals:         0       0       0       0       0       0       0       0       0       0       0       0       
      +0       0
 11925 ;;      Temps:          8       0       0       0       0       0       0       0       0       0       0       0       
      +0       0
 11926 ;;      Totals:         8       0       0       0       0       0       0       0       0       0       0       0       
      +0       0
 11927 ;;Total ram usage:        8 bytes
 11928 ;; Hardware stack levels used: 1
 11929 ;; This function calls:
 11930 ;;		Nothing
 11931 ;; This function is called by:
 11932 ;;		_ISR
 11933 ;; This function uses a non-reentrant model
 11934 ;;
 11935                           
 11936     1190                     _calculate_avg:	
 11937                           ;psect for function _calculate_avg
 11938                           
 11939     1190                     i1l4749:	
 11940                           ;incstack = 0
 11941                           ; Regs used in _calculate_avg: [wreg-fsr0h+status,2+status,0]
 11942                           
 11943                           
 11944                           ;charger_discharger.c: 292:     switch(count)
 11945     1190  29FF               	goto	i1l4757
 11946     1191                     i1l4751:
 11947                           
 11948                           ;charger_discharger.c: 295:             iacum = (uint24_t) i;
 11949     1191  085D               	movf	_i^(0+128),w
 11950     1192  00CF               	movwf	_iacum^(0+128)
 11951     1193  085E               	movf	(_i+1)^(0+128),w
 11952     1194  00D0               	movwf	(_iacum+1)^(0+128)
 11953     1195  01D1               	clrf	(_iacum+2)^(0+128)
 11954                           
 11955                           ;charger_discharger.c: 296:             vacum = (uint24_t) v;
 11956     1196  085F               	movf	_v^(0+128),w
 11957     1197  00D2               	movwf	_vacum^(0+128)
 11958     1198  0860               	movf	(_v+1)^(0+128),w
 11959     1199  00D3               	movwf	(_vacum+1)^(0+128)
 11960     119A  01D4               	clrf	(_vacum+2)^(0+128)
 11961                           
 11962                           ;charger_discharger.c: 297:             break;
 11963     119B  2A12               	goto	i1l362
 11964     119C                     i1l4753:
 11965                           
 11966                           ;charger_discharger.c: 299:             iavg = ((iacum >> 10) + ((iacum >> 9) & 0x01));
 11967     119C  084F               	movf	_iacum^(0+128),w
 11968     119D  00F0               	movwf	??_calculate_avg
 11969     119E  0850               	movf	(_iacum+1)^(0+128),w
 11970     119F  00F1               	movwf	??_calculate_avg+1
 11971     11A0  0851               	movf	(_iacum+2)^(0+128),w
 11972     11A1  00F2               	movwf	??_calculate_avg+2
 11973     11A2  3009               	movlw	9
 11974     11A3                     u589_25:
 11975     11A3  36F2               	lsrf	??_calculate_avg+2,f
 11976     11A4  0CF1               	rrf	??_calculate_avg+1,f
 11977     11A5  0CF0               	rrf	??_calculate_avg,f
 11978     11A6                     u589_20:
 11979     11A6  0B89               	decfsz	9,f
 11980     11A7  29A3               	goto	u589_25
 11981     11A8  3001               	movlw	1
 11982     11A9  0570               	andwf	??_calculate_avg,w
 11983     11AA  00F3               	movwf	??_calculate_avg+3
 11984     11AB  3000               	movlw	0
 11985     11AC  0571               	andwf	??_calculate_avg+1,w
 11986     11AD  00F4               	movwf	??_calculate_avg+4
 11987     11AE  084F               	movf	_iacum^(0+128),w
 11988     11AF  00F5               	movwf	??_calculate_avg+5
 11989     11B0  0850               	movf	(_iacum+1)^(0+128),w
 11990     11B1  00F6               	movwf	??_calculate_avg+6
 11991     11B2  0851               	movf	(_iacum+2)^(0+128),w
 11992     11B3  00F7               	movwf	??_calculate_avg+7
 11993     11B4  300A               	movlw	10
 11994     11B5                     u590_25:
 11995     11B5  36F7               	lsrf	??_calculate_avg+7,f
 11996     11B6  0CF6               	rrf	??_calculate_avg+6,f
 11997     11B7  0CF5               	rrf	??_calculate_avg+5,f
 11998     11B8                     u590_20:
 11999     11B8  0B89               	decfsz	9,f
 12000     11B9  29B5               	goto	u590_25
 12001     11BA  0873               	movf	??_calculate_avg+3,w
 12002     11BB  0775               	addwf	??_calculate_avg+5,w
 12003     11BC  0023               	movlb	3	; select bank3
 12004     11BD  00BC               	movwf	_iavg^(0+384)
 12005     11BE  0874               	movf	??_calculate_avg+4,w
 12006     11BF  3D76               	addwfc	??_calculate_avg+6,w
 12007     11C0  00BD               	movwf	(_iavg+1)^(0+384)
 12008                           
 12009                           ;charger_discharger.c: 300:             vavg = ((vacum >> 10) + ((vacum >> 9) & 0x01));
 12010     11C1  0021               	movlb	1	; select bank1
 12011     11C2  0852               	movf	_vacum^(0+128),w
 12012     11C3  00F0               	movwf	??_calculate_avg
 12013     11C4  0853               	movf	(_vacum+1)^(0+128),w
 12014     11C5  00F1               	movwf	??_calculate_avg+1
 12015     11C6  0854               	movf	(_vacum+2)^(0+128),w
 12016     11C7  00F2               	movwf	??_calculate_avg+2
 12017     11C8  3009               	movlw	9
 12018     11C9                     u591_25:
 12019     11C9  36F2               	lsrf	??_calculate_avg+2,f
 12020     11CA  0CF1               	rrf	??_calculate_avg+1,f
 12021     11CB  0CF0               	rrf	??_calculate_avg,f
 12022     11CC                     u591_20:
 12023     11CC  0B89               	decfsz	9,f
 12024     11CD  29C9               	goto	u591_25
 12025     11CE  3001               	movlw	1
 12026     11CF  0570               	andwf	??_calculate_avg,w
 12027     11D0  00F3               	movwf	??_calculate_avg+3
 12028     11D1  3000               	movlw	0
 12029     11D2  0571               	andwf	??_calculate_avg+1,w
 12030     11D3  00F4               	movwf	??_calculate_avg+4
 12031     11D4  0852               	movf	_vacum^(0+128),w
 12032     11D5  00F5               	movwf	??_calculate_avg+5
 12033     11D6  0853               	movf	(_vacum+1)^(0+128),w
 12034     11D7  00F6               	movwf	??_calculate_avg+6
 12035     11D8  0854               	movf	(_vacum+2)^(0+128),w
 12036     11D9  00F7               	movwf	??_calculate_avg+7
 12037     11DA  300A               	movlw	10
 12038     11DB                     u592_25:
 12039     11DB  36F7               	lsrf	??_calculate_avg+7,f
 12040     11DC  0CF6               	rrf	??_calculate_avg+6,f
 12041     11DD  0CF5               	rrf	??_calculate_avg+5,f
 12042     11DE                     u592_20:
 12043     11DE  0B89               	decfsz	9,f
 12044     11DF  29DB               	goto	u592_25
 12045     11E0  0873               	movf	??_calculate_avg+3,w
 12046     11E1  0775               	addwf	??_calculate_avg+5,w
 12047     11E2  0023               	movlb	3	; select bank3
 12048     11E3  00BE               	movwf	_vavg^(0+384)
 12049     11E4  0874               	movf	??_calculate_avg+4,w
 12050     11E5  3D76               	addwfc	??_calculate_avg+6,w
 12051     11E6  00BF               	movwf	(_vavg+1)^(0+384)
 12052                           
 12053                           ;charger_discharger.c: 301:             break;
 12054     11E7  2A12               	goto	i1l362
 12055     11E8                     i1l4755:
 12056                           
 12057                           ;charger_discharger.c: 303:             iacum += (uint24_t) i;
 12058     11E8  085D               	movf	_i^(0+128),w
 12059     11E9  00F0               	movwf	??_calculate_avg
 12060     11EA  085E               	movf	(_i+1)^(0+128),w
 12061     11EB  00F1               	movwf	??_calculate_avg+1
 12062     11EC  01F2               	clrf	??_calculate_avg+2
 12063     11ED  0870               	movf	??_calculate_avg,w
 12064     11EE  07CF               	addwf	_iacum^(0+128),f
 12065     11EF  0871               	movf	??_calculate_avg+1,w
 12066     11F0  3DD0               	addwfc	(_iacum+1)^(0+128),f
 12067     11F1  0872               	movf	??_calculate_avg+2,w
 12068     11F2  3DD1               	addwfc	(_iacum+2)^(0+128),f
 12069                           
 12070                           ;charger_discharger.c: 304:             vacum += (uint24_t) v;
 12071     11F3  085F               	movf	_v^(0+128),w
 12072     11F4  00F0               	movwf	??_calculate_avg
 12073     11F5  0860               	movf	(_v+1)^(0+128),w
 12074     11F6  00F1               	movwf	??_calculate_avg+1
 12075     11F7  01F2               	clrf	??_calculate_avg+2
 12076     11F8  0870               	movf	??_calculate_avg,w
 12077     11F9  07D2               	addwf	_vacum^(0+128),f
 12078     11FA  0871               	movf	??_calculate_avg+1,w
 12079     11FB  3DD3               	addwfc	(_vacum+1)^(0+128),f
 12080     11FC  0872               	movf	??_calculate_avg+2,w
 12081     11FD  3DD4               	addwfc	(_vacum+2)^(0+128),f
 12082                           
 12083                           ;charger_discharger.c: 305:     }
 12084     11FE  2A12               	goto	i1l362
 12085     11FF                     i1l4757:
 12086                           
 12087                           ; Switch on 2 bytes has been partitioned into a top level switch of size 1, and 2 sub-sw
      +                          itches
 12088                           ; Switch size 1, requested type "simple"
 12089                           ; Number of cases is 2, Range of values is 0 to 4
 12090                           ; switch strategies available:
 12091                           ; Name         Instructions Cycles
 12092                           ; simple_byte            7     4 (average)
 12093                           ; direct_byte           16     6 (fixed)
 12094                           ; jumptable            260     6 (fixed)
 12095                           ;	Chosen strategy is simple_byte
 12096     11FF  0021               	movlb	1	; select bank1
 12097     1200  086B               	movf	(_count+1)^(0+128),w
 12098     1201  3A00               	xorlw	0	; case 0
 12099     1202  1903               	skipnz
 12100     1203  2A08               	goto	i1l5429
 12101     1204  3A04               	xorlw	4	; case 4
 12102     1205  1903               	skipnz
 12103     1206  2A0D               	goto	i1l5431
 12104     1207  29E8               	goto	i1l4755
 12105     1208                     i1l5429:
 12106                           
 12107                           ; Switch size 1, requested type "simple"
 12108                           ; Number of cases is 1, Range of values is 0 to 0
 12109                           ; switch strategies available:
 12110                           ; Name         Instructions Cycles
 12111                           ; simple_byte            4     3 (average)
 12112                           ; direct_byte            8     6 (fixed)
 12113                           ; jumptable            260     6 (fixed)
 12114                           ;	Chosen strategy is simple_byte
 12115     1208  086A               	movf	_count^(0+128),w
 12116     1209  3A00               	xorlw	0	; case 0
 12117     120A  1903               	skipnz
 12118     120B  299C               	goto	i1l4753
 12119     120C  29E8               	goto	i1l4755
 12120     120D                     i1l5431:
 12121                           
 12122                           ; Switch size 1, requested type "simple"
 12123                           ; Number of cases is 1, Range of values is 0 to 0
 12124                           ; switch strategies available:
 12125                           ; Name         Instructions Cycles
 12126                           ; simple_byte            4     3 (average)
 12127                           ; direct_byte            8     6 (fixed)
 12128                           ; jumptable            260     6 (fixed)
 12129                           ;	Chosen strategy is simple_byte
 12130     120D  086A               	movf	_count^(0+128),w
 12131     120E  3A00               	xorlw	0	; case 0
 12132     120F  1903               	skipnz
 12133     1210  2991               	goto	i1l4751
 12134     1211  29E8               	goto	i1l4755
 12135     1212                     i1l362:
 12136     1212  0008               	return
 12137     1213                     __end_of_calculate_avg:
 12138                           
 12139                           	psect	text38
 12140     1E0B                     __ptext38:	
 12141 ;; *************** function _abs *****************
 12142 ;; Defined at:
 12143 ;;		line 1 in file "C:\Program Files\Microchip\xc8\v2.40\pic\sources\c99\common\abs.c"
 12144 ;; Parameters:    Size  Location     Type
 12145 ;;  a               2    0[COMMON] int 
 12146 ;; Auto vars:     Size  Location     Type
 12147 ;;		None
 12148 ;; Return value:  Size  Location     Type
 12149 ;;                  2    0[COMMON] int 
 12150 ;; Registers used:
 12151 ;;		wreg, status,2, status,0
 12152 ;; Tracked objects:
 12153 ;;		On entry : 0/0
 12154 ;;		On exit  : 0/0
 12155 ;;		Unchanged: 0/0
 12156 ;; Data sizes:     COMMON   BANK0   BANK1   BANK2   BANK3   BANK4   BANK5   BANK6   BANK7   BANK8   BANK9  BANK10  BANK1
      +1  BANK12
 12157 ;;      Params:         2       0       0       0       0       0       0       0       0       0       0       0       
      +0       0
 12158 ;;      Locals:         0       0       0       0       0       0       0       0       0       0       0       0       
      +0       0
 12159 ;;      Temps:          2       0       0       0       0       0       0       0       0       0       0       0       
      +0       0
 12160 ;;      Totals:         4       0       0       0       0       0       0       0       0       0       0       0       
      +0       0
 12161 ;;Total ram usage:        4 bytes
 12162 ;; Hardware stack levels used: 1
 12163 ;; This function calls:
 12164 ;;		Nothing
 12165 ;; This function is called by:
 12166 ;;		_ISR
 12167 ;; This function uses a non-reentrant model
 12168 ;;
 12169                           
 12170     1E0B                     _abs:	
 12171                           ;psect for function _abs
 12172                           
 12173     1E0B                     i1l4787:	
 12174                           ;incstack = 0
 12175                           ; Regs used in _abs: [wreg+status,2+status,0]
 12176                           
 12177     1E0B  0871               	movf	abs@a+1,w
 12178     1E0C  3A80               	xorlw	128
 12179     1E0D  00F2               	movwf	??_abs
 12180     1E0E  3080               	movlw	128
 12181     1E0F  0272               	subwf	??_abs,w
 12182     1E10  1D03               	skipz
 12183     1E11  2E14               	goto	u595_25
 12184     1E12  3001               	movlw	1
 12185     1E13  0270               	subwf	abs@a,w
 12186     1E14                     u595_25:
 12187     1E14  1803               	skipnc
 12188     1E15  2E17               	goto	u595_21
 12189     1E16  2E18               	goto	u595_20
 12190     1E17                     u595_21:
 12191     1E17  2E24               	goto	i1l1190
 12192     1E18                     u595_20:
 12193     1E18                     i1l4789:
 12194     1E18  0970               	comf	abs@a,w
 12195     1E19  00F2               	movwf	??_abs
 12196     1E1A  0971               	comf	abs@a+1,w
 12197     1E1B  00F3               	movwf	??_abs+1
 12198     1E1C  0AF2               	incf	??_abs,f
 12199     1E1D  1903               	skipnz
 12200     1E1E  0AF3               	incf	??_abs+1,f
 12201     1E1F  0872               	movf	??_abs,w
 12202     1E20  00F0               	movwf	?_abs
 12203     1E21  0873               	movf	??_abs+1,w
 12204     1E22  00F1               	movwf	?_abs+1
 12205     1E23  2E24               	goto	i1l1193
 12206     1E24                     i1l1190:
 12207     1E24                     i1l1193:
 12208     1E24  0008               	return
 12209     1E25                     __end_of_abs:
 12210                           
 12211                           	psect	text39
 12212     1DDB                     __ptext39:	
 12213 ;; *************** function _UART_send_string *****************
 12214 ;; Defined at:
 12215 ;;		line 448 in file "charger_discharger.c"
 12216 ;; Parameters:    Size  Location     Type
 12217 ;;  st_pt           2    1[COMMON] PTR unsigned char 
 12218 ;;		 -> STR_2(13), STR_1(11), 
 12219 ;; Auto vars:     Size  Location     Type
 12220 ;;		None
 12221 ;; Return value:  Size  Location     Type
 12222 ;;                  1    wreg      void 
 12223 ;; Registers used:
 12224 ;;		wreg, fsr0l, fsr0h, status,2, status,0, pclath, cstack
 12225 ;; Tracked objects:
 12226 ;;		On entry : 0/0
 12227 ;;		On exit  : 0/0
 12228 ;;		Unchanged: 0/0
 12229 ;; Data sizes:     COMMON   BANK0   BANK1   BANK2   BANK3   BANK4   BANK5   BANK6   BANK7   BANK8   BANK9  BANK10  BANK1
      +1  BANK12
 12230 ;;      Params:         2       0       0       0       0       0       0       0       0       0       0       0       
      +0       0
 12231 ;;      Locals:         0       0       0       0       0       0       0       0       0       0       0       0       
      +0       0
 12232 ;;      Temps:          1       0       0       0       0       0       0       0       0       0       0       0       
      +0       0
 12233 ;;      Totals:         3       0       0       0       0       0       0       0       0       0       0       0       
      +0       0
 12234 ;;Total ram usage:        3 bytes
 12235 ;; Hardware stack levels used: 1
 12236 ;; Hardware stack levels required when called: 1
 12237 ;; This function calls:
 12238 ;;		_UART_send_char
 12239 ;; This function is called by:
 12240 ;;		_ISR
 12241 ;; This function uses a non-reentrant model
 12242 ;;
 12243                           
 12244     1DDB                     _UART_send_string:	
 12245                           ;psect for function _UART_send_string
 12246                           
 12247     1DDB                     i1l4779:	
 12248                           ;incstack = 0
 12249                           ; Regs used in _UART_send_string: [wreg-fsr0h+status,2+status,0+pclath+cstack]
 12250                           
 12251                           
 12252                           ;charger_discharger.c: 448: void UART_send_string(char* st_pt);charger_discharger.c: 449
      +                          : {;charger_discharger.c: 450:     while(*st_pt)
 12253     1DDB  2DE8               	goto	i1l4785
 12254     1DDC                     i1l4781:
 12255                           
 12256                           ;charger_discharger.c: 451:         UART_send_char(*st_pt++);
 12257     1DDC  0871               	movf	UART_send_string@st_pt,w
 12258     1DDD  0084               	movwf	4
 12259     1DDE  0872               	movf	UART_send_string@st_pt+1,w
 12260     1DDF  0085               	movwf	5
 12261     1DE0  0800               	movf	0,w	;code access
 12262     1DE1  319D  2586  319D   	fcall	_UART_send_char
 12263     1DE4                     i1l4783:
 12264     1DE4  3001               	movlw	1
 12265     1DE5  07F1               	addwf	UART_send_string@st_pt,f
 12266     1DE6  3000               	movlw	0
 12267     1DE7  3DF2               	addwfc	UART_send_string@st_pt+1,f
 12268     1DE8                     i1l4785:
 12269                           
 12270                           ;charger_discharger.c: 450:     while(*st_pt)
 12271     1DE8  0871               	movf	UART_send_string@st_pt,w
 12272     1DE9  0084               	movwf	4
 12273     1DEA  0872               	movf	UART_send_string@st_pt+1,w
 12274     1DEB  0085               	movwf	5
 12275     1DEC  0012               	moviw fsr0++
 12276     1DED  1D03               	btfss	3,2
 12277     1DEE  2DF0               	goto	u594_21
 12278     1DEF  2DF1               	goto	u594_20
 12279     1DF0                     u594_21:
 12280     1DF0  2DDC               	goto	i1l4781
 12281     1DF1                     u594_20:
 12282     1DF1                     i1l431:
 12283     1DF1  0008               	return
 12284     1DF2                     __end_of_UART_send_string:
 12285                           
 12286                           	psect	text40
 12287     1D86                     __ptext40:	
 12288 ;; *************** function _UART_send_char *****************
 12289 ;; Defined at:
 12290 ;;		line 351 in file "charger_discharger.c"
 12291 ;; Parameters:    Size  Location     Type
 12292 ;;  bt              1    wreg     unsigned char 
 12293 ;; Auto vars:     Size  Location     Type
 12294 ;;  bt              1    0[COMMON] unsigned char 
 12295 ;; Return value:  Size  Location     Type
 12296 ;;                  1    wreg      void 
 12297 ;; Registers used:
 12298 ;;		wreg
 12299 ;; Tracked objects:
 12300 ;;		On entry : 0/0
 12301 ;;		On exit  : 0/0
 12302 ;;		Unchanged: 0/0
 12303 ;; Data sizes:     COMMON   BANK0   BANK1   BANK2   BANK3   BANK4   BANK5   BANK6   BANK7   BANK8   BANK9  BANK10  BANK1
      +1  BANK12
 12304 ;;      Params:         0       0       0       0       0       0       0       0       0       0       0       0       
      +0       0
 12305 ;;      Locals:         1       0       0       0       0       0       0       0       0       0       0       0       
      +0       0
 12306 ;;      Temps:          0       0       0       0       0       0       0       0       0       0       0       0       
      +0       0
 12307 ;;      Totals:         1       0       0       0       0       0       0       0       0       0       0       0       
      +0       0
 12308 ;;Total ram usage:        1 bytes
 12309 ;; Hardware stack levels used: 1
 12310 ;; This function calls:
 12311 ;;		Nothing
 12312 ;; This function is called by:
 12313 ;;		_UART_send_string
 12314 ;; This function uses a non-reentrant model
 12315 ;;
 12316                           
 12317     1D86                     _UART_send_char:	
 12318                           ;psect for function _UART_send_char
 12319                           
 12320                           
 12321                           ;incstack = 0
 12322                           ; Regs used in _UART_send_char: [wreg]
 12323                           ;UART_send_char@bt stored from wreg
 12324     1D86  00F0               	movwf	UART_send_char@bt
 12325     1D87                     i1l3705:
 12326     1D87                     i1l374:	
 12327                           ;charger_discharger.c: 354:     {;charger_discharger.c: 355:     }
 12328                           
 12329                           
 12330                           ;charger_discharger.c: 353:     while(0 == TXIF)
 12331     1D87  0020               	movlb	0	; select bank0
 12332     1D88  1E11               	btfss	17,4	;volatile
 12333     1D89  2D8B               	goto	u421_21
 12334     1D8A  2D8C               	goto	u421_20
 12335     1D8B                     u421_21:
 12336     1D8B  2D87               	goto	i1l374
 12337     1D8C                     u421_20:
 12338     1D8C                     i1l3707:
 12339                           
 12340                           ;charger_discharger.c: 356:     TX1REG = bt;
 12341     1D8C  0870               	movf	UART_send_char@bt,w
 12342     1D8D  0023               	movlb	3	; select bank3
 12343     1D8E  009A               	movwf	26	;volatile
 12344     1D8F                     i1l377:
 12345     1D8F  0008               	return
 12346     1D90                     __end_of_UART_send_char:
 12347     007E                     btemp	set	126	;btemp
 12348     007E                     int$flags	set	126
 12349     007E                     wtemp0	set	126
 12350                           
 12351                           	psect	idloc
 12352                           
 12353                           ;Config register IDLOC0 @ 0x8000
 12354                           ;	unspecified, using default values
 12355     8000                     	org	32768
 12356     8000  3FFF               	dw	16383
 12357                           
 12358                           ;Config register IDLOC1 @ 0x8001
 12359                           ;	unspecified, using default values
 12360     8001                     	org	32769
 12361     8001  3FFF               	dw	16383
 12362                           
 12363                           ;Config register IDLOC2 @ 0x8002
 12364                           ;	unspecified, using default values
 12365     8002                     	org	32770
 12366     8002  3FFF               	dw	16383
 12367                           
 12368                           ;Config register IDLOC3 @ 0x8003
 12369                           ;	unspecified, using default values
 12370     8003                     	org	32771
 12371     8003  3FFF               	dw	16383
 12372                           
 12373                           	psect	config
 12374                           
 12375                           ;Config register CONFIG1 @ 0x8007
 12376                           ;	Oscillator Selection
 12377                           ;	FOSC = INTOSC, INTOSC oscillator: I/O function on CLKIN pin
 12378                           ;	Watchdog Timer Enable
 12379                           ;	WDTE = OFF, WDT disabled
 12380                           ;	Power-up Timer Enable
 12381                           ;	PWRTE = OFF, PWRT disabled
 12382                           ;	MCLR Pin Function Select
 12383                           ;	MCLRE = ON, MCLR/VPP pin function is MCLR
 12384                           ;	Flash Program Memory Code Protection
 12385                           ;	CP = OFF, Program memory code protection is disabled
 12386                           ;	Data Memory Code Protection
 12387                           ;	CPD = OFF, Data memory code protection is disabled
 12388                           ;	Brown-out Reset Enable
 12389                           ;	BOREN = OFF, Brown-out Reset disabled
 12390                           ;	Clock Out Enable
 12391                           ;	CLKOUTEN = ON, CLKOUT function is enabled on the CLKOUT pin
 12392                           ;	Internal/External Switchover
 12393                           ;	IESO = ON, Internal/External Switchover mode is enabled
 12394                           ;	Fail-Safe Clock Monitor Enable
 12395                           ;	FCMEN = ON, Fail-Safe Clock Monitor is enabled
 12396     8007                     	org	32775
 12397     8007  31E4               	dw	12772
 12398                           
 12399                           ;Config register CONFIG2 @ 0x8008
 12400                           ;	Flash Memory Self-Write Protection
 12401                           ;	WRT = OFF, Write protection off
 12402                           ;	Voltage Regulator Capacitor Enable bit
 12403                           ;	VCAPEN = OFF, Vcap functionality is disabled on RA6.
 12404                           ;	PLL Enable
 12405                           ;	PLLEN = OFF, 4x PLL disabled
 12406                           ;	Stack Overflow/Underflow Reset Enable
 12407                           ;	STVREN = ON, Stack Overflow or Underflow will cause a Reset
 12408                           ;	Brown-out Reset Voltage Selection
 12409                           ;	BORV = LO, Brown-out Reset Voltage (Vbor), low trip point selected.
 12410                           ;	Low Power Brown-Out Reset Enable Bit
 12411                           ;	LPBOR = OFF, Low power brown-out is disabled
 12412                           ;	Low-Voltage Programming Enable
 12413                           ;	LVP = OFF, High-voltage on MCLR/VPP must be used for programming
 12414     8008                     	org	32776
 12415     8008  1EFF               	dw	7935

Data Sizes:
    Strings     24
    Constant    0
    Data        33
    BSS         76
    Persistent  32
    Stack       0

Auto Spaces:
    Space          Size  Autos    Used
    COMMON           14     14      14
    BANK0            80     80      80
    BANK1            80     39      78
    BANK2            80     80      80
    BANK3            80     25      79
    BANK4            80      0      16
    BANK5            80      0       0
    BANK6            80      0       0
    BANK7            80      0       0
    BANK8            80      0       0
    BANK9            80      0       0
    BANK10           80      0       0
    BANK11           80      0       0
    BANK12           48      0       0

Pointer List with Targets:

    log_data_ptr	PTR struct log_data_struct size(1) Largest target is 0
		 -> NULL(NULL[0]), 

    strlen@s	PTR const unsigned char  size(2) Largest target is 8192
		 -> ROM(CODE[8192]), 

    strlen@a	PTR const unsigned char  size(2) Largest target is 8192
		 -> ROM(CODE[8192]), 

    strcmp@r	PTR const unsigned char  size(2) Largest target is 8192
		 -> ROM(CODE[8192]), 

    strcmp@l	PTR const unsigned char  size(1) Largest target is 20
		 -> command_interpreter@data(BANK1[20]), 

    UART_send_string@st_pt	PTR unsigned char  size(2) Largest target is 13
		 -> STR_2(CODE[13]), STR_1(CODE[11]), 

    UART_send_some_char@data	PTR unsigned char  size(2) Largest target is 4096
		 -> RAM(DATA[4096]), 

    UART_read_until@data	PTR unsigned char  size(1) Largest target is 20
		 -> command_interpreter@data(BANK1[20]), 


Critical Paths under _main in COMMON

    None.

Critical Paths under _ISR in COMMON

    _control_loop->i1___xxtofl
    _pid->i1___xxtofl
    _command_interpreter->i1___xxtofl
    i1___flmul->i1___xxtofl
    i1___fldiv->i1___xxtofl
    i1___fladd->i1___xxtofl
    i1___fltol->i1___xxtofl
    _UART_send_some_char->_strlen
    _UART_send_string->_UART_send_char

Critical Paths under _main in BANK0

    None.

Critical Paths under _ISR in BANK0

    _pid->i1___flmul
    ___flsub->i1___fladd
    _command_interpreter->i1___fldiv
    i1___flmul->___flsub
    i1___fldiv->i1___flmul
    i1___fltol->i1___fldiv

Critical Paths under _main in BANK1

    None.

Critical Paths under _ISR in BANK1

    _ISR->_command_interpreter
    _control_loop->i1_set_DC
    _command_interpreter->_converter_settings
    _converter_settings->i1_set_DC
    i1_set_DC->i1___fltol

Critical Paths under _main in BANK2

    _scaling->___fltol
    _set_DC->___fltol
    _cc_cv_mode->___fltol
    ___fltol->___fladd
    ___flmul->___xxtofl
    ___fldiv->___flmul
    ___fladd->___fldiv

Critical Paths under _ISR in BANK2

    None.

Critical Paths under _main in BANK3

    _main->_scaling
    _scaling->___fltol
    _initialize->_set_DC
    _set_DC->___fltol
    _cc_cv_mode->___fltol
    ___fltol->___fladd

Critical Paths under _ISR in BANK3

    None.

Critical Paths under _main in BANK4

    None.

Critical Paths under _ISR in BANK4

    None.

Critical Paths under _main in BANK5

    None.

Critical Paths under _ISR in BANK5

    None.

Critical Paths under _main in BANK6

    None.

Critical Paths under _ISR in BANK6

    None.

Critical Paths under _main in BANK7

    None.

Critical Paths under _ISR in BANK7

    None.

Critical Paths under _main in BANK8

    None.

Critical Paths under _ISR in BANK8

    None.

Critical Paths under _main in BANK9

    None.

Critical Paths under _ISR in BANK9

    None.

Critical Paths under _main in BANK10

    None.

Critical Paths under _ISR in BANK10

    None.

Critical Paths under _main in BANK11

    None.

Critical Paths under _ISR in BANK11

    None.

Critical Paths under _main in BANK12

    None.

Critical Paths under _ISR in BANK12

    None.

Call Graph Tables:

 ---------------------------------------------------------------------------------
 (Depth) Function   	        Calls       Base Space   Used Autos Params    Refs
 ---------------------------------------------------------------------------------
 (0) _main                                                 1     1      0   25057
                                             24 BANK3      1     1      0
                         _cc_cv_mode
                         _initialize
                   _interrupt_enable
                            _scaling
 ---------------------------------------------------------------------------------
 (1) _scaling                                              8     8      0   12033
                                             16 BANK3      8     8      0
                            ___fladd
                            ___fldiv
                            ___flmul
                            ___fltol
                           ___xxtofl
 ---------------------------------------------------------------------------------
 (1) _interrupt_enable                                     1     1      0       6
 ---------------------------------------------------------------------------------
 (1) _initialize                                           2     2      0     724
                                             18 BANK3      2     2      0
                           _Cell_OFF
                             _set_DC
 ---------------------------------------------------------------------------------
 (2) _set_DC                                               2     2      0     724
                                             16 BANK3      2     2      0
                            ___fltol
 ---------------------------------------------------------------------------------
 (2) _Cell_OFF                                             1     1      0       0
                                              0 BANK2      1     1      0
 ---------------------------------------------------------------------------------
 (1) _cc_cv_mode                                           5     0      5   12294
                                             16 BANK3      5     0      5
                            ___fladd
                            ___fldiv
                            ___flmul
                            ___fltol
                           ___xxtofl
 ---------------------------------------------------------------------------------
 (2) ___xxtofl                                            14    10      4     944
                                              0 BANK2     14    10      4
 ---------------------------------------------------------------------------------
 (2) ___fltol                                             10     6      4     659
                                             78 BANK2      2     2      0
                                              8 BANK3      8     4      4
                            ___fladd (ARG)
                            ___fldiv (ARG)
                            ___flmul (ARG)
                           ___xxtofl (ARG)
 ---------------------------------------------------------------------------------
 (2) ___flmul                                             26    18      8    4803
                                             14 BANK2     26    18      8
                          __Umul8_16
                           ___xxtofl (ARG)
 ---------------------------------------------------------------------------------
 (3) __Umul8_16                                            9     7      2     980
                                              0 BANK2      9     7      2
 ---------------------------------------------------------------------------------
 (2) ___fldiv                                             26    18      8    2081
                                             40 BANK2     26    18      8
                            ___flmul (ARG)
                           ___xxtofl (ARG)
 ---------------------------------------------------------------------------------
 (2) ___fladd                                             20    12      8    3444
                                             66 BANK2     12     4      8
                                              0 BANK3      8     8      0
                            ___fldiv (ARG)
                            ___flmul (ARG)
                           ___xxtofl (ARG)
 ---------------------------------------------------------------------------------
 Estimated maximum stack depth 3
 ---------------------------------------------------------------------------------
 (Depth) Function   	        Calls       Base Space   Used Autos Params    Refs
 ---------------------------------------------------------------------------------
 (4) _ISR                                                  2     2      0   18038
                                             37 BANK1      2     2      0
                     _UART_send_byte
                   _UART_send_string
                                _abs
                      _calculate_avg
                _command_interpreter
                       _control_loop
                           _read_ADC
                             _timing
 ---------------------------------------------------------------------------------
 (5) _timing                                               0     0      0       0
 ---------------------------------------------------------------------------------
 (5) _read_ADC                                            11     9      2     198
                                              0 COMMON    11     9      2
 ---------------------------------------------------------------------------------
 (5) _control_loop                                         0     0      0    9301
                                _pid
                         i1___xxtofl
                           i1_set_DC
 ---------------------------------------------------------------------------------
 (6) _pid                                                 20    12      8    8523
                                             54 BANK0     20    12      8
                             ___flge
                            ___flsub
                          i1___fladd
                          i1___flmul
                         i1___xxtofl (ARG)
 ---------------------------------------------------------------------------------
 (7) ___flsub                                              8     0      8    2849
                                             20 BANK0      8     0      8
                          i1___fladd
 ---------------------------------------------------------------------------------
 (7) ___flge                                              12     4      8     790
                                              0 COMMON    12     4      8
 ---------------------------------------------------------------------------------
 (5) _command_interpreter                                 24    24      0    8156
                                             13 BANK1     24    24      0
                    _UART_read_until
                _UART_send_some_char
                 _converter_settings
                             _strcmp
                             _strlen
                         i1_Cell_OFF
                          i1___fladd
                          i1___fldiv
                          i1___flmul
                          i1___fltol
                         i1___xxtofl
                           i1_set_DC
 ---------------------------------------------------------------------------------
 (6) i1___xxtofl                                          14    10      4     452
                                              0 COMMON    14    10      4
 ---------------------------------------------------------------------------------
 (7) i1___flmul                                           26    18      8    2075
                                             28 BANK0     26    18      8
                            ___flsub (ARG)
                        i1__Umul8_16
                          i1___fladd (ARG)
                         i1___xxtofl (ARG)
 ---------------------------------------------------------------------------------
 (8) i1__Umul8_16                                          9     7      2     349
                                              0 COMMON     9     7      2
 ---------------------------------------------------------------------------------
 (6) i1___fldiv                                           26    18      8    1225
                                             54 BANK0     26    18      8
                          i1___fladd (ARG)
                          i1___flmul (ARG)
                         i1___xxtofl (ARG)
 ---------------------------------------------------------------------------------
 (7) i1___fladd                                           20    12      8    2348
                                              0 BANK0     20    12      8
                        i1__Umul8_16 (ARG)
                         i1___xxtofl (ARG)
 ---------------------------------------------------------------------------------
 (6) i1_Cell_OFF                                           1     1      0       0
                                              0 COMMON     1     1      0
 ---------------------------------------------------------------------------------
 (6) _strlen                                               5     3      2     166
                                              0 COMMON     5     3      2
 ---------------------------------------------------------------------------------
 (6) _strcmp                                               4     2      2     221
                                              0 COMMON     4     2      2
 ---------------------------------------------------------------------------------
 (6) _converter_settings                                   1     1      0     326
                                             12 BANK1      1     1      0
                            _Cell_ON
                           i1_set_DC
 ---------------------------------------------------------------------------------
 (6) i1_set_DC                                             2     2      0     326
                                             10 BANK1      2     2      0
                          i1___fltol
 ---------------------------------------------------------------------------------
 (7) i1___fltol                                           10     6      4     281
                                              0 BANK1     10     6      4
                          i1___fladd (ARG)
                          i1___fldiv (ARG)
                          i1___flmul (ARG)
                         i1___xxtofl (ARG)
 ---------------------------------------------------------------------------------
 (7) _Cell_ON                                              1     1      0       0
                                              0 COMMON     1     1      0
 ---------------------------------------------------------------------------------
 (6) _UART_send_some_char                                  3     1      2     143
                                              5 COMMON     3     1      2
                     _UART_send_byte
                             _strlen (ARG)
 ---------------------------------------------------------------------------------
 (7) _UART_send_byte                                       1     1      0      22
                                              0 COMMON     1     1      0
 ---------------------------------------------------------------------------------
 (6) _UART_read_until                                      6     5      1     288
                                              0 COMMON     6     5      1
                      _UART_get_byte
 ---------------------------------------------------------------------------------
 (7) _UART_get_byte                                        0     0      0       0
 ---------------------------------------------------------------------------------
 (5) _calculate_avg                                        8     8      0       0
                                              0 COMMON     8     8      0
 ---------------------------------------------------------------------------------
 (5) _abs                                                  4     2      2     142
                                              0 COMMON     4     2      2
 ---------------------------------------------------------------------------------
 (5) _UART_send_string                                     3     1      2     219
                                              1 COMMON     3     1      2
                     _UART_send_char
 ---------------------------------------------------------------------------------
 (6) _UART_send_char                                       1     1      0      22
                                              0 COMMON     1     1      0
 ---------------------------------------------------------------------------------
 Estimated maximum stack depth 8
 ---------------------------------------------------------------------------------

 Call Graph Graphs:

 _main (ROOT)
   _cc_cv_mode
     ___fladd
       ___fldiv (ARG)
         ___flmul (ARG)
           __Umul8_16
           ___xxtofl (ARG)
         ___xxtofl (ARG)
       ___flmul (ARG)
       ___xxtofl (ARG)
     ___fldiv
     ___flmul
     ___fltol
       ___fladd (ARG)
       ___fldiv (ARG)
       ___flmul (ARG)
       ___xxtofl (ARG)
     ___xxtofl
   _initialize
     _Cell_OFF
     _set_DC
       ___fltol
   _interrupt_enable
   _scaling
     ___fladd
     ___fldiv
     ___flmul
     ___fltol
     ___xxtofl

 _ISR (ROOT)
   _UART_send_byte
   _UART_send_string
     _UART_send_char
   _abs
   _calculate_avg
   _command_interpreter
     _UART_read_until
       _UART_get_byte
     _UART_send_some_char
       _UART_send_byte
       _strlen (ARG)
     _converter_settings
       _Cell_ON
       i1_set_DC
         i1___fltol
           i1___fladd (ARG)
             i1__Umul8_16 (ARG)
             i1___xxtofl (ARG)
           i1___fldiv (ARG)
             i1___fladd (ARG)
             i1___flmul (ARG)
               ___flsub (ARG)
                 i1___fladd
               i1__Umul8_16 (ARG)
               i1___fladd (ARG)
               i1___xxtofl (ARG)
             i1___xxtofl (ARG)
           i1___flmul (ARG)
           i1___xxtofl (ARG)
     _strcmp
     _strlen
     i1_Cell_OFF
     i1___fladd
     i1___fldiv
     i1___flmul
     i1___fltol
     i1___xxtofl
     i1_set_DC
   _control_loop
     _pid
       ___flge
       ___flsub
       i1___fladd
       i1___flmul
       i1___xxtofl (ARG)
     i1___xxtofl
     i1_set_DC
   _read_ADC
   _timing

 Address spaces:
Name               Size   Autos  Total    Cost      Usage
BIGRAM             3F0      0       0       0        0.0%
EEDATA             100      0       0       0        0.0%
NULL                 0      0       0       0        0.0%
CODE                 0      0       0       0        0.0%
BITCOMMON            E      0       0       1        0.0%
BITSFR0              0      0       0       1        0.0%
SFR0                 0      0       0       1        0.0%
COMMON               E      E       E       2      100.0%
BITSFR1              0      0       0       2        0.0%
SFR1                 0      0       0       2        0.0%
BITSFR2              0      0       0       3        0.0%
SFR2                 0      0       0       3        0.0%
STACK                0      0       0       3        0.0%
BITBANK0            50      0       0       4        0.0%
BITSFR3              0      0       0       4        0.0%
SFR3                 0      0       0       4        0.0%
BANK0               50     50      50       5      100.0%
BITSFR4              0      0       0       5        0.0%
SFR4                 0      0       0       5        0.0%
BITBANK1            50      0       0       6        0.0%
BITSFR5              0      0       0       6        0.0%
SFR5                 0      0       0       6        0.0%
BANK1               50     27      4E       7       97.5%
BITSFR6              0      0       0       7        0.0%
SFR6                 0      0       0       7        0.0%
BITBANK2            50      0       0       8        0.0%
BITSFR7              0      0       0       8        0.0%
SFR7                 0      0       0       8        0.0%
BANK2               50     50      50       9      100.0%
BITSFR8              0      0       0       9        0.0%
SFR8                 0      0       0       9        0.0%
BITBANK3            50      0       0      10        0.0%
BITSFR9              0      0       0      10        0.0%
SFR9                 0      0       0      10        0.0%
BANK3               50     19      4F      11       98.8%
BITSFR10             0      0       0      11        0.0%
SFR10                0      0       0      11        0.0%
BITBANK4            50      0       0      12        0.0%
BITSFR11             0      0       0      12        0.0%
SFR11                0      0       0      12        0.0%
BANK4               50      0      10      13       20.0%
BITSFR12             0      0       0      13        0.0%
SFR12                0      0       0      13        0.0%
BITBANK5            50      0       0      14        0.0%
BITSFR13             0      0       0      14        0.0%
SFR13                0      0       0      14        0.0%
BANK5               50      0       0      15        0.0%
BITSFR14             0      0       0      15        0.0%
SFR14                0      0       0      15        0.0%
BITBANK6            50      0       0      16        0.0%
BITSFR15             0      0       0      16        0.0%
SFR15                0      0       0      16        0.0%
BANK6               50      0       0      17        0.0%
BITSFR16             0      0       0      17        0.0%
SFR16                0      0       0      17        0.0%
BITBANK7            50      0       0      18        0.0%
BITSFR17             0      0       0      18        0.0%
SFR17                0      0       0      18        0.0%
BANK7               50      0       0      19        0.0%
BITSFR18             0      0       0      19        0.0%
SFR18                0      0       0      19        0.0%
BITSFR19             0      0       0      20        0.0%
SFR19                0      0       0      20        0.0%
ABS                  0      0     15B      20        0.0%
BITBANK8            50      0       0      21        0.0%
BITSFR20             0      0       0      21        0.0%
SFR20                0      0       0      21        0.0%
BANK8               50      0       0      22        0.0%
BITSFR21             0      0       0      22        0.0%
SFR21                0      0       0      22        0.0%
BITBANK9            50      0       0      23        0.0%
BITSFR22             0      0       0      23        0.0%
SFR22                0      0       0      23        0.0%
BANK9               50      0       0      24        0.0%
BITSFR23             0      0       0      24        0.0%
SFR23                0      0       0      24        0.0%
BITBANK10           50      0       0      25        0.0%
BITSFR24             0      0       0      25        0.0%
SFR24                0      0       0      25        0.0%
BANK10              50      0       0      26        0.0%
BITSFR25             0      0       0      26        0.0%
SFR25                0      0       0      26        0.0%
BITBANK11           50      0       0      27        0.0%
BITSFR26             0      0       0      27        0.0%
SFR26                0      0       0      27        0.0%
BANK11              50      0       0      28        0.0%
BITSFR27             0      0       0      28        0.0%
SFR27                0      0       0      28        0.0%
BITBANK12           30      0       0      29        0.0%
BITSFR28             0      0       0      29        0.0%
SFR28                0      0       0      29        0.0%
BANK12              30      0       0      30        0.0%
BITSFR29             0      0       0      30        0.0%
SFR29                0      0       0      30        0.0%
BITSFR30             0      0       0      31        0.0%
SFR30                0      0       0      31        0.0%
DATA                 0      0     15B      31        0.0%
BITSFR31             0      0       0      32        0.0%
SFR31                0      0       0      32        0.0%


Microchip Technology PIC Macro Assembler V2.40 build 20220703182018 
Symbol Table                                                                                   Wed Oct 30 15:02:40 2024

                 ___fldiv@aexp 0161                   ___fldiv@bexp 0160                              _i 00DD  
                            _v 00DF                    i1___fladd@a 0024                    i1___fladd@b 0020  
                 ___fldiv@sign 0159                    i1___fldiv@a 0056                    i1___fldiv@b 005A  
                           _kd 01A8                             _er 00C7                    i1___flmul@a 0040  
                           _ki 01AC                    i1___flmul@b 003C      UART_send_some_char@length 0077  
                           _kp 01B0            __Umul8_16@word_mpld 0126                     i1___xxtofl 12B4  
                          l340 07FF                            l343 0C06                            l336 1E59  
                          l370 1DCD                            l371 1DDA                            l444 1F38  
                          l297 1517                            l931 1179                            l924 118F  
                          l934 118F                            _GIE 005F                            _RB2 006A  
                          _RB3 006B                            _RB4 006C                            _RC3 0073  
                          _RB5 006D                            _RC4 0074                            _RC5 0075  
                          _ISR 0004                            _RX9 0CEE                            _TX9 0CF6  
                          _abs 1E0B                            _pid 0C07                   i1___fltol@f1 00A0  
                          wreg 0009                  i1___fladd@grs 0033                   ___flmul@aexp 013C  
                 ___flmul@bexp 0141                   ___flmul@sign 013B                   ___flmul@temp 0146  
                 ___flmul@prod 0142                           ?_ISR 0070                  i1___fldiv@grs 006A  
                i1___fldiv@rem 0063                   ___fltol@exp1 016F                           l1031 0112  
                         l1111 0A2D                           l1103 09BA                           l1035 0198  
                         ?_abs 0070                           l1052 0242                           l1044 02F8  
                         l1108 0A06                           l1037 0172                           l1109 0A20  
                         l1133 04B3                           l1062 0286                           l1127 0533  
                         l1056 0264                           l1073 02F1                           l1065 02CD  
                         l1074 02F8                           l1146 1ED2                           l1139 0527  
                         l1171 1381                           l1148 1EE2                           l1173 1408  
                         l1087 08DC                           l1184 13D4                           l4001 099A  
                         l1089 0A34                           l1185 13E0                           l1177 13BA  
                         l4003 099E                           l4021 09E8                           l4013 09BF  
                         l4005 099F                           l4031 0A1F                           l4015 09C4  
                         l4023 09EC                           l4007 09A3                           l4033 0A23  
                         l4025 09F9                           l4017 09CC                           l4009 09B7  
                         l5001 0348                           l4201 13A7                           l4035 0A27  
                         l4027 0A14                           l4019 09D0                           l5011 0366  
                         l5003 034D                           l3411 1149                           l3403 1129  
                         l4211 13CE                           l4203 13AB                           l4037 0A29  
                         l4029 0A17                           l5101 052B                           l5021 03BD  
                         l5013 0373                           l5005 0352                           l3413 114D  
                         l3421 1167                           l3405 113C                           l4221 13FF  
                         l4213 13D8                           l4205 13B3                           l5031 03EE  
                         l5023 03CA                           l5015 038B                           l3431 1183  
                         l3407 113E                           l4223 1400                           l4215 13E2  
                         l4207 13C1                           l5111 1414                           l5041 042B  
                         l5033 03F5                           l5025 03D1                           l5017 0398  
                         l5009 035B                           l3409 1146                           l4217 13F6  
                         l4209 13CA                           l5201 145D                           l5121 141D  
                         l5113 1415                           l5105 1409                           l5051 047C  
                         l5043 043D                           l5035 0407                           l5027 03DC  
                         l5019 03B0                           l3427 116E                           l3419 1155  
                         l4219 13FB                           l5211 1467                           l5203 145F  
                         l5131 1427                           l5123 141F                           l5115 1417  
                         l5107 140E                           l5053 0483                           l5061 0493  
                         l5045 0452                           l5037 040E                           l5029 03E3  
                         l3429 117E                           l5301 1503                           l5221 1471  
                         l5213 1469                           l5205 1461                           l5141 1431  
                         l5133 1429                           l5125 1421                           l5117 1419  
                         l5109 1413                           l3711 00C0                           l5063 0497  
                         l5055 0487                           l5047 0469                           l5039 0420  
                         l4191 1389                           l4183 1360                           l5311 1514  
                         l5303 1504                           l5231 147B                           l5223 1473  
                         l5215 146B                           l5207 1463                           l5151 143C  
                         l5143 1433                           l5135 142B                           l5127 1423  
                         l5119 141B                           l3801 0181                           l3721 00D1  
                         l3713 00C2                           l5081 04E1                           l5073 04B8  
                         l5065 0498                           l5057 0488                           l5049 0470  
                         l4185 1365                           l5321 07E6                           l5313 076F  
                         l5305 1506                           l5241 1487                           l5233 147F  
                         l5225 1475                           l5217 146D                           l5209 1465  
                         l5161 1441                           l5153 143D                           l5145 1435  
                         l5137 142D                           l5129 1425                           l3803 018C  
                         l3731 00E7                           l3723 00D9                           l3715 00C6  
                         l5091 0513                           l5075 04BD                           l5083 04E5  
                         l5067 049C                           l5059 048F                           l4195 1392  
                         l4187 1369                           l5323 07EF                           l5315 07D7  
                         l5307 1508                           l5251 148F                           l5243 1488  
                         l5235 1480                           l5227 1477                           l5219 146F  
                         l5171 1449                           l5163 1442                           l5155 143E  
                         l5147 1437                           l5139 142F                           l5331 1DC6  
                         l3901 02F7                           l3821 01BE                           l3813 01AA  
                         l3805 0191                           l3741 00F5                           l3733 00ED  
                         l3725 00DA                           l3717 00C7                           l3709 00BC  
                         l5093 0515                           l5085 04F2                           l5077 04C5  
                         l5069 04B0                           l3397 1114                           l4197 1395  
                         l4189 1379                           l5325 07F7                           l5317 07DC  
                         l5309 1511                           l5261 1494                           l5253 1490  
                         l5245 148A                           l5237 1484                           l5229 1479  
                         l5181 1451                           l5173 144A                           l5165 1443  
                         l5157 143F                           l5149 143A                           l5333 1DC8  
                         l5341 1011                           l3823 01C0                           l3815 01B2  
                         l3807 019C                           l3831 01D6                           l3743 00FA  
                         l3751 010A                           l3735 00EE                           l3719 00CC  
                         l3727 00DC                           l3911 0896                           l3903 088B  
                         l5095 0520                           l5087 04FC                           l5079 04C9  
                         l3399 111F                           l4199 13A0                           l5319 07E5  
                         l5271 149A                           l5263 1495                           l5255 1491  
                         l5247 148B                           l5239 1485                           l5191 1457  
                         l5183 1453                           l5175 144C                           l5167 1445  
                         l5159 1440                           l5335 1DD3                           l5327 0A35  
                         l5351 1029                           l5343 1014                           l3833 01F0  
                         l3841 023A                           l3825 01C4                           l3817 01B6  
                         l3809 01A1                           l3761 0126                           l3753 0118  
                         l3745 00FF                           l3737 00F0                           l3729 00E4  
                         l3913 089B                           l3921 08AB                           l3905 088F  
                         l5097 0524                           l5089 050A                           l5281 14B7  
                         l5273 149C                           l5265 1496                           l5257 1492  
                         l5249 148D                           l5193 1458                           l5185 1454  
                         l5177 144E                           l5169 1447                           l5337 1DD7  
                         l5329 1DC5                           l5353 102F                           l5345 101D  
                         l3851 025F                           l3843 024A                           l3835 0224  
                         l3827 01C5                           l3819 01BA                           l3771 0130  
                         l3763 0128                           l3755 011C                           l3747 0107  
                         l3739 00F4                           l3931 08BF                           l3923 08B3  
                         l3915 08A0                           l3907 0891                           l5099 0525  
                         l5291 14DC                           l5283 14B9                           l5275 149D  
                         l5267 1497                           l5259 1493                           l5195 1459  
                         l5187 1455                           l5179 1450                           l5339 1DD9  
                         l5355 1043                           l5347 1020                           l3861 0272  
                         l3853 0263                           l3845 024F                           l3837 022C  
                         l3829 01D0                           l3781 013A                           l3773 0132  
                         l3765 012A                           l3757 0122                           l3749 0108  
                         l3933 08C4                           l3941 08D4                           l3925 08B8  
                         l3917 08A8                           l3909 0895                           l5293 14E4  
                         l5285 14C5                           l5277 14A9                           l5269 1499  
                         l5197 145A                           l5189 1456                           l5349 1026  
                         l3871 0283                           l3855 0268                           l3863 0274  
                         l3839 0231                           l3791 015B                           l3783 013C  
                         l3775 0134                           l3767 012C                           l3759 0124  
                         l3943 08E4                           l3951 08FD                           l3935 08C9  
                         l3927 08BA                           l3919 08A9                           l5295 14EC  
                         l5287 14C7                           l5279 14AB                           l5199 145B  
                         l3881 029C                           l3857 026B                           l3849 0258  
                         l3865 0278                           l3793 0176                           l3785 013E  
                         l3777 0136                           l3769 012E                           l3961 0923  
                         l3953 0902                           l3945 08F0                           l3937 08D1  
                         l3929 08BE                           l5297 14F5                           l5289 14D3  
                         l3891 02E4                           l3883 02C7                           l3875 028B  
                         l3867 0279                           l3859 026D                           l3795 017A  
                         l3779 0138                           l3787 0140                           l3971 0948  
                         l3963 092B                           l3947 08F4                           l3939 08D2  
                         l5299 1501                           l3893 02E5                           l3885 02D2  
                         l3877 0290                           l3869 027D                           l3797 017C  
                         l3789 0141                           l3981 0967                           l3973 094C  
                         l3965 0933                           l3957 090B                           l4941 1ED9  
                         l4933 1EC1                           ?_pid 0056                           l3895 02E9  
                         l3887 02D7                           l3879 0298                           l3799 0180  
                         l3991 0983                           l3983 096F                           l3975 094D  
                         l3967 0935                           l3959 091B                           l4943 1EDE  
                         l4935 1EC3                           l4951 1F17                           l3897 02EB  
                         l3889 02DF                           l3993 098A                           l3969 093A  
                         l3977 0954                           l3985 0973                           l4937 1ECA  
                         l4953 1F22                           l4961 1E53                           l3899 02F3  
                         l3995 098E                           l3987 0979                           l3979 0966  
                         l4939 1ECE                           l4971 0303                           l4955 1F2D  
                         l4947 1F0C                           l4963 1E58                           l3997 098F  
                         l3989 0981                           l4981 0318                           l4973 0304  
                         l4965 02F9                           l4949 1F0E                           l4957 1E3F  
                         l3999 0996                           l4991 032C                           l4983 0320  
                         l4975 0309                           l4967 02FD                           l4959 1E50  
                         l4993 0331                           l4985 0325                           l4977 030E  
                         l4969 02FF                           l4995 0336                           l4987 0327  
                         l4979 0316                           l4997 033E                           l4989 032B  
                         l4999 0340                           STR_1 180D                           STR_2 1800  
                         _BRGH 0CF2                           _CREN 0CEC                           u4300 011C  
                         u4220 00C6                           u4301 011B                           u4221 00C5  
                         u4310 015B                           u4230 00CC                           u4311 015A  
                         u4231 00CB                           u4400 01B6                           u4320 0165  
                         u4240 00D1                           u5200 1365                           u4401 01B5  
                         u4321 0163                           u4241 00D0                           u5201 1364  
                         u4410 01BA                           u4330 0166                           u4250 00ED  
                         u5210 1369                           u4411 01B9                           u4315 0157  
                         u4251 00EC                           u5211 1368                           u4500 0268  
                         u4420 01C4                           u4340 0176                           u4260 00F4  
                         u6100 0309                           u5300 13D8                           u5220 1389  
                         u4501 0267                           u4421 01C3                           u4341 0175  
                         u4261 00F3                           u6101 0308                           u5301 13D7  
                         u5221 1388                           u4510 0272                           u4350 0180  
                         u4270 00FA                           u6110 030E                           u5310 13EC  
                         u4511 0271                           u4351 017F                           u4271 00F9  
                         u6111 030D                           u4600 02D2                           u4520 0278  
                         u4440 01F0                           u4280 00FF                           u6200 045F  
                         u6120 032B                           u3800 117E                           u3720 111F  
                         u5320 13FB                           u5240 13A6                           u4601 02D1  
                         u4521 0277                           u4441 01EF                           u4281 00FE  
                         u6121 032A                           u3801 117D                           u3721 111E  
                         u5321 13FA                           u5241 13A5                           u4610 02D7  
                         u4530 027D                           u4450 0231                           u4370 0198  
                         u4290 0118                           u6130 0331                           u3810 1183  
                         u3730 1137                           u5330 13FF                           u4611 02D6  
                         u4531 027C                           u4451 0230                           u4443 01EC  
                         u4435 01C8                           u4371 0197                           u4291 0117  
                         u6131 0330                           u3811 1182                           u5331 13FE  
                         u5315 13E8                           u5235 139A                           _PEIE 005E  
                         u4620 02E4                           u4540 0283                           u4460 024A  
                         u4380 019C                           u4700 08C9                           u6060 1ECE  
                         u6300 04C9                           u6140 0336                           u3740 114D  
                         u5260 13C0                           u4621 02E3                           u4541 0282  
                         u4461 0249                           u4381 019B                           u4365 0184  
                         u4701 08C8                           u6061 1ECD                           u6301 04C8  
                         u6205 045B                           u6141 0335                           u3741 114C  
                         u5261 13BF                           u4630 02E9                           u4550 028A  
                         u4470 024F                           u4390 01A1                           u4710 08E4  
                         u6310 04D7                           u6230 0487                           u6150 034D  
                         u3750 1154                           u4631 02E8                           u4551 0289  
                         u4471 024E                           u4391 01A0                           u4711 08E3  
                         u6231 0486                           u6215 046A                           u6151 034C  
                         u3751 1153                           u3735 1133                           u5255 13B4  
                         u4640 02F7                           u4560 0290                           u4800 0981  
                         u4720 0902                           u6080 1EDE                           u6320 04F2  
                         u6160 0352                           u5280 13CE                           u4641 02F6  
                         u4561 028F                           u4801 0980                           u4721 0901  
                         u6081 1EDD                           u6321 04F1                           u6225 047D  
                         u6161 0351                           u5281 13CD                           u4570 029C  
                         u4490 0263                           u4730 093A                           u4650 0895  
                         u6330 050A                           u6250 0497                           u6090 0303  
                         u3770 1166                           u5290 13D4                           u4571 029B  
                         u4491 0262                           u4731 0939                           u4651 0894  
                         u6075 1ED3                           u6331 0509                           u6315 04D3  
                         u6251 0496                           u6091 0302                           u3771 1165  
                         u5291 13D3                           u5275 13C4                           _RCIE 048D  
                         u4580 02B1                           u4900 09DE                           u4820 098E  
                         u4660 089B                           u6340 0524                           u6260 049C  
                         u3780 116D                           _RCIF 008D                           u4485 0259  
                         u4821 098D                           u4661 089A                           u6341 0523  
                         u6325 04EE                           u6261 049B                           u6245 0489  
                         u3781 116C                           u3765 1156                           u4590 02C7  
                         u4910 09F9                           u4670 08A0                           u6270 04B0  
                         u6190 0448                           u6350 07D7                           u4591 02C6  
                         u4911 09F8                           u4815 0984                           u4671 089F  
                         u6335 0506                           u6271 04AF                           u6175 03CB  
                         u6351 07D6                           u6407 1018                           u4920 0A14  
                         u4840 099E                           u4760 094C                           u4680 08BE  
                         u6280 04B7                           u6360 07DC                           _SECF 01EE  
                         u4585 02AD                           u4921 0A13                           u4905 09DA  
                         u4841 099D                           u4761 094B                           u4745 093B  
                         u4681 08BD                           u6281 04B6                           u6185 03F6  
                         u6361 07DB                           u6417 14A3                           u4930 0A27  
                         u4850 09A3                           u4690 08C4                           u6290 04BD  
                         u6370 1DCD                           u4931 0A26                           u4915 09F5  
                         u4851 09A2                           u4835 0990                           u4755 0942  
                         u4691 08C3                           u6291 04BC                           u6195 0444  
                         u3795 116F                           u6355 07D3                           u6427 14B1  
                         u6371 1DCC                           u4860 09B7                           u4780 0966  
                         u6380 1026                           u4925 0A10                           u4861 09B6  
                         u4781 0965                           u6437 14BF                           u6381 1025  
                         u4870 09BE                           u4790 0979                           u6390 102F  
                         u4871 09BD                           u4791 0978                           u4775 094E  
                         u6447 14CD                           u6391 102E                           u4880 09C4  
                         u4881 09C3                           u4785 0962                           u6457 14FB  
                         u4890 09D0                           _OERR 0CE9                           u4891 09CF  
                         u6467 1F12                           u6477 1F1D                           u6487 1F28  
                         u6497 1F33                           _SPEN 0CEF                           _SRXF 00E8  
                         _TXIE 048C                           _TXEN 0CF5                           _TXIF 008C  
                         _SYNC 0CF4                           abs@a 0070                           _iavg 01BC  
                         _conv 00E7                           _main 1011           UART_read_until@index 0074  
                         _pidi 00CB                           _qavg 01B4                           _pidt 01A0  
                i1___flmul@grs 004A                           _vavg 01BE                           fsr0h 0005  
                         fsr1h 0007                           indf0 0000                           fsr0l 0004  
                         indf1 0001                           _vmax 00D7                           fsr1l 0006  
                         btemp 007E                 i1___fladd@aexp 0031                 i1___fladd@bexp 0032  
                         start 007A                __end_of_Cell_ON 12B4                ___fldiv@new_exp 015A  
                        ??_ISR 00C5                          ??_abs 0072                          ??_pid 007E  
     __end_of_interrupt_enable 1DDB                 i1___fldiv@aexp 006F                 i1___fldiv@bexp 006E  
               i1___fldiv@sign 0067                    ?i1_Cell_OFF 0070                  ___fltol@sign1 016E  
              __end_of___fladd 02F9                          ?_main 0070                  ?_control_loop 0070  
              __end_of___fldiv 0A35                          _BRG16 0CFB                __end_of___flmul 0534  
                        _ANSB0 0C68                          _ANSA3 0C63                          _ANSB1 0C69  
                        _ANSB2 0C6A                __end_of___flsub 1E7A                          _ANSB3 0C6B  
                        _ANSA5 0C65                          _ANSB4 0C6C                __end_of___fltol 1190  
                        _ANSB5 0C6D                          _P1OEC 40AA                          i1l401 1F97  
                        i1l404 1D91                          i1l324 109F                          i1l333 0DF7  
                        i1l325 10A2                          i1l431 1DF1                          i1l407 1D99  
                        i1l319 1655                          i1l336 1E9B                          i1l441 12B3  
                        i1l362 1212                          i1l346 1FAC                          i1l354 1E3E  
                        i1l419 1DC4                          i1l444 1F0B                          i1l437 12B3  
                        i1l365 1FFF                          i1l349 1FC9                          i1l374 1D87  
                        i1l384 1009                          i1l377 1D8F                          i1l387 1010  
                        i1l580 0078                          i1l911 0871                          i1l931 10FE  
                        i1l924 1113                          i1l916 088A                          i1l908 081D  
                        i1l934 1113                          _CV_kd 01E2                          _TMR1H 0017  
                        _CV_ki 01E6                          _TMR1L 0016                          _CV_kp 01EA  
                        _WPUB0 1068                          _WPUA3 1063                          _WPUB1 1069  
                        _WPUB2 106A                          _WPUB3 106B                          _WPUA5 1065  
                        _WPUB4 106C                          _WPUC2 1072                          _WPUC3 1073  
                        _WPUB5 106D                          _WPUC4 1074                          _WPUC5 1075  
                        _WPUE3 1083                          _RXSEL 08E9                          _TXSEL 08EA  
              _UART_read_until 1F68                     i1set_DC@dc 00AA                          _iacum 00CF  
                        _i_ref 00D5                          _cmode 00EC                          _count 00EA  
               i1___flmul@aexp 004E                 i1___flmul@bexp 004F                          _vacum 00D2  
                        _v_ref 01A4                 i1___flmul@sign 0049                 i1___flmul@temp 0054  
               i1___flmul@prod 0050                __end_of_scaling 0C07                    pid@feedback 0056  
               i1___fltol@exp1 00A9                          status 0003               __end_of_Cell_OFF 1F39  
                        wtemp0 007E                i1___fladd@signs 0030               __end_ofi1_set_DC 1E9C  
              __initialization 007C                   __end_of_main 1048                 ??_control_loop 007E  
                       ??_main 01D9                    ?i1___xxtofl 0070                    pid@setpoint 005A  
                       _ADRESH 009C                         _ADRESL 009B                         _P1DCST 40D8  
                       _P1POLC 40B2                         _P1PHST 40D0                         _P1PRST 40E0  
                       _P1STRC 4172                         _RC1REG 0199                         i1l1031 0E4E  
                       i1l1111 17F8                         i1l1103 1785                         i1l1201 1F67  
                       i1l1035 0ECB                         i1l1052 0F5B                         i1l1044 0FFF  
                       i1l1108 17D1                         i1l1037 0EA9                         i1l1109 17EB  
                       i1l1133 06EE                         i1l1062 0F9F                         i1l1207 1E0A  
                       i1l1127 076E                         i1l1056 0F7D                         i1l1073 0FF8  
                       i1l1065 0FD6                         i1l1074 0FFF                         i1l1146 1EAE  
                       i1l1139 0762                         i1l1171 12D6                         i1l1148 1EBE  
                       i1l1173 135D                         i1l1077 1E79                         i1l1190 1E24  
                       i1l3103 10F5                         i1l3111 0DFC                         i1l1087 16A7  
                       i1l1184 1329                         i1l1193 1E24                         i1l3105 1103  
                       i1l3201 0EB8                         i1l3121 0E0D                         i1l3113 0DFE  
                       i1l1089 17FF                         i1l1185 1335                         i1l1177 130F  
                       i1l3107 1108                         i1l3203 0EC0                         i1l3131 0E23  
                       i1l3123 0E15                         i1l3115 0E02                         i1l3301 0FFE  
                       i1l3221 0EF1                         i1l3213 0EDD                         i1l3205 0EC4  
                       i1l3141 0E31                         i1l3133 0E29                         i1l3125 0E16  
                       i1l3117 0E03                         i1l3109 0DF8                         i1l3223 0EF3  
                       i1l3215 0EE5                         i1l3207 0ECF                         i1l3231 0F05  
                       i1l3143 0E36                         i1l3151 0E46                         i1l3135 0E2A  
                       i1l3119 0E08                         i1l3127 0E18                         i1l3311 1EB5  
                       i1l3303 1E9D                         i1l3321 121B                         i1l3081 10C7  
                       i1l3073 10A3                         i1l3233 0F1B                         i1l3241 0F53  
                       i1l3225 0EF7                         i1l3217 0EE9                         i1l3209 0ED4  
                       i1l3161 0E60                         i1l3153 0E54                         i1l3145 0E3B  
                       i1l3137 0E2C                         i1l3129 0E20                         i1l3313 1EBA  
                       i1l3305 1E9F                         i1l3331 1248                         i1l3323 1223  
                       i1l3083 10C8                         i1l3075 10AD                         i1l3251 0F78  
                       i1l3243 0F63                         i1l3235 0F3F                         i1l3227 0EF8  
                       i1l3219 0EED                         i1l3171 0E6A                         i1l3163 0E62  
                       i1l3155 0E58                         i1l3147 0E43                         i1l3139 0E30  
                       i1l3307 1EA6                      ??_Cell_ON 0070                         i1l3333 124A  
                       i1l3341 125D                         i1l3325 122D                         i1l3317 1213  
                       i1l3085 10D0                         i1l3261 0F8B                         i1l3253 0F7C  
                       i1l3245 0F68                         i1l3237 0F45                         i1l3229 0F00  
                       i1l3181 0E74                         i1l3173 0E6C                         i1l3165 0E64  
                       i1l3157 0E5C                         i1l3149 0E44                         i1l4301 1700  
                       i1l3309 1EAA                         i1l3501 058D                         i1l3351 1281  
                       i1l3343 1263                         i1l3335 1252                         i1l3327 1237  
                       i1l3319 1219                         i1l3095 10DE                         i1l3087 10D2  
                       i1l3079 10B6                         i1l4231 1EED                         i1l3271 0F9C  
                       i1l3255 0F81                         i1l3263 0F8D                         i1l3239 0F4A  
                       i1l3191 0E92                         i1l3183 0E76                         i1l3175 0E6E  
                       i1l3167 0E66                         i1l3159 0E5E                         i1l4303 1705  
                       i1l4311 171F                         i1l3511 05C6                         i1l3361 129E  
                       i1l3345 1265                         i1l3353 1284                         i1l3329 1242  
                       i1l3089 10D6                         i1l3097 10EE                         i1l4233 1EF7  
                       i1l3281 0FB5                         i1l3257 0F84                         i1l3249 0F71  
                       i1l3265 0F91                         i1l3193 0EAD                         i1l3185 0E78  
                       i1l3177 0E70                         i1l3169 0E68                         i1l4321 1744  
                       i1l4313 1731                         i1l4305 1713                         i1l4241 165C  
                       i1l3521 060C                         i1l3513 05D3                         i1l3505 0596  
                       i1l4401 1316                         i1l3433 1E5A                         i1l3371 1007  
                       i1l3363 12A8                         i1l3355 128A                         i1l3347 126D  
                       i1l4235 1F01                         i1l4227 1EE3                         i1l3291 0FED  
                       i1l3283 0FD2                         i1l3275 0FA4                         i1l3267 0F92  
                       i1l3259 0F86                         i1l3195 0EB1                         i1l3179 0E72  
                       i1l3187 0E7A                         i1l4331 175A                         i1l4323 174C  
                       i1l4315 1732                         i1l4307 1717                         i1l4251 1673  
                       i1l4243 1660                         i1l3531 0642                         i1l3523 0617  
                       i1l3515 05EB                         i1l3507 05A1                         i1l4411 134B  
                       i1l4403 131F                         i1l3435 1E5D                         i1l3373 100E  
                       i1l3621 1F6C                         i1l3365 1D91                         i1l3357 128C  
                       i1l3349 1277                         i1l3453 1E7A                         i1l4229 1EE5  
                       i1l3293 0FEE                         i1l3285 0FDB                         i1l3277 0FA9  
                       i1l3269 0F96                         i1l3197 0EB3                         i1l3189 0E7B  
                       i1l4341 176E                         i1l4333 1761                         i1l4325 174E  
                       i1l4317 173A                         i1l4309 1718                         i1l4261 1685  
                       i1l4253 1674                         i1l4245 1661                         i1l4237 1656  
                       i1l3541 068D                         i1l3533 0649                         i1l3525 061E  
                       i1l3517 05F8                         i1l3509 05AE                         i1l3461 0534  
                       i1l4413 1350                         i1l4405 1323                         i1l3381 0831  
                       i1l3701 0DD6                         i1l3623 1F70                         i1l3631 1F83  
                       i1l3367 1D96                         i1l3359 1294                         i1l3455 1E92  
                       i1l3295 0FF2                         i1l3287 0FE0                         i1l3279 0FB1  
                       i1l3199 0EB7                         i1l4351 1797                         i1l4343 1782  
                       i1l4327 1755                         i1l4335 1765                         i1l4319 173E  
                       i1l4271 169C                         i1l4263 1689                         i1l4247 1666  
                       i1l4255 1676                         i1l4239 165A                         i1l3551 06C2  
                       i1l3543 06A4                         i1l3535 065B                         i1l3527 0629  
                       i1l3519 0605                         i1l3471 0544                         i1l3463 0538  
                       i1l4415 1354                         i1l4407 132D                         i1l3391 0887  
                       i1l3383 0839                         i1l3703 0DEE                         i1l3705 1D87  
                       i1l3369 1002                         i1l3633 1F90                         i1l3457 1E95  
                       i1l3641 1F52                         i1l3297 0FF4                         i1l3289 0FE8  
                       i1l4361 17DF                         i1l4353 179B                         i1l4337 1769  
                       i1l4329 1759                         i1l4281 16BF                         i1l4273 169D  
                       i1l4265 168A                         i1l4257 167E                         i1l4249 166B  
                       i1l3561 06D3                         i1l3553 06C3                         i1l3545 06AB  
                       i1l3537 0666                         i1l3529 0630                         i1l3481 0560  
                       i1l3473 0549                         i1l3465 053A                         i1l4417 1355  
                       i1l4409 1337                         i1l3393 0889                         i1l3385 083D  
                       i1l3377 0801                         i1l3707 1D8C                         i1l3627 1F77  
                       i1l3619 1F69                         i1l3459 1E9A                         i1l3643 1F5A  
                       i1l3635 1F3A                         i1l3651 1DFB                         i1l3299 0FFA  
                       i1l4371 17F4                         i1l4363 17E2                         i1l4355 17B3  
                       i1l4347 178A                         i1l4339 176A                         i1l4291 16D6  
                       i1l4267 168F                         i1l4275 169F                         i1l4259 1683  
                       i1l3571 06F8                         i1l3563 06D7                         i1l3555 06CA  
                       i1l3547 06B7                         i1l3539 0678                         i1l3491 0571  
                       i1l3483 0562                         i1l3475 0551                         i1l3467 053E  
                       i1l3387 0855                         i1l3379 0815                         i1l3629 1F7F  
                       i1l3661 1DB9                         i1l3637 1F3B                         i1l3653 1E04  
                       i1l4365 17EA                         i1l4349 178F                         i1l4357 17B7  
                       i1l4293 16E6                         i1l4277 16AF                         i1l4285 16C8  
                       i1l4269 1694                         i1l3581 072D                         i1l3573 0700  
                       i1l3565 06EB                         i1l3549 06BE                         i1l3557 06CE  
                       i1l3493 0579                         i1l3485 0566                         i1l3477 0553  
                       i1l3469 053F                         i1l4381 12BE                         i1l3389 0859  
                       i1l5431 120D                         i1l3663 1DBD                         i1l3671 1FE1  
                       i1l3639 1F43                         i1l3647 1DF2                         i1l4367 17EE  
                       i1l4359 17C4                         i1l4295 16EE                         i1l4287 16CD  
                       i1l4279 16BB                         i1l3591 075B                         i1l3583 0737  
                       i1l3575 0704                         i1l3559 06D2                         i1l3495 057B  
                       i1l3487 0567                         i1l3479 055B                         i1l4391 12EA  
                       i1l4383 12CE                         i1l4631 1518                         i1l3657 1DB0  
                       i1l3681 1FFC                         i1l3673 1FEA                         i1l3665 1FCA  
                       i1l3649 1DF7                         i1l4369 17F2                         i1l4297 16F6  
                       i1l3593 075F                         i1l3585 0745                         i1l3577 071C  
                       i1l3569 06F3                         i1l3497 0583                         i1l3489 056C  
                       i1l4393 12F5                         i1l4385 12DE                         i1l4377 12B5  
                       i1l4641 153F                         i1l4633 1518                         i1l4705 1048  
                       i1l3659 1DB1                         i1l3675 1FED                         i1l3667 1FCD  
                       i1l4299 16FE                         i1l3595 0760                         i1l3587 074E  
                       i1l3579 0720                         i1l3499 0588                         i1l4395 12FC  
                       i1l4379 12BA                         i1l5427 1647                         i1l4651 1547  
                       i1l4635 151E                         i1l3691 0CF4                         i1l3683 0C07  
                       i1l4707 104E                         i1l4731 1F9C                         i1l5429 1208  
                       i1l3677 1FF0                         i1l3669 1FDE                         i1l3597 0766  
                       i1l3589 0750                         i1l4397 1300                         i1l4389 12E7  
                       i1l4661 1558                         i1l4653 154B                         i1l4637 152C  
                       i1l4629 1518                         i1l3693 0D43                         i1l3685 0CCA  
                       i1l4709 1075                         i1l4733 1FA6                         i1l4741 1E25  
                       i1l4751 1191                         i1l3679 1FF9                         i1l4399 1308  
                       i1l4671 156F                         i1l4663 1561                         i1l4655 1551  
                       i1l4647 153F                         i1l4639 153B                         i1l3695 0D8A  
                       i1l3687 0CD3                         i1l4735 1FAA                         i1l4727 1F98  
                       i1l4743 1E2C                         i1l4831 0011                         i1l4753 119C  
                       i1l4681 15DC                         i1l4673 1575                         i1l4665 1564  
                       i1l4657 1554                         i1l4649 1545                         i1l3697 0DB5  
                       i1l3689 0CEB                         i1l4737 1FB0                         i1l4729 1F98  
                       i1l4745 1E2F                         i1l4841 002A                         i1l4833 0013  
                       i1l4755 11E8                         i1l4683 15E2                         i1l4675 1577  
                       i1l4659 1556                         i1l4667 1567                         i1l3699 0DCC  
                       i1l4747 1E3A                         i1l4851 005A                         i1l4843 002B  
                       i1l4835 001B                         i1l4827 0006                         i1l4781 1DDC  
                       i1l4757 11FF                         i1l4749 1190                         i1l4685 15E3  
                       i1l4677 15D5                         i1l4693 163F                         i1l4861 0071  
                       i1l4853 005E                         i1l4845 0037                         i1l4829 000B  
                       i1l4837 0021                         i1l4783 1DE4                         i1l4687 163B  
                       i1l4855 0066                         i1l4847 0043                         i1l4839 0026  
                       u310_20 10F4                         i1l4785 1DE8                         u310_21 10F3  
                       i1l4857 0069                         i1l4849 0055                         i1l4779 1DDB  
                       i1l4787 1E0B                         i1l4859 006C                         i1l4789 1E18  
                       u311_25 10F6                         u312_20 1103                         u304_20 10AD  
                       u320_20 0E3B                         u312_21 1102                         u304_21 10AC  
                       u320_21 0E3A                         u400_25 06C4                         u313_20 1108  
                       u305_20 10C3                         u321_20 0E54                         u401_20 06D2  
                       u313_21 1107                         u321_21 0E53                         u401_21 06D1  
                       u305_25 10BF                         u306_20 10D6                         u330_20 0ECF  
                       u322_20 0E58                         u314_20 0E02                         u410_20 075F  
                       u402_20 06D7                         u306_21 10D5                         u330_21 0ECE  
                       u322_21 0E57                         u314_21 0E01                         u410_21 075E  
                       u402_21 06D6                         u411_20 1F76                         u307_20 10DD  
                       u331_20 0ED4                         u323_20 0E92                         u315_20 0E08  
                       u403_20 06EB                         u411_21 1F75                         u307_21 10DC  
                       u331_21 0ED3                         u323_21 0E91                         u315_21 0E07  
                       u403_21 06EA                         u323_25 0E8E                         u412_20 1F90  
                       u332_20 0EE9                         u324_20 0E9C                         u316_20 0E0D  
                       u404_20 06F2                         u420_20 0DEE                         u412_21 1F8F  
                       u332_21 0EE8                         u324_21 0E9A                         u316_21 0E0C  
                       u404_21 06F1                         u420_21 0DED            _UART_send_some_char 1DAF  
                       u412_25 1F8C                         u308_25 10DF                         u340_25 0F72  
                       u421_20 1D8C                         u309_20 10ED                         u413_20 1F52  
                       u341_20 0F7C                         u333_20 0EED                         u325_20 0E9D  
                       u317_20 0E29                         u405_20 06F8                         u421_21 1D8B  
                       u309_21 10EC                         u413_21 1F51                         u341_21 0F7B  
                       u333_21 0EEC                         u317_21 0E28                         u405_21 06F7  
                       u414_20 1F5A                         u350_20 0FC3                         u342_20 0F81  
                       u334_20 0EF7                         u326_20 0EAD                         u318_20 0E30  
                       u406_20 0704                         u414_21 1F59                         u342_21 0F80  
                       u334_21 0EF6                         u326_21 0EAC                         u318_21 0E2F  
                       u406_21 0703                         u350_25 0FBF                         u415_20 1E04  
                       u351_20 0FD2                         u343_20 0F8B                         u327_20 0EB7  
                       u319_20 0E36                         u407_20 0712                         u415_21 1E03  
                       u351_21 0FD1                         u343_21 0F8A                         u327_21 0EB6  
                       u319_21 0E35                         u335_25 0EFA                         u407_25 070E  
                       u416_20 1DC4                         u360_20 1219                         u352_20 0FDB  
                       u344_20 0F91                         u336_20 0F1B                         u408_20 072D  
                       u416_21 1DC3                         u360_21 1218                         u352_21 0FDA  
                       u344_21 0F90                         u336_21 0F1A                         u408_21 072C  
                       u336_23 0F17                         u328_25 0EBA                         u408_25 0729  
                       u361_20 1248                         u353_20 0FE0                         u345_20 0F96  
                       u337_20 0F4A                         u329_20 0ECB                         u409_20 0745  
                       u417_20 0CCA                         u601_20 000B                         u361_21 1247  
                       u353_21 0FDF                         u345_21 0F95                         u337_21 0F49  
                       u329_21 0ECA                         u409_21 0744                         u417_21 0CC9  
                       u601_21 000A                         u409_25 0741                         u362_20 1263  
                       u354_20 0FED                         u346_20 0F9C                         u338_20 0F63  
                       u370_20 0859                         u418_20 0CEB                         u602_20 0011  
                       u362_21 1262                         u354_21 0FEC                         u346_21 0F9B  
                       u338_21 0F62                         u370_21 0858                         u418_21 0CEA  
                       u602_21 0010                         u363_20 128A                         u355_20 0FF2  
                       u347_20 0FA3                         u339_20 0F68                         u371_20 0887  
                       u419_20 0DCC                         u603_20 0026                         u363_21 1289  
                       u355_21 0FF1                         u347_21 0FA2                         u339_21 0F67  
                       u371_21 0886                         u419_21 0DCB                         u603_21 0025  
                       u371_25 0883                         u364_20 1D96                         u356_20 0FFE  
                       u348_20 0FA9                         u540_20 16AF                         u604_20 005A  
                       u364_21 1D95                         u356_21 0FFD                         u348_21 0FA8  
                       u540_21 16AE                         u604_21 0059                         u365_20 1007  
                       u349_20 0FB5                         u541_20 16CD                         u357_20 1EAA  
                       u605_20 0071                         u365_21 1006                         u349_21 0FB4  
                       u541_21 16CC                         u357_21 1EA9                         u605_21 0070  
                       u366_20 100E                         u542_20 1705                         u534_20 1660  
                       u390_20 0571                         u366_21 100D                         u542_21 1704  
                       u534_21 165F                         u390_21 0570                         u550_25 174F  
                       u358_25 1EAF                         u551_20 1759                         u535_20 1666  
                       u359_20 1EBA                         u391_20 0588                         u367_20 0815  
                       u551_21 1758                         u535_21 1665                         u359_21 1EB9  
                       u391_21 0587                         u367_21 0814                         u543_25 1706  
                       u560_20 17C4                         u536_20 166B                         u392_20 058D  
                       u368_20 0831                         u560_21 17C3                         u536_21 166A  
                       u392_21 058C                         u368_21 0830                         u560_25 17C0  
                       u552_25 175B                         u544_25 170D                         u561_20 17DF  
                       u553_20 1769                         u545_20 1717                         u537_20 1689  
                       u385_20 053E                         u369_20 083D                         u561_21 17DE  
                       u553_21 1768                         u545_21 1716                         u537_21 1688  
                       u385_21 053D                         u369_21 083C                         u561_25 17DB  
                       u393_25 0606                         u562_20 17F2                         u554_20 176E  
                       u538_20 168F                         u386_20 0544                         u562_21 17F1  
                       u554_21 176D                         u538_21 168E                         u386_21 0543  
                       u546_25 1719                         u394_25 0631                         u570_25 1319  
                       u650_27 1F99                         u555_20 1782                         u547_20 1731  
                       u539_20 1694                         u395_20 0683                         u387_20 0549  
                       u571_20 1323                         u563_20 12BA                         u555_21 1781  
                       u547_21 1730                         u539_21 1693                         u387_21 0548  
                       u571_21 1322                         u563_21 12B9                         u547_25 172D  
                       u395_25 067F                         u651_27 1FA7                         u556_20 1789  
                       u548_20 1744                         u396_20 069A                         u388_20 0566  
                       u572_20 1329                         u564_20 12BE                         u580_20 156E  
                       u556_21 1788                         u548_21 1743                         u388_21 0565  
                       u572_21 1328                         u564_21 12BD                         u580_21 156D  
                       u396_25 0696                         u660_27 123C                         u652_27 1EE8  
                       u557_20 178F                         u549_20 174C                         u389_20 056C  
                       u573_20 132D                         u565_20 12DE                         u581_20 1575  
                       u557_21 178E                         u549_21 174B                         u389_21 056B  
                       u573_21 132C                         u565_21 12DD                         u581_21 1574  
                       u397_25 06A5                         u661_27 124D                         u653_27 1EF2  
                       u590_20 11B8                         u558_20 179B                         u574_20 1341  
                       u582_20 15DB                         u558_21 179A                         u582_21 15DA  
                       u590_25 11B5                         u398_25 06B8                         u574_25 133D  
                       u566_25 12EF                         u662_27 1257                         u654_27 1EFC  
                       u591_20 11CC                         u559_20 17A9                         u399_20 06C2  
                       u575_20 1350                         u567_20 12FB                         u583_20 15E2  
                       u399_21 06C1                         u575_21 134F                         u567_21 12FA  
                       u583_21 15E1                         u591_25 11C9                         u559_25 17A5  
                       u663_27 1268                         u655_27 1F06                         u592_20 11DE  
                       u576_20 1354                         u584_20 104E                         u576_21 1353  
                       u584_21 104D                         u592_25 11DB                         u568_25 1309  
                       u664_27 1272                         u656_27 1FF4                         u569_20 1315  
                       u577_20 152C                         u569_21 1314                         u577_21 152B  
                       u665_27 127C                         u657_27 121E                         u594_20 1DF1  
                       u578_20 1545                         u594_21 1DF0                         u578_21 1544  
                       u666_27 128F                         u658_27 1228                         u595_20 1E18  
                       u579_20 1551                         u587_20 1FB0                         u595_21 1E17  
                       u579_21 1550                         u587_21 1FAF                         u595_25 1E14  
                       u667_27 1299                         u659_27 1232                         u588_20 1E2C  
                       u588_21 1E2B                         u668_27 12A3                         _TMR1GE 00CF  
                       u589_20 11A6                         _TMR1IE 0488                         _TMR1IF 0088  
                       u589_25 11A3                         u669_27 12AD                         _TMR1ON 00C0  
                       _TX1REG 019A                         _TRISB0 0468                         _TRISA3 0463  
                       _TRISB1 0469                         _TRISB2 046A                         _TRISB3 046B  
                       _TRISA5 0465                         _TRISB4 046C                         _TRISC2 0472  
                       _TRISC3 0473                         _TRISB5 046D                         _TRISC4 0474  
                       _TRISC5 0475               __end_of___xxtofl 1409                         _nWPUEN 04AF  
                       ___flge 0801                      ??___fladd 01C1                      ??___fldiv 0150  
                    ??___flmul 0136                      ??___flsub 007E                      ??___fltol 01CD  
                       _i_char 00E3                         _i_disc 00E1               __end_of_read_ADC 1FCA  
         ?_UART_send_some_char 0075                         _set_DC 1E3F                         _second 01BA  
                       _timing 1E25        __end_of_UART_read_until 1F98                         _strcmp 1F39  
                       _strlen 1DF2              __end_ofi1___fladd 1000              __end_ofi1___fldiv 1800  
            __end_ofi1___flmul 076F              __end_ofi1___fltol 1114    __end_of_command_interpreter 1656  
                    ??_scaling 0170                i1___fltol@sign1 00A8                     ___flge@ff1 0070  
                   ___flge@ff2 0074                   ___xxtofl@arg 012A                   ___xxtofl@exp 0129  
                 ___xxtofl@val 0120        __end_of__initialization 00B8                     ___fltol@f1 01C9  
                 ?i1__Umul8_16 0070                 read_ADC@ad_res 0079                 __pcstackCOMMON 0070  
                 __pidataBANK1 1D6E                   __pidataBANK3 1D9A                   __pidataBANK4 1D7E  
             _UART_send_string 1DDB          ??_UART_send_some_char 0077                     _cc_cv_mode 076F  
        __end_of_UART_get_byte 1011                      ?_Cell_OFF 0070                      ?i1_set_DC 0070  
                   __pbssBANK1 00C7                     __pbssBANK3 01A0                     __pbssBANK4 0220  
         __end_of_control_loop 10A3                 i1___xxtofl@arg 007A                 i1___xxtofl@exp 0079  
                   _cell_count 00ED                 i1___xxtofl@val 0070              __end_of__Umul8_16 1EE3  
                   __pmaintext 1011                        ?___flge 0070                     __pintentry 0004  
                      ?_set_DC 0070              ?_interrupt_enable 0070                   ??i1_Cell_OFF 0070  
                      ?_timing 0070               ?_UART_read_until 0070                        _T1CKPS0 00C4  
                      _T1CKPS1 00C5                        ?_strcmp 0070                        ?_strlen 0070  
      UART_send_some_char@data 0075             ??_interrupt_enable 0120                        _T1OSCEN 00C3  
                   ??_Cell_OFF 0120                      ?___xxtofl 0120                     ??i1_set_DC 007E  
                      _SP1BRGH 019C                        _SP1BRGL 019B            i1__Umul8_16@product 0074  
                      _TMR1CS0 00C6                        _TMR1CS1 00C7                        _Cell_ON 1213  
                    ?_read_ADC 0070      UART_read_until@terminator 0070             __end_ofi1_Cell_OFF 1F0C  
                      _nT1SYNC 00C2                        ___fladd 00BC                        ___fldiv 088B  
                      ___flmul 02F9                        ___flsub 1E5A                        ___fltol 1114  
                   _initialize 1409                   ??i1___xxtofl 0074                        __ptext1 0A35  
                      __ptext2 1DC5                        __ptext3 1409                        __ptext4 1E3F  
                      __ptext5 1F0C                        __ptext6 076F                        __ptext7 135E  
                      __ptext8 1114                        __ptext9 02F9                    ?_cc_cv_mode 01D1  
                   ??___xxtofl 0124                        _scaling 0A35                        _timeout 01B8  
                      clrloop0 1D73           end_of_initialization 00B8                     ??_read_ADC 0072  
                      init_ram 1D78                        initloop 1D79                  _calculate_avg 1190  
           __end_ofi1___xxtofl 135E                        strcmp@l 0073                        strcmp@r 0070  
                      strlen@a 0073                        strlen@s 0070          i1__Umul8_16@word_mpld 0076  
                  ___fladd@grs 016D  command_interpreter@subcommand 00C4                  ___xxtofl@sign 0128  
                    i1___fladd 0DF8                      i1___fldiv 1656                      i1___flmul 0534  
                  ___fldiv@grs 015C                      i1___fltol 10A3                    ___fldiv@rem 0155  
     __end_of_UART_send_string 1DF2                    ___flmul@grs 013D                 ?_calculate_avg 0070  
          UART_read_until@data 0073                read_ADC@channel 0070                 __end_of___flge 088B  
                  ?_initialize 0070                   _control_loop 1048                 __end_of_set_DC 1E5A  
               __end_of_timing 1E3F     __end_of_converter_settings 2000                 __end_of_strcmp 1F68  
               __end_of_strlen 1E0B            start_initialization 007C                 _UART_send_char 1D86  
                  __end_of_ISR 007A                 _UART_send_byte 1D90                    __end_of_abs 1E25  
                   ?i1___fladd 0020                     ?i1___fldiv 0056                    __end_of_pid 0DF8  
                   ?i1___flmul 003C                     ?i1___fltol 00A0        command_interpreter@data 00AF  
      command_interpreter@test 00C3    __end_of_UART_send_some_char 1DC5                       ??___flge 0078  
                    __Umul8_16 1EBF                    __pdataBANK1 00EA                    __pdataBANK3 01DA  
                  __pdataBANK4 0228                       ??_set_DC 0170       cc_cv_mode@CC_mode_status 01D5  
                     ??_timing 0070                       ??_strcmp 0072                       ??_strlen 0072  
                    ___fladd@a 0166                      ___fladd@b 0162         __end_of_UART_send_char 1D90  
       __end_of_UART_send_byte 1D9A                      ___fldiv@a 0148                      ___fldiv@b 014C  
                    ___flmul@a 0132                      ___flmul@b 012E                      ___flsub@a 0034  
                    ___flsub@b 0038                      ___latbits 0002                  __pcstackBANK0 0020  
                __pcstackBANK1 00A0                  __pcstackBANK2 0120                  __pcstackBANK3 01C1  
              i1___xxtofl@sign 0078                       ?_Cell_ON 0070                ??_calculate_avg 0070  
            i1___fldiv@new_exp 0068                   _log_data_ptr 00E9       i1__Umul8_16@multiplicand 0070  
                     ?___fladd 0162                       ?___fldiv 0148                       ?___flmul 012E  
                     ?___flsub 0034                       ?___fltol 01C9                     ?__Umul8_16 0120  
             UART_send_char@bt 0070                   ??_cc_cv_mode 0170                ?_UART_send_char 0070  
                    _const_cur 00D9                ?_UART_send_byte 0070                      _const_vol 00DB  
                     ?_scaling 0070                   _scaling$1268 01D5                   _scaling$1269 01D1  
    cc_cv_mode@current_voltage 01D1                    ??i1___fladd 0028                    ??i1___fldiv 005E  
                  ??i1___flmul 0044                    ??i1___fltol 00A4                      clear_ram0 1D72  
           __end_of_cc_cv_mode 0800                       _PSMC1DCH 0824                       _PSMC1DCL 0823  
                     _PSMC1CLK 0814                       _PSMC1CON 0811                       _PSMC1MDL 0812  
                     _PSMC1PHH 0822                       _PSMC1PHL 0821                       _GO_nDONE 04E9  
                     _PSMC1PRH 0826                       _PSMC1PRL 0825                   _PSMC1CONbits 0811  
                   _ADCON0bits 009D                     _ADCON1bits 009E                     _ADCON2bits 009F  
        UART_send_string@st_pt 0071                       _Cell_OFF 1F0C                  _UART_get_byte 1002  
                     i1_set_DC 1E7A             UART_send_byte@byte 0070              ?_UART_send_string 0071  
           ??_UART_send_string 0073                  ??i1__Umul8_16 0072                    ??__Umul8_16 0122  
          _command_interpreter 1518                   ??_initialize 01D3                 ?_UART_get_byte 0070  
                     _capacity 00E5                       _pid$1265 005E                       _pid$1378 0062  
                     _pid$1379 0066                       ___xxtofl 135E                       __ptext10 1EBF  
                     __ptext11 088B                       __ptext20 1518                       __ptext12 00BC  
                     __ptext21 12B4                       __ptext30 1E7A                       __ptext22 0534  
                     __ptext14 1E25                       __ptext31 10A3                       __ptext23 1E9C  
                     __ptext15 1F98                       __ptext40 1D86                       __ptext32 1213  
                     __ptext24 1656                       __ptext16 1048                       __ptext33 1DAF  
                     __ptext25 0DF8                       __ptext17 0C07                       __ptext34 1D90  
                     __ptext26 1EE3                       __ptext18 1E5A                       __ptext35 1F68  
                     __ptext27 1DF2                       __ptext19 0801                       __ptext36 1002  
                     __ptext28 1F39                       __ptext37 1190                       __ptext29 1FCA  
                     __ptext38 1E0B                       __ptext39 1DDB               _interrupt_enable 1DC5  
         ?_command_interpreter 0070   UART_read_until@received_byte 0072                       _read_ADC 1F98  
           _converter_settings 1FCA                       _log_data 0220              ??_UART_read_until 0071  
           __end_of_initialize 1518                     _RC1STAbits 019D            ?_converter_settings 0070  
                   _CC_char_ki 01DA                       int$flags 007E                     _CC_char_kp 01DE  
          __end_ofi1__Umul8_16 1EBF                     _CC_disc_ki 0228                     _CC_disc_kp 022C  
         ??_converter_settings 00AC          ??_command_interpreter 00AD                       set_DC@dc 01D1  
                     intlevel1 0000         i1__Umul8_16@multiplier 0078                     _OSCCONbits 0099  
             ??_UART_send_char 0070               ??_UART_send_byte 0070                _CC_char_disc_kd 01C0  
              ??_UART_get_byte 0070                     i1_Cell_OFF 1EE3                  __pstringtext1 1800  
                __pstringtext2 180D                  __pstringtext3 0000         __Umul8_16@multiplicand 0120  
  cc_cv_mode@reference_voltage 01D3                  ___fladd@signs 016A                   ___fladd@aexp 016B  
                 ___fladd@bexp 016C          __end_of_calculate_avg 1213           __Umul8_16@multiplier 0128  
                  i1__Umul8_16 1E9C              __Umul8_16@product 0124  
